
arduino-noughts-and-crosses.elf:     file format elf32-littlearm

Sections:
Idx Name          Size      VMA       LMA       File off  Algn
  0 .text         00006be0  00000000  00000000  00010000  2**2
                  CONTENTS, ALLOC, LOAD, READONLY, CODE
  1 .data         00000130  20000000  00006be0  00020000  2**2
                  CONTENTS, ALLOC, LOAD, DATA
  2 .bss          00000ce8  20000130  00006d10  00020130  2**2
                  ALLOC
  3 .ARM.attributes 00000028  00000000  00000000  00020130  2**0
                  CONTENTS, READONLY
  4 .comment      00000059  00000000  00000000  00020158  2**0
                  CONTENTS, READONLY
  5 .debug_info   000a7dcc  00000000  00000000  000201b1  2**0
                  CONTENTS, READONLY, DEBUGGING
  6 .debug_abbrev 0000c3cb  00000000  00000000  000c7f7d  2**0
                  CONTENTS, READONLY, DEBUGGING
  7 .debug_loc    00018926  00000000  00000000  000d4348  2**0
                  CONTENTS, READONLY, DEBUGGING
  8 .debug_aranges 00001540  00000000  00000000  000ecc6e  2**0
                  CONTENTS, READONLY, DEBUGGING
  9 .debug_ranges 00003018  00000000  00000000  000ee1ae  2**0
                  CONTENTS, READONLY, DEBUGGING
 10 .debug_macro  00021394  00000000  00000000  000f11c6  2**0
                  CONTENTS, READONLY, DEBUGGING
 11 .debug_line   000193f3  00000000  00000000  0011255a  2**0
                  CONTENTS, READONLY, DEBUGGING
 12 .debug_str    0008760b  00000000  00000000  0012b94d  2**0
                  CONTENTS, READONLY, DEBUGGING
 13 .debug_frame  00004008  00000000  00000000  001b2f58  2**2
                  CONTENTS, READONLY, DEBUGGING
 14 .stabstr      000001b9  00000000  00000000  001b6f60  2**0
                  CONTENTS, READONLY, DEBUGGING

Disassembly of section .text:

00000000 <exception_table>:
       0:	00 80 00 20 b5 09 00 00 9d 09 00 00 9d 09 00 00     ... ............
	...
      2c:	9d 09 00 00 00 00 00 00 00 00 00 00 9d 09 00 00     ................
      3c:	09 0a 00 00 9d 09 00 00 9d 09 00 00 9d 09 00 00     ................
      4c:	9d 09 00 00 9d 09 00 00 9d 09 00 00 9d 09 00 00     ................
      5c:	a1 09 00 00 9d 09 00 00 59 49 00 00 9d 09 00 00     ........YI......
      6c:	9d 09 00 00 31 49 00 00 9d 09 00 00 69 49 00 00     ....1I......iI..
      7c:	9d 09 00 00 9d 09 00 00 9d 09 00 00 9d 09 00 00     ................
      8c:	9d 09 00 00 00 00 00 00 9d 09 00 00 9d 09 00 00     ................
      9c:	9d 09 00 00 9d 09 00 00 9d 09 00 00 9d 09 00 00     ................
      ac:	9d 09 00 00 00 00 00 00                             ........

000000b4 <__do_global_dtors_aux>:
      b4:	b510      	push	{r4, lr}
      b6:	4c06      	ldr	r4, [pc, #24]	; (d0 <__do_global_dtors_aux+0x1c>)
      b8:	7823      	ldrb	r3, [r4, #0]
      ba:	2b00      	cmp	r3, #0
      bc:	d107      	bne.n	ce <__do_global_dtors_aux+0x1a>
      be:	4b05      	ldr	r3, [pc, #20]	; (d4 <__do_global_dtors_aux+0x20>)
      c0:	2b00      	cmp	r3, #0
      c2:	d002      	beq.n	ca <__do_global_dtors_aux+0x16>
      c4:	4804      	ldr	r0, [pc, #16]	; (d8 <__do_global_dtors_aux+0x24>)
      c6:	e000      	b.n	ca <__do_global_dtors_aux+0x16>
      c8:	bf00      	nop
      ca:	2301      	movs	r3, #1
      cc:	7023      	strb	r3, [r4, #0]
      ce:	bd10      	pop	{r4, pc}
      d0:	20000130 	.word	0x20000130
      d4:	00000000 	.word	0x00000000
      d8:	00006bdc 	.word	0x00006bdc

000000dc <frame_dummy>:
      dc:	4b08      	ldr	r3, [pc, #32]	; (100 <frame_dummy+0x24>)
      de:	b510      	push	{r4, lr}
      e0:	2b00      	cmp	r3, #0
      e2:	d003      	beq.n	ec <frame_dummy+0x10>
      e4:	4907      	ldr	r1, [pc, #28]	; (104 <frame_dummy+0x28>)
      e6:	4808      	ldr	r0, [pc, #32]	; (108 <frame_dummy+0x2c>)
      e8:	e000      	b.n	ec <frame_dummy+0x10>
      ea:	bf00      	nop
      ec:	4807      	ldr	r0, [pc, #28]	; (10c <frame_dummy+0x30>)
      ee:	6803      	ldr	r3, [r0, #0]
      f0:	2b00      	cmp	r3, #0
      f2:	d100      	bne.n	f6 <frame_dummy+0x1a>
      f4:	bd10      	pop	{r4, pc}
      f6:	4b06      	ldr	r3, [pc, #24]	; (110 <frame_dummy+0x34>)
      f8:	2b00      	cmp	r3, #0
      fa:	d0fb      	beq.n	f4 <frame_dummy+0x18>
      fc:	4798      	blx	r3
      fe:	e7f9      	b.n	f4 <frame_dummy+0x18>
     100:	00000000 	.word	0x00000000
     104:	20000134 	.word	0x20000134
     108:	00006bdc 	.word	0x00006bdc
     10c:	2000012c 	.word	0x2000012c
     110:	00000000 	.word	0x00000000

00000114 <_Z6read16RN5SDLib4FileE>:
	
// These read 16-bit and 32-bit types from the SD card file.
// BMP data is stored little-endian, Arduino is little-endian too.
// May need to reverse subscript order if porting elsewhere.

uint16_t read16(File &f) {
     114:	b537      	push	{r0, r1, r2, r4, r5, lr}
	uint16_t result;
	((uint8_t *) &result)[0] = f.read(); // LSB
     116:	6803      	ldr	r3, [r0, #0]
uint16_t read16(File &f) {
     118:	0004      	movs	r4, r0
	((uint8_t *) &result)[0] = f.read(); // LSB
     11a:	695b      	ldr	r3, [r3, #20]
     11c:	4798      	blx	r3
     11e:	466b      	mov	r3, sp
     120:	1d9d      	adds	r5, r3, #6
     122:	7198      	strb	r0, [r3, #6]
	((uint8_t *) &result)[1] = f.read(); // MSB
     124:	6823      	ldr	r3, [r4, #0]
     126:	0020      	movs	r0, r4
     128:	695b      	ldr	r3, [r3, #20]
     12a:	4798      	blx	r3
     12c:	7068      	strb	r0, [r5, #1]
	return result;
     12e:	8828      	ldrh	r0, [r5, #0]
}
     130:	bd3e      	pop	{r1, r2, r3, r4, r5, pc}

00000132 <_Z6read32RN5SDLib4FileE>:

uint32_t read32(File &f) {
	uint32_t result;
	((uint8_t *) &result)[0] = f.read(); // LSB
     132:	6803      	ldr	r3, [r0, #0]
uint32_t read32(File &f) {
     134:	b537      	push	{r0, r1, r2, r4, r5, lr}
     136:	0004      	movs	r4, r0
	((uint8_t *) &result)[0] = f.read(); // LSB
     138:	695b      	ldr	r3, [r3, #20]
     13a:	4798      	blx	r3
	((uint8_t *) &result)[1] = f.read();
     13c:	6823      	ldr	r3, [r4, #0]
	((uint8_t *) &result)[0] = f.read(); // LSB
     13e:	ad01      	add	r5, sp, #4
     140:	7028      	strb	r0, [r5, #0]
	((uint8_t *) &result)[1] = f.read();
     142:	695b      	ldr	r3, [r3, #20]
     144:	0020      	movs	r0, r4
     146:	4798      	blx	r3
	((uint8_t *) &result)[2] = f.read();
     148:	6823      	ldr	r3, [r4, #0]
	((uint8_t *) &result)[1] = f.read();
     14a:	7068      	strb	r0, [r5, #1]
	((uint8_t *) &result)[2] = f.read();
     14c:	695b      	ldr	r3, [r3, #20]
     14e:	0020      	movs	r0, r4
     150:	4798      	blx	r3
	((uint8_t *) &result)[3] = f.read(); // MSB
     152:	6823      	ldr	r3, [r4, #0]
	((uint8_t *) &result)[2] = f.read();
     154:	70a8      	strb	r0, [r5, #2]
	((uint8_t *) &result)[3] = f.read(); // MSB
     156:	695b      	ldr	r3, [r3, #20]
     158:	0020      	movs	r0, r4
     15a:	4798      	blx	r3
     15c:	70e8      	strb	r0, [r5, #3]
	return result;
}
     15e:	9801      	ldr	r0, [sp, #4]
     160:	bd3e      	pop	{r1, r2, r3, r4, r5, pc}
	...

00000164 <_Z8getPointv>:
	if (!goodBmp)
	Serial.println(F("BMP format not recognized or SD not mounted"));
	Serial.println();
}

TS_Point getPoint() {
     164:	b537      	push	{r0, r1, r2, r4, r5, lr}
     166:	0004      	movs	r4, r0
	TS_Point point = touchScreen.getPoint();
     168:	2200      	movs	r2, #0
     16a:	490c      	ldr	r1, [pc, #48]	; (19c <_Z8getPointv+0x38>)
     16c:	f002 fab0 	bl	26d0 <_ZN15Adafruit_FT62068getPointEh>
	// convert point to match display coordinate system
	point.x = map(point.x, 0, 240, 240, 0);
     170:	2500      	movs	r5, #0
     172:	2300      	movs	r3, #0
     174:	5ee0      	ldrsh	r0, [r4, r3]
     176:	23f0      	movs	r3, #240	; 0xf0
     178:	0029      	movs	r1, r5
     17a:	001a      	movs	r2, r3
     17c:	9500      	str	r5, [sp, #0]
     17e:	f002 f981 	bl	2484 <_Z3maplllll>
	point.y = map(point.y, 0, 320, 320, 0);
     182:	22a0      	movs	r2, #160	; 0xa0
     184:	0052      	lsls	r2, r2, #1
	point.x = map(point.x, 0, 240, 240, 0);
     186:	8020      	strh	r0, [r4, #0]
	point.y = map(point.y, 0, 320, 320, 0);
     188:	9500      	str	r5, [sp, #0]
     18a:	2302      	movs	r3, #2
     18c:	5ee0      	ldrsh	r0, [r4, r3]
     18e:	0029      	movs	r1, r5
     190:	0013      	movs	r3, r2
     192:	f002 f977 	bl	2484 <_Z3maplllll>
     196:	8060      	strh	r0, [r4, #2]
	return point;
}
     198:	0020      	movs	r0, r4
     19a:	bd3e      	pop	{r1, r2, r3, r4, r5, pc}
     19c:	200001b0 	.word	0x200001b0

000001a0 <_GLOBAL__sub_I_tftDisplay>:
Adafruit_ILI9341 tftDisplay = Adafruit_ILI9341(tftDisplay_CS, tftDisplay_DC);
     1a0:	2301      	movs	r3, #1

void loop() {

	startScreen();

     1a2:	b510      	push	{r4, lr}
Adafruit_ILI9341 tftDisplay = Adafruit_ILI9341(tftDisplay_CS, tftDisplay_DC);
     1a4:	425b      	negs	r3, r3
     1a6:	2209      	movs	r2, #9
     1a8:	210a      	movs	r1, #10
     1aa:	4803      	ldr	r0, [pc, #12]	; (1b8 <_GLOBAL__sub_I_tftDisplay+0x18>)
     1ac:	f002 fba0 	bl	28f0 <_ZN16Adafruit_ILI9341C1Eaaa>
Adafruit_FT6206 touchScreen = Adafruit_FT6206();
     1b0:	4802      	ldr	r0, [pc, #8]	; (1bc <_GLOBAL__sub_I_tftDisplay+0x1c>)
     1b2:	f002 fa24 	bl	25fe <_ZN15Adafruit_FT6206C1Ev>
     1b6:	bd10      	pop	{r4, pc}
     1b8:	2000014c 	.word	0x2000014c
     1bc:	200001b0 	.word	0x200001b0

000001c0 <_Z10drawBitmapcss>:
void drawBitmap(char fileInput, int16_t x, int16_t y) {
     1c0:	b5f0      	push	{r4, r5, r6, r7, lr}
     1c2:	b0d9      	sub	sp, #356	; 0x164
	File bmpFile;
     1c4:	ad0f      	add	r5, sp, #60	; 0x3c
void drawBitmap(char fileInput, int16_t x, int16_t y) {
     1c6:	0004      	movs	r4, r0
	File bmpFile;
     1c8:	0028      	movs	r0, r5
void drawBitmap(char fileInput, int16_t x, int16_t y) {
     1ca:	9102      	str	r1, [sp, #8]
     1cc:	9203      	str	r2, [sp, #12]
	File bmpFile;
     1ce:	f002 ffa1 	bl	3114 <_ZN5SDLib4FileC1Ev>
	uint32_t pos = 0, startTime = millis();
     1d2:	f000 fc27 	bl	a24 <millis>
	char filename[6] = {fileInput, '.', 'b', 'm', 'p'};
     1d6:	ae0d      	add	r6, sp, #52	; 0x34
	uint32_t pos = 0, startTime = millis();
     1d8:	900a      	str	r0, [sp, #40]	; 0x28
	char filename[6] = {fileInput, '.', 'b', 'm', 'p'};
     1da:	2206      	movs	r2, #6
     1dc:	2100      	movs	r1, #0
     1de:	0030      	movs	r0, r6
     1e0:	f005 fd2e 	bl	5c40 <memset>
     1e4:	232e      	movs	r3, #46	; 0x2e
     1e6:	7034      	strb	r4, [r6, #0]
     1e8:	7073      	strb	r3, [r6, #1]
	if ((x >= tftDisplay.width()) || (y >= tftDisplay.height())) return;
     1ea:	4cc4      	ldr	r4, [pc, #784]	; (4fc <_Z10drawBitmapcss+0x33c>)
	char filename[6] = {fileInput, '.', 'b', 'm', 'p'};
     1ec:	3334      	adds	r3, #52	; 0x34
     1ee:	70b3      	strb	r3, [r6, #2]
     1f0:	330b      	adds	r3, #11
     1f2:	70f3      	strb	r3, [r6, #3]
	if ((x >= tftDisplay.width()) || (y >= tftDisplay.height())) return;
     1f4:	0020      	movs	r0, r4
	char filename[6] = {fileInput, '.', 'b', 'm', 'p'};
     1f6:	3303      	adds	r3, #3
     1f8:	7133      	strb	r3, [r6, #4]
	if ((x >= tftDisplay.width()) || (y >= tftDisplay.height())) return;
     1fa:	f004 ff77 	bl	50ec <_ZNK12Adafruit_GFX5widthEv>
     1fe:	9b02      	ldr	r3, [sp, #8]
     200:	4298      	cmp	r0, r3
     202:	dd4b      	ble.n	29c <_Z10drawBitmapcss+0xdc>
     204:	0020      	movs	r0, r4
     206:	f004 ff74 	bl	50f2 <_ZNK12Adafruit_GFX6heightEv>
     20a:	9b03      	ldr	r3, [sp, #12]
     20c:	4298      	cmp	r0, r3
     20e:	dd45      	ble.n	29c <_Z10drawBitmapcss+0xdc>
	Serial.println();
     210:	4cbb      	ldr	r4, [pc, #748]	; (500 <_Z10drawBitmapcss+0x340>)
	if ((bmpFile = SD.open(filename))) {
     212:	af18      	add	r7, sp, #96	; 0x60
	Serial.println();
     214:	0020      	movs	r0, r4
     216:	f000 fc79 	bl	b0c <_ZN5Print7printlnEv>
	Serial.print(F("Loading image '"));
     21a:	49ba      	ldr	r1, [pc, #744]	; (504 <_Z10drawBitmapcss+0x344>)
     21c:	0020      	movs	r0, r4
     21e:	f000 fc68 	bl	af2 <_ZN5Print5printEPK19__FlashStringHelper>
	Serial.print(filename);
     222:	0031      	movs	r1, r6
     224:	0020      	movs	r0, r4
     226:	f000 fc68 	bl	afa <_ZN5Print5printEPKc>
	Serial.println('\'');
     22a:	2127      	movs	r1, #39	; 0x27
     22c:	0020      	movs	r0, r4
     22e:	f000 fc7f 	bl	b30 <_ZN5Print7printlnEc>
	if ((bmpFile = SD.open(filename))) {
     232:	2301      	movs	r3, #1
     234:	0032      	movs	r2, r6
     236:	49b4      	ldr	r1, [pc, #720]	; (508 <_Z10drawBitmapcss+0x348>)
     238:	0038      	movs	r0, r7
     23a:	f003 f869 	bl	3310 <_ZN5SDLib7SDClass4openEPKch>
#ifdef BIN // Prevent warnings if BIN is previously defined in "iotnx4.h" or similar
#undef BIN
#endif
#define BIN 2

class Print
     23e:	9b19      	ldr	r3, [sp, #100]	; 0x64
     240:	606b      	str	r3, [r5, #4]
    SKIP_WHITESPACE // Only tabs, spaces, line feeds & carriage returns are skipped.
};

#define NO_IGNORE_CHAR  '\x01' // a char not found in a valid ASCII numeric field

class Stream : public Print
     242:	68bb      	ldr	r3, [r7, #8]
     244:	60ab      	str	r3, [r5, #8]
     246:	68fb      	ldr	r3, [r7, #12]
     248:	60eb      	str	r3, [r5, #12]
     24a:	2310      	movs	r3, #16
#define FILE_READ O_READ
#define FILE_WRITE (O_READ | O_WRITE | O_CREAT | O_APPEND)

namespace SDLib {

class File : public Stream {
     24c:	5cfa      	ldrb	r2, [r7, r3]
     24e:	54ea      	strb	r2, [r5, r3]
     250:	3301      	adds	r3, #1
     252:	2b1d      	cmp	r3, #29
     254:	d1fa      	bne.n	24c <_Z10drawBitmapcss+0x8c>
     256:	6a3b      	ldr	r3, [r7, #32]
     258:	0028      	movs	r0, r5
     25a:	622b      	str	r3, [r5, #32]
     25c:	f002 ffa7 	bl	31ae <_ZN5SDLib4FilecvbEv>
     260:	2800      	cmp	r0, #0
     262:	d003      	beq.n	26c <_Z10drawBitmapcss+0xac>
		Serial.println(F("File (maybe) not found"));
     264:	49a9      	ldr	r1, [pc, #676]	; (50c <_Z10drawBitmapcss+0x34c>)
     266:	0020      	movs	r0, r4
     268:	f000 fc58 	bl	b1c <_ZN5Print7printlnEPK19__FlashStringHelper>
	Serial.println(F("Start parse"));
     26c:	49a8      	ldr	r1, [pc, #672]	; (510 <_Z10drawBitmapcss+0x350>)
     26e:	0020      	movs	r0, r4
     270:	f000 fc54 	bl	b1c <_ZN5Print7printlnEPK19__FlashStringHelper>
	if (read16(bmpFile) == 0x4D42) { // BMP signature
     274:	0028      	movs	r0, r5
     276:	f7ff ff4d 	bl	114 <_Z6read16RN5SDLib4FileE>
     27a:	4ba6      	ldr	r3, [pc, #664]	; (514 <_Z10drawBitmapcss+0x354>)
     27c:	4298      	cmp	r0, r3
     27e:	d00f      	beq.n	2a0 <_Z10drawBitmapcss+0xe0>
	boolean goodBmp = false;       // Set to true on valid header parse
     280:	2500      	movs	r5, #0
	bmpFile.close();
     282:	a80f      	add	r0, sp, #60	; 0x3c
     284:	f002 ff86 	bl	3194 <_ZN5SDLib4File5closeEv>
     288:	4c9d      	ldr	r4, [pc, #628]	; (500 <_Z10drawBitmapcss+0x340>)
	if (!goodBmp)
     28a:	2d00      	cmp	r5, #0
     28c:	d103      	bne.n	296 <_Z10drawBitmapcss+0xd6>
	Serial.println(F("BMP format not recognized or SD not mounted"));
     28e:	49a2      	ldr	r1, [pc, #648]	; (518 <_Z10drawBitmapcss+0x358>)
     290:	0020      	movs	r0, r4
     292:	f000 fc43 	bl	b1c <_ZN5Print7printlnEPK19__FlashStringHelper>
	Serial.println();
     296:	0020      	movs	r0, r4
     298:	f000 fc38 	bl	b0c <_ZN5Print7printlnEv>
}
     29c:	b059      	add	sp, #356	; 0x164
     29e:	bdf0      	pop	{r4, r5, r6, r7, pc}
		Serial.print(F("File size: "));
     2a0:	499e      	ldr	r1, [pc, #632]	; (51c <_Z10drawBitmapcss+0x35c>)
     2a2:	0020      	movs	r0, r4
     2a4:	f000 fc25 	bl	af2 <_ZN5Print5printEPK19__FlashStringHelper>
		Serial.println(read32(bmpFile));
     2a8:	0028      	movs	r0, r5
     2aa:	f7ff ff42 	bl	132 <_Z6read32RN5SDLib4FileE>
     2ae:	220a      	movs	r2, #10
     2b0:	0001      	movs	r1, r0
     2b2:	0020      	movs	r0, r4
     2b4:	f000 fcb5 	bl	c22 <_ZN5Print7printlnEmi>
		(void) read32(bmpFile); // Read & ignore creator bytes
     2b8:	0028      	movs	r0, r5
     2ba:	f7ff ff3a 	bl	132 <_Z6read32RN5SDLib4FileE>
		bmpImageoffset = read32(bmpFile); // Start of image data
     2be:	0028      	movs	r0, r5
     2c0:	f7ff ff37 	bl	132 <_Z6read32RN5SDLib4FileE>
		Serial.print(F("Image Offset: "));
     2c4:	4996      	ldr	r1, [pc, #600]	; (520 <_Z10drawBitmapcss+0x360>)
		bmpImageoffset = read32(bmpFile); // Start of image data
     2c6:	9007      	str	r0, [sp, #28]
		Serial.print(F("Image Offset: "));
     2c8:	0020      	movs	r0, r4
     2ca:	f000 fc12 	bl	af2 <_ZN5Print5printEPK19__FlashStringHelper>
		Serial.println(bmpImageoffset, DEC);
     2ce:	220a      	movs	r2, #10
     2d0:	9907      	ldr	r1, [sp, #28]
     2d2:	0020      	movs	r0, r4
     2d4:	f000 fca5 	bl	c22 <_ZN5Print7printlnEmi>
		Serial.print(F("Header size: "));
     2d8:	4992      	ldr	r1, [pc, #584]	; (524 <_Z10drawBitmapcss+0x364>)
     2da:	0020      	movs	r0, r4
     2dc:	f000 fc09 	bl	af2 <_ZN5Print5printEPK19__FlashStringHelper>
		Serial.println(read32(bmpFile));
     2e0:	0028      	movs	r0, r5
     2e2:	f7ff ff26 	bl	132 <_Z6read32RN5SDLib4FileE>
     2e6:	220a      	movs	r2, #10
     2e8:	0001      	movs	r1, r0
     2ea:	0020      	movs	r0, r4
     2ec:	f000 fc99 	bl	c22 <_ZN5Print7printlnEmi>
		bmpWidth = read32(bmpFile);
     2f0:	0028      	movs	r0, r5
     2f2:	f7ff ff1e 	bl	132 <_Z6read32RN5SDLib4FileE>
     2f6:	9006      	str	r0, [sp, #24]
		bmpHeight = read32(bmpFile);
     2f8:	0028      	movs	r0, r5
     2fa:	f7ff ff1a 	bl	132 <_Z6read32RN5SDLib4FileE>
     2fe:	0007      	movs	r7, r0
		if (read16(bmpFile) == 1) { // # planes -- must be '1'
     300:	0028      	movs	r0, r5
     302:	f7ff ff07 	bl	114 <_Z6read16RN5SDLib4FileE>
     306:	9004      	str	r0, [sp, #16]
     308:	2801      	cmp	r0, #1
     30a:	d1b9      	bne.n	280 <_Z10drawBitmapcss+0xc0>
			bmpDepth = read16(bmpFile); // bits per pixel
     30c:	0028      	movs	r0, r5
     30e:	f7ff ff01 	bl	114 <_Z6read16RN5SDLib4FileE>
			Serial.print(F("Bit Depth: "));
     312:	4985      	ldr	r1, [pc, #532]	; (528 <_Z10drawBitmapcss+0x368>)
			bmpDepth = read16(bmpFile); // bits per pixel
     314:	b2c6      	uxtb	r6, r0
			Serial.print(F("Bit Depth: "));
     316:	0020      	movs	r0, r4
     318:	f000 fbeb 	bl	af2 <_ZN5Print5printEPK19__FlashStringHelper>
			Serial.println(bmpDepth);
     31c:	220a      	movs	r2, #10
     31e:	0031      	movs	r1, r6
     320:	0020      	movs	r0, r4
     322:	f000 fc74 	bl	c0e <_ZN5Print7printlnEhi>
			if ((bmpDepth == 24) && (read32(bmpFile) == 0)) { // 0 = uncompressed
     326:	2e18      	cmp	r6, #24
     328:	d1aa      	bne.n	280 <_Z10drawBitmapcss+0xc0>
     32a:	0028      	movs	r0, r5
     32c:	f7ff ff01 	bl	132 <_Z6read32RN5SDLib4FileE>
     330:	1e05      	subs	r5, r0, #0
     332:	d1a5      	bne.n	280 <_Z10drawBitmapcss+0xc0>
				Serial.print(F("Image size: "));
     334:	497d      	ldr	r1, [pc, #500]	; (52c <_Z10drawBitmapcss+0x36c>)
     336:	0020      	movs	r0, r4
     338:	f000 fbdb 	bl	af2 <_ZN5Print5printEPK19__FlashStringHelper>
				Serial.print(bmpWidth);
     33c:	220a      	movs	r2, #10
     33e:	9906      	ldr	r1, [sp, #24]
     340:	0020      	movs	r0, r4
     342:	f000 fc4a 	bl	bda <_ZN5Print5printEii>
				Serial.print('x');
     346:	2178      	movs	r1, #120	; 0x78
     348:	0020      	movs	r0, r4
     34a:	f000 fbda 	bl	b02 <_ZN5Print5printEc>
				Serial.println(bmpHeight);
     34e:	220a      	movs	r2, #10
     350:	0039      	movs	r1, r7
     352:	0020      	movs	r0, r4
     354:	f000 fc45 	bl	be2 <_ZN5Print7printlnEii>
				if (bmpHeight < 0) {
     358:	2f00      	cmp	r7, #0
     35a:	db02      	blt.n	362 <_Z10drawBitmapcss+0x1a2>
	boolean flip = true;        // BMP is stored bottom-to-top
     35c:	9b04      	ldr	r3, [sp, #16]
     35e:	9308      	str	r3, [sp, #32]
     360:	e001      	b.n	366 <_Z10drawBitmapcss+0x1a6>
					bmpHeight = -bmpHeight;
     362:	427f      	negs	r7, r7
					flip = false;
     364:	9508      	str	r5, [sp, #32]
				x2 = x + bmpWidth - 1; // Lower-right corner
     366:	9a02      	ldr	r2, [sp, #8]
     368:	9b06      	ldr	r3, [sp, #24]
     36a:	4694      	mov	ip, r2
     36c:	4463      	add	r3, ip
     36e:	9304      	str	r3, [sp, #16]
				y2 = y + bmpHeight - 1;
     370:	9b03      	ldr	r3, [sp, #12]
     372:	18fb      	adds	r3, r7, r3
     374:	9305      	str	r3, [sp, #20]
     376:	1e5d      	subs	r5, r3, #1
				if ((x2 >= 0) && (y2 >= 0)) { // On screen?
     378:	9b04      	ldr	r3, [sp, #16]
     37a:	3b01      	subs	r3, #1
     37c:	930b      	str	r3, [sp, #44]	; 0x2c
     37e:	d500      	bpl.n	382 <_Z10drawBitmapcss+0x1c2>
     380:	e0a9      	b.n	4d6 <_Z10drawBitmapcss+0x316>
     382:	2d00      	cmp	r5, #0
     384:	da00      	bge.n	388 <_Z10drawBitmapcss+0x1c8>
     386:	e0a6      	b.n	4d6 <_Z10drawBitmapcss+0x316>
					if (x < 0) { // Clip left
     388:	2a00      	cmp	r2, #0
     38a:	db00      	blt.n	38e <_Z10drawBitmapcss+0x1ce>
     38c:	e08d      	b.n	4aa <_Z10drawBitmapcss+0x2ea>
						bx1 = -x;
     38e:	4253      	negs	r3, r2
     390:	9309      	str	r3, [sp, #36]	; 0x24
						x = 0;
     392:	2300      	movs	r3, #0
     394:	9302      	str	r3, [sp, #8]
					if (y < 0) { // Clip top
     396:	9b03      	ldr	r3, [sp, #12]
     398:	2b00      	cmp	r3, #0
     39a:	db00      	blt.n	39e <_Z10drawBitmapcss+0x1de>
     39c:	e08a      	b.n	4b4 <_Z10drawBitmapcss+0x2f4>
						by1 = -y;
     39e:	425e      	negs	r6, r3
						y = 0;
     3a0:	2300      	movs	r3, #0
     3a2:	9303      	str	r3, [sp, #12]
					if (x2 >= tftDisplay.width()) w = tftDisplay.width() - x; // Clip right
     3a4:	4c55      	ldr	r4, [pc, #340]	; (4fc <_Z10drawBitmapcss+0x33c>)
     3a6:	0020      	movs	r0, r4
     3a8:	f004 fea0 	bl	50ec <_ZNK12Adafruit_GFX5widthEv>
     3ac:	9b0b      	ldr	r3, [sp, #44]	; 0x2c
     3ae:	4283      	cmp	r3, r0
     3b0:	db05      	blt.n	3be <_Z10drawBitmapcss+0x1fe>
     3b2:	0020      	movs	r0, r4
     3b4:	f004 fe9a 	bl	50ec <_ZNK12Adafruit_GFX5widthEv>
     3b8:	9b02      	ldr	r3, [sp, #8]
     3ba:	1ac3      	subs	r3, r0, r3
     3bc:	9304      	str	r3, [sp, #16]
					if (y2 >= tftDisplay.height()) h = tftDisplay.height() - y; // Clip bottom
     3be:	4c4f      	ldr	r4, [pc, #316]	; (4fc <_Z10drawBitmapcss+0x33c>)
     3c0:	0020      	movs	r0, r4
     3c2:	f004 fe96 	bl	50f2 <_ZNK12Adafruit_GFX6heightEv>
     3c6:	4285      	cmp	r5, r0
     3c8:	db05      	blt.n	3d6 <_Z10drawBitmapcss+0x216>
     3ca:	0020      	movs	r0, r4
     3cc:	f004 fe91 	bl	50f2 <_ZNK12Adafruit_GFX6heightEv>
     3d0:	9b03      	ldr	r3, [sp, #12]
     3d2:	1ac3      	subs	r3, r0, r3
     3d4:	9305      	str	r3, [sp, #20]
				rowSize = (bmpWidth * 3 + 3) & ~3;
     3d6:	2403      	movs	r4, #3
     3d8:	9b06      	ldr	r3, [sp, #24]
					tftDisplay.startWrite(); // Requires start/end transaction now
     3da:	4d48      	ldr	r5, [pc, #288]	; (4fc <_Z10drawBitmapcss+0x33c>)
				rowSize = (bmpWidth * 3 + 3) & ~3;
     3dc:	3301      	adds	r3, #1
     3de:	4363      	muls	r3, r4
					tftDisplay.startWrite(); // Requires start/end transaction now
     3e0:	0028      	movs	r0, r5
				rowSize = (bmpWidth * 3 + 3) & ~3;
     3e2:	43a3      	bics	r3, r4
     3e4:	9306      	str	r3, [sp, #24]
					tftDisplay.startWrite(); // Requires start/end transaction now
     3e6:	f002 fa4b 	bl	2880 <_ZN16Adafruit_ILI934110startWriteEv>
					tftDisplay.setAddrWindow(x, y, w, h);
     3ea:	4668      	mov	r0, sp
     3ec:	466b      	mov	r3, sp
     3ee:	466a      	mov	r2, sp
     3f0:	4669      	mov	r1, sp
     3f2:	8a80      	ldrh	r0, [r0, #20]
     3f4:	8a1b      	ldrh	r3, [r3, #16]
     3f6:	8992      	ldrh	r2, [r2, #12]
     3f8:	8909      	ldrh	r1, [r1, #8]
     3fa:	9000      	str	r0, [sp, #0]
     3fc:	0028      	movs	r0, r5
     3fe:	f002 fd03 	bl	2e08 <_ZN16Adafruit_ILI934113setAddrWindowEtttt>
						pos += bx1 * 3; // Factor in starting column (bx1)
     402:	9b09      	ldr	r3, [sp, #36]	; 0x24
     404:	3f01      	subs	r7, #1
     406:	4363      	muls	r3, r4
     408:	9309      	str	r3, [sp, #36]	; 0x24
     40a:	9b06      	ldr	r3, [sp, #24]
     40c:	1bbf      	subs	r7, r7, r6
     40e:	435f      	muls	r7, r3
     410:	9b07      	ldr	r3, [sp, #28]
	uint8_t buffidx = sizeof(sdbuffer); // Current position in sdbuffer
     412:	34fc      	adds	r4, #252	; 0xfc
     414:	18ff      	adds	r7, r7, r3
     416:	9b06      	ldr	r3, [sp, #24]
     418:	435e      	muls	r6, r3
     41a:	9b07      	ldr	r3, [sp, #28]
     41c:	18f3      	adds	r3, r6, r3
     41e:	9303      	str	r3, [sp, #12]
					for (row = 0; row < h; row++) { // For each scanline...
     420:	2300      	movs	r3, #0
     422:	9302      	str	r3, [sp, #8]
     424:	9b05      	ldr	r3, [sp, #20]
     426:	9a02      	ldr	r2, [sp, #8]
     428:	4293      	cmp	r3, r2
     42a:	dd51      	ble.n	4d0 <_Z10drawBitmapcss+0x310>
						if (flip) // Bitmap is stored bottom-to-top order (normal BMP)
     42c:	9b08      	ldr	r3, [sp, #32]
						pos = bmpImageoffset + (row + by1) * rowSize;
     42e:	9d03      	ldr	r5, [sp, #12]
						if (flip) // Bitmap is stored bottom-to-top order (normal BMP)
     430:	2b00      	cmp	r3, #0
     432:	d000      	beq.n	436 <_Z10drawBitmapcss+0x276>
						pos = bmpImageoffset + (bmpHeight - 1 - (row + by1)) * rowSize;
     434:	003d      	movs	r5, r7
						pos += bx1 * 3; // Factor in starting column (bx1)
     436:	9b09      	ldr	r3, [sp, #36]	; 0x24
						if (bmpFile.position() != pos) { // Need seek?
     438:	a80f      	add	r0, sp, #60	; 0x3c
						pos += bx1 * 3; // Factor in starting column (bx1)
     43a:	18ed      	adds	r5, r5, r3
						if (bmpFile.position() != pos) { // Need seek?
     43c:	f002 fe89 	bl	3152 <_ZN5SDLib4File8positionEv>
     440:	4285      	cmp	r5, r0
     442:	d00b      	beq.n	45c <_Z10drawBitmapcss+0x29c>
							tftDisplay.endWrite(); // End tftDisplay transaction
     444:	4c2d      	ldr	r4, [pc, #180]	; (4fc <_Z10drawBitmapcss+0x33c>)
     446:	0020      	movs	r0, r4
     448:	f002 fa38 	bl	28bc <_ZN16Adafruit_ILI93418endWriteEv>
							bmpFile.seek(pos);
     44c:	0029      	movs	r1, r5
     44e:	a80f      	add	r0, sp, #60	; 0x3c
     450:	f002 fe75 	bl	313e <_ZN5SDLib4File4seekEm>
							tftDisplay.startWrite(); // Start new tftDisplay transaction
     454:	0020      	movs	r0, r4
     456:	f002 fa13 	bl	2880 <_ZN16Adafruit_ILI934110startWriteEv>
							buffidx = sizeof(sdbuffer); // Force buffer reload
     45a:	24ff      	movs	r4, #255	; 0xff
     45c:	2500      	movs	r5, #0
						for (col = 0; col < w; col++) { // For each pixel...
     45e:	9b04      	ldr	r3, [sp, #16]
     460:	42ab      	cmp	r3, r5
     462:	dd2a      	ble.n	4ba <_Z10drawBitmapcss+0x2fa>
							if (buffidx >= sizeof(sdbuffer)) { // Indeed
     464:	2cff      	cmp	r4, #255	; 0xff
     466:	d10c      	bne.n	482 <_Z10drawBitmapcss+0x2c2>
								tftDisplay.endWrite(); // End tftDisplay transaction
     468:	4e24      	ldr	r6, [pc, #144]	; (4fc <_Z10drawBitmapcss+0x33c>)
     46a:	0030      	movs	r0, r6
     46c:	f002 fa26 	bl	28bc <_ZN16Adafruit_ILI93418endWriteEv>
								bmpFile.read(sdbuffer, sizeof(sdbuffer));
     470:	0022      	movs	r2, r4
     472:	a918      	add	r1, sp, #96	; 0x60
     474:	a80f      	add	r0, sp, #60	; 0x3c
     476:	f002 fe5b 	bl	3130 <_ZN5SDLib4File4readEPvt>
								tftDisplay.startWrite(); // Start new tftDisplay transaction
     47a:	0030      	movs	r0, r6
     47c:	f002 fa00 	bl	2880 <_ZN16Adafruit_ILI934110startWriteEv>
								buffidx = 0; // Set index to beginning
     480:	2400      	movs	r4, #0
							tftDisplay.writePixel(tftDisplay.color565(r, g, b));
     482:	4e1e      	ldr	r6, [pc, #120]	; (4fc <_Z10drawBitmapcss+0x33c>)
							g = sdbuffer[buffidx++];
     484:	1ca1      	adds	r1, r4, #2
							b = sdbuffer[buffidx++];
     486:	1c62      	adds	r2, r4, #1
     488:	a818      	add	r0, sp, #96	; 0x60
							g = sdbuffer[buffidx++];
     48a:	b2c9      	uxtb	r1, r1
     48c:	b2d2      	uxtb	r2, r2
							b = sdbuffer[buffidx++];
     48e:	5d03      	ldrb	r3, [r0, r4]
							g = sdbuffer[buffidx++];
     490:	5c82      	ldrb	r2, [r0, r2]
							tftDisplay.writePixel(tftDisplay.color565(r, g, b));
     492:	5c41      	ldrb	r1, [r0, r1]
     494:	0030      	movs	r0, r6
     496:	f002 fa21 	bl	28dc <_ZN16Adafruit_ILI93418color565Ehhh>
							r = sdbuffer[buffidx++];
     49a:	3403      	adds	r4, #3
							tftDisplay.writePixel(tftDisplay.color565(r, g, b));
     49c:	0001      	movs	r1, r0
     49e:	0030      	movs	r0, r6
							r = sdbuffer[buffidx++];
     4a0:	b2e4      	uxtb	r4, r4
							tftDisplay.writePixel(tftDisplay.color565(r, g, b));
     4a2:	f002 fd25 	bl	2ef0 <_ZN16Adafruit_ILI934110writePixelEt>
						for (col = 0; col < w; col++) { // For each pixel...
     4a6:	3501      	adds	r5, #1
     4a8:	e7d9      	b.n	45e <_Z10drawBitmapcss+0x29e>
					w = bmpWidth; // Width/height of section to load/display
     4aa:	9b06      	ldr	r3, [sp, #24]
     4ac:	9304      	str	r3, [sp, #16]
					bx1 = by1 = 0; // UL coordinate in BMP file
     4ae:	2300      	movs	r3, #0
     4b0:	9309      	str	r3, [sp, #36]	; 0x24
     4b2:	e770      	b.n	396 <_Z10drawBitmapcss+0x1d6>
					h = bmpHeight;
     4b4:	9705      	str	r7, [sp, #20]
					bx1 = by1 = 0; // UL coordinate in BMP file
     4b6:	2600      	movs	r6, #0
     4b8:	e774      	b.n	3a4 <_Z10drawBitmapcss+0x1e4>
     4ba:	9a06      	ldr	r2, [sp, #24]
					for (row = 0; row < h; row++) { // For each scanline...
     4bc:	9b02      	ldr	r3, [sp, #8]
     4be:	4694      	mov	ip, r2
     4c0:	3301      	adds	r3, #1
     4c2:	9302      	str	r3, [sp, #8]
     4c4:	9b06      	ldr	r3, [sp, #24]
     4c6:	1aff      	subs	r7, r7, r3
     4c8:	9b03      	ldr	r3, [sp, #12]
     4ca:	4463      	add	r3, ip
     4cc:	9303      	str	r3, [sp, #12]
     4ce:	e7a9      	b.n	424 <_Z10drawBitmapcss+0x264>
					tftDisplay.endWrite(); // End last tftDisplay transaction
     4d0:	480a      	ldr	r0, [pc, #40]	; (4fc <_Z10drawBitmapcss+0x33c>)
     4d2:	f002 f9f3 	bl	28bc <_ZN16Adafruit_ILI93418endWriteEv>
				Serial.print(F("Loaded in "));
     4d6:	4c0a      	ldr	r4, [pc, #40]	; (500 <_Z10drawBitmapcss+0x340>)
     4d8:	4915      	ldr	r1, [pc, #84]	; (530 <_Z10drawBitmapcss+0x370>)
     4da:	0020      	movs	r0, r4
     4dc:	f000 fb09 	bl	af2 <_ZN5Print5printEPK19__FlashStringHelper>
				Serial.print(millis() - startTime);
     4e0:	f000 faa0 	bl	a24 <millis>
     4e4:	9b0a      	ldr	r3, [sp, #40]	; 0x28
     4e6:	220a      	movs	r2, #10
     4e8:	1ac1      	subs	r1, r0, r3
     4ea:	0020      	movs	r0, r4
     4ec:	f000 fb83 	bl	bf6 <_ZN5Print5printEmi>
				Serial.println(F(" ms"));
     4f0:	4910      	ldr	r1, [pc, #64]	; (534 <_Z10drawBitmapcss+0x374>)
     4f2:	0020      	movs	r0, r4
     4f4:	f000 fb12 	bl	b1c <_ZN5Print7printlnEPK19__FlashStringHelper>
				goodBmp = true; // Supported BMP format -- proceed!
     4f8:	2501      	movs	r5, #1
     4fa:	e6c2      	b.n	282 <_Z10drawBitmapcss+0xc2>
     4fc:	2000014c 	.word	0x2000014c
     500:	20000c50 	.word	0x20000c50
     504:	00005f63 	.word	0x00005f63
     508:	20000784 	.word	0x20000784
     50c:	00005ed0 	.word	0x00005ed0
     510:	00005ee7 	.word	0x00005ee7
     514:	00004d42 	.word	0x00004d42
     518:	00005f37 	.word	0x00005f37
     51c:	00005ef3 	.word	0x00005ef3
     520:	00005eff 	.word	0x00005eff
     524:	00005f0e 	.word	0x00005f0e
     528:	00005f1c 	.word	0x00005f1c
     52c:	00005f73 	.word	0x00005f73
     530:	00005f28 	.word	0x00005f28
     534:	00005f33 	.word	0x00005f33

00000538 <_Z7addMoveh8TS_Point5State>:
State addMove(uint8_t square, TS_Point marker, State player) {
     538:	b5f0      	push	{r4, r5, r6, r7, lr}
	Serial.print(F("addMove, player = "));
     53a:	4f19      	ldr	r7, [pc, #100]	; (5a0 <_Z7addMoveh8TS_Point5State+0x68>)
State addMove(uint8_t square, TS_Point marker, State player) {
     53c:	b085      	sub	sp, #20
     53e:	0004      	movs	r4, r0
     540:	b20d      	sxth	r5, r1
     542:	140e      	asrs	r6, r1, #16
	Serial.print(F("addMove, player = "));
     544:	0038      	movs	r0, r7
     546:	4917      	ldr	r1, [pc, #92]	; (5a4 <_Z7addMoveh8TS_Point5State+0x6c>)
State addMove(uint8_t square, TS_Point marker, State player) {
     548:	9301      	str	r3, [sp, #4]
	Serial.print(F("addMove, player = "));
     54a:	f000 fad2 	bl	af2 <_ZN5Print5printEPK19__FlashStringHelper>
	Serial.println(player);
     54e:	220a      	movs	r2, #10
     550:	9901      	ldr	r1, [sp, #4]
     552:	0038      	movs	r0, r7
     554:	f000 fb45 	bl	be2 <_ZN5Print7printlnEii>
	if (player == cross) {
     558:	9b01      	ldr	r3, [sp, #4]
     55a:	2b02      	cmp	r3, #2
     55c:	d10f      	bne.n	57e <_Z7addMoveh8TS_Point5State+0x46>
		Serial.println(F("this might be a cross"));
     55e:	0038      	movs	r0, r7
		if (square % 2) {
     560:	2701      	movs	r7, #1
		Serial.println(F("this might be a cross"));
     562:	4911      	ldr	r1, [pc, #68]	; (5a8 <_Z7addMoveh8TS_Point5State+0x70>)
		if (square % 2) {
     564:	403c      	ands	r4, r7
		Serial.println(F("this might be a cross"));
     566:	f000 fad9 	bl	b1c <_ZN5Print7printlnEPK19__FlashStringHelper>
			bitmap = 'k';
     56a:	4260      	negs	r0, r4
     56c:	4160      	adcs	r0, r4
		drawBitmap(bitmap, marker.x, marker.y);
     56e:	0032      	movs	r2, r6
			bitmap = 'k';
     570:	306a      	adds	r0, #106	; 0x6a
		drawBitmap(bitmap, marker.x, marker.y);
     572:	0029      	movs	r1, r5
     574:	f7ff fe24 	bl	1c0 <_Z10drawBitmapcss>
		player = nought;
     578:	0038      	movs	r0, r7
}
     57a:	b005      	add	sp, #20
     57c:	bdf0      	pop	{r4, r5, r6, r7, pc}
		Serial.println(F("this might be a nought"));
     57e:	490b      	ldr	r1, [pc, #44]	; (5ac <_Z7addMoveh8TS_Point5State+0x74>)
     580:	0038      	movs	r0, r7
     582:	f000 facb 	bl	b1c <_ZN5Print7printlnEPK19__FlashStringHelper>
		if (square % 2) {
     586:	2001      	movs	r0, #1
     588:	4004      	ands	r4, r0
			bitmap = 'i';
     58a:	4260      	negs	r0, r4
     58c:	4160      	adcs	r0, r4
		drawBitmap(bitmap, marker.x - 2, marker.y);
     58e:	3d02      	subs	r5, #2
			bitmap = 'i';
     590:	3068      	adds	r0, #104	; 0x68
		drawBitmap(bitmap, marker.x - 2, marker.y);
     592:	b229      	sxth	r1, r5
     594:	0032      	movs	r2, r6
     596:	f7ff fe13 	bl	1c0 <_Z10drawBitmapcss>
		player = cross;
     59a:	2002      	movs	r0, #2
     59c:	e7ed      	b.n	57a <_Z7addMoveh8TS_Point5State+0x42>
     59e:	46c0      	nop			; (mov r8, r8)
     5a0:	20000c50 	.word	0x20000c50
     5a4:	00005f8a 	.word	0x00005f8a
     5a8:	00005f9d 	.word	0x00005f9d
     5ac:	00005fb3 	.word	0x00005fb3

000005b0 <_Z11updateScoreii>:
void updateScore(int noughtsScore, int crossesScore) {
     5b0:	b510      	push	{r4, lr}
     5b2:	000c      	movs	r4, r1
     5b4:	b086      	sub	sp, #24
	String s = (String) noughtsScore;
     5b6:	220a      	movs	r2, #10
     5b8:	0001      	movs	r1, r0
     5ba:	4668      	mov	r0, sp
     5bc:	f001 ffff 	bl	25be <_ZN6StringC1Eih>
	char newScore = s.charAt(0);
     5c0:	2100      	movs	r1, #0
     5c2:	4668      	mov	r0, sp
     5c4:	f002 f817 	bl	25f6 <_ZNK6String6charAtEj>
	drawBitmap(newScore, 95, 29);
     5c8:	221d      	movs	r2, #29
     5ca:	215f      	movs	r1, #95	; 0x5f
     5cc:	f7ff fdf8 	bl	1c0 <_Z10drawBitmapcss>
	s = (String) crossesScore;
     5d0:	220a      	movs	r2, #10
     5d2:	0021      	movs	r1, r4
     5d4:	a803      	add	r0, sp, #12
     5d6:	f001 fff2 	bl	25be <_ZN6StringC1Eih>
     5da:	a903      	add	r1, sp, #12
     5dc:	4668      	mov	r0, sp
     5de:	f001 ffc4 	bl	256a <_ZN6StringaSEOS_>
     5e2:	a803      	add	r0, sp, #12
     5e4:	f001 ff59 	bl	249a <_ZN6StringD1Ev>
	newScore = s.charAt(0);
     5e8:	2100      	movs	r1, #0
     5ea:	4668      	mov	r0, sp
     5ec:	f002 f803 	bl	25f6 <_ZNK6String6charAtEj>
	drawBitmap(newScore, 132, 28);
     5f0:	221c      	movs	r2, #28
     5f2:	2184      	movs	r1, #132	; 0x84
     5f4:	f7ff fde4 	bl	1c0 <_Z10drawBitmapcss>
	String s = (String) noughtsScore;
     5f8:	4668      	mov	r0, sp
     5fa:	f001 ff4e 	bl	249a <_ZN6StringD1Ev>
}
     5fe:	b006      	add	sp, #24
     600:	bd10      	pop	{r4, pc}
	...

00000604 <_Z4gamehh>:
State game(uint8_t noughtsScore, uint8_t crossesScore) {
     604:	b5f0      	push	{r4, r5, r6, r7, lr}
     606:	b08b      	sub	sp, #44	; 0x2c
	empty};
     608:	2209      	movs	r2, #9
     60a:	2100      	movs	r1, #0
     60c:	a807      	add	r0, sp, #28
     60e:	f005 fb17 	bl	5c40 <memset>
	TS_Point marker;
     612:	a803      	add	r0, sp, #12
     614:	f001 fff6 	bl	2604 <_ZN8TS_PointC1Ev>
	drawBitmap('d', 0, 80);
     618:	2250      	movs	r2, #80	; 0x50
     61a:	2100      	movs	r1, #0
     61c:	2064      	movs	r0, #100	; 0x64
     61e:	f7ff fdcf 	bl	1c0 <_Z10drawBitmapcss>
	uint8_t placedCounters = 0;
     622:	2300      	movs	r3, #0
	uint8_t square = 255;
     624:	24ff      	movs	r4, #255	; 0xff
					marker.x = 175;
     626:	27af      	movs	r7, #175	; 0xaf
	uint8_t placedCounters = 0;
     628:	9301      	str	r3, [sp, #4]
	State player = cross;
     62a:	3302      	adds	r3, #2
     62c:	9300      	str	r3, [sp, #0]
	while (placedCounters < 9) {
     62e:	9b01      	ldr	r3, [sp, #4]
     630:	2b08      	cmp	r3, #8
     632:	dd00      	ble.n	636 <_Z4gamehh+0x32>
     634:	e089      	b.n	74a <_Z4gamehh+0x146>
			if (!touchScreen.touched()) continue;
     636:	4847      	ldr	r0, [pc, #284]	; (754 <_Z4gamehh+0x150>)
     638:	f002 f8a2 	bl	2780 <_ZN15Adafruit_FT62067touchedEv>
     63c:	2800      	cmp	r0, #0
     63e:	d0fa      	beq.n	636 <_Z4gamehh+0x32>
			TS_Point point = getPoint();
     640:	ad05      	add	r5, sp, #20
     642:	0028      	movs	r0, r5
     644:	f7ff fd8e 	bl	164 <_Z8getPointv>
     648:	2202      	movs	r2, #2
     64a:	5ea9      	ldrsh	r1, [r5, r2]
     64c:	2200      	movs	r2, #0
     64e:	5eab      	ldrsh	r3, [r5, r2]
			if (point.y > 79 and point.y < 161) {
     650:	b28a      	uxth	r2, r1
     652:	0010      	movs	r0, r2
     654:	3850      	subs	r0, #80	; 0x50
     656:	2850      	cmp	r0, #80	; 0x50
     658:	d813      	bhi.n	682 <_Z4gamehh+0x7e>
     65a:	aa03      	add	r2, sp, #12
				if (point.x < 81) {
     65c:	2b50      	cmp	r3, #80	; 0x50
     65e:	dc05      	bgt.n	66c <_Z4gamehh+0x68>
					marker.x = 15;
     660:	230f      	movs	r3, #15
					square = 0;
     662:	2400      	movs	r4, #0
					marker.x = 15;
     664:	8013      	strh	r3, [r2, #0]
				marker.y = 95;
     666:	235f      	movs	r3, #95	; 0x5f
				marker.y = 255;
     668:	8053      	strh	r3, [r2, #2]
     66a:	e014      	b.n	696 <_Z4gamehh+0x92>
					} else if (point.x < 161) {
     66c:	2ba0      	cmp	r3, #160	; 0xa0
     66e:	dc03      	bgt.n	678 <_Z4gamehh+0x74>
					marker.x = 95;
     670:	235f      	movs	r3, #95	; 0x5f
					square = 1;
     672:	2401      	movs	r4, #1
					marker.x = 95;
     674:	8013      	strh	r3, [r2, #0]
     676:	e7f6      	b.n	666 <_Z4gamehh+0x62>
					} else if (point.x < 240) {
     678:	2bef      	cmp	r3, #239	; 0xef
     67a:	dcf4      	bgt.n	666 <_Z4gamehh+0x62>
					marker.x = 175;
     67c:	8017      	strh	r7, [r2, #0]
					square = 2;
     67e:	2402      	movs	r4, #2
     680:	e7f1      	b.n	666 <_Z4gamehh+0x62>
				} else if (point.y > 160 and point.y < 241) {
     682:	3aa1      	subs	r2, #161	; 0xa1
     684:	2a4f      	cmp	r2, #79	; 0x4f
     686:	d84b      	bhi.n	720 <_Z4gamehh+0x11c>
     688:	aa03      	add	r2, sp, #12
				if (point.x < 81) {
     68a:	2b50      	cmp	r3, #80	; 0x50
     68c:	dc3d      	bgt.n	70a <_Z4gamehh+0x106>
					marker.x = 15;
     68e:	230f      	movs	r3, #15
					square = 3;
     690:	2403      	movs	r4, #3
					marker.x = 15;
     692:	8013      	strh	r3, [r2, #0]
				marker.y = 175;
     694:	8057      	strh	r7, [r2, #2]
			if (!(square == 255)) break;
     696:	2cff      	cmp	r4, #255	; 0xff
     698:	d0cd      	beq.n	636 <_Z4gamehh+0x32>
		if (!(boardState[square] == empty)) continue;
     69a:	ae07      	add	r6, sp, #28
     69c:	5d35      	ldrb	r5, [r6, r4]
     69e:	2d00      	cmp	r5, #0
     6a0:	d1c5      	bne.n	62e <_Z4gamehh+0x2a>
		boardState[square] = player;
     6a2:	466b      	mov	r3, sp
     6a4:	781b      	ldrb	r3, [r3, #0]
		player = addMove(square, marker, player);
     6a6:	9a04      	ldr	r2, [sp, #16]
		boardState[square] = player;
     6a8:	5533      	strb	r3, [r6, r4]
		player = addMove(square, marker, player);
     6aa:	9903      	ldr	r1, [sp, #12]
     6ac:	9b00      	ldr	r3, [sp, #0]
     6ae:	0020      	movs	r0, r4
     6b0:	f7ff ff42 	bl	538 <_Z7addMoveh8TS_Point5State>
		placedCounters++;
     6b4:	9b01      	ldr	r3, [sp, #4]
			if (boardState[winIndexes[i][0]] == boardState[winIndexes[i][1]]
     6b6:	4a28      	ldr	r2, [pc, #160]	; (758 <_Z4gamehh+0x154>)
		placedCounters++;
     6b8:	3301      	adds	r3, #1
     6ba:	b2db      	uxtb	r3, r3
     6bc:	9301      	str	r3, [sp, #4]
			if (boardState[winIndexes[i][0]] == boardState[winIndexes[i][1]]
     6be:	4694      	mov	ip, r2
		placedCounters++;
     6c0:	002b      	movs	r3, r5
		player = addMove(square, marker, player);
     6c2:	9000      	str	r0, [sp, #0]
			if (boardState[winIndexes[i][0]] == boardState[winIndexes[i][1]]
     6c4:	4662      	mov	r2, ip
     6c6:	5c9a      	ldrb	r2, [r3, r2]
     6c8:	5cb0      	ldrb	r0, [r6, r2]
     6ca:	4662      	mov	r2, ip
     6cc:	18d1      	adds	r1, r2, r3
     6ce:	784a      	ldrb	r2, [r1, #1]
     6d0:	5cb2      	ldrb	r2, [r6, r2]
     6d2:	4282      	cmp	r2, r0
     6d4:	d106      	bne.n	6e4 <_Z4gamehh+0xe0>
			and boardState[winIndexes[i][0]] == boardState[winIndexes[i][2]]
     6d6:	7889      	ldrb	r1, [r1, #2]
     6d8:	5c71      	ldrb	r1, [r6, r1]
     6da:	4291      	cmp	r1, r2
     6dc:	d102      	bne.n	6e4 <_Z4gamehh+0xe0>
			and boardState[winIndexes[i][0]] != empty) {
     6de:	2900      	cmp	r1, #0
     6e0:	d000      	beq.n	6e4 <_Z4gamehh+0xe0>
     6e2:	000d      	movs	r5, r1
     6e4:	3303      	adds	r3, #3
		for (uint8_t i = 0; i < 8; i++) {
     6e6:	2b18      	cmp	r3, #24
     6e8:	d1ec      	bne.n	6c4 <_Z4gamehh+0xc0>
		Serial.print(F("winner = "));
     6ea:	4e1c      	ldr	r6, [pc, #112]	; (75c <_Z4gamehh+0x158>)
     6ec:	491c      	ldr	r1, [pc, #112]	; (760 <_Z4gamehh+0x15c>)
     6ee:	0030      	movs	r0, r6
     6f0:	f000 f9ff 	bl	af2 <_ZN5Print5printEPK19__FlashStringHelper>
		Serial.println(winner);
     6f4:	220a      	movs	r2, #10
     6f6:	0029      	movs	r1, r5
     6f8:	0030      	movs	r0, r6
     6fa:	f000 fa72 	bl	be2 <_ZN5Print7printlnEii>
		if (!(winner == empty)) break;
     6fe:	2d00      	cmp	r5, #0
     700:	d124      	bne.n	74c <_Z4gamehh+0x148>
		delay(100);
     702:	2064      	movs	r0, #100	; 0x64
     704:	f000 f994 	bl	a30 <delay>
     708:	e791      	b.n	62e <_Z4gamehh+0x2a>
					} else if (point.x < 161) {
     70a:	2ba0      	cmp	r3, #160	; 0xa0
     70c:	dc03      	bgt.n	716 <_Z4gamehh+0x112>
					marker.x = 95;
     70e:	235f      	movs	r3, #95	; 0x5f
					square = 4;
     710:	2404      	movs	r4, #4
					marker.x = 95;
     712:	8013      	strh	r3, [r2, #0]
     714:	e7be      	b.n	694 <_Z4gamehh+0x90>
					} else if (point.x < 240) {
     716:	2bef      	cmp	r3, #239	; 0xef
     718:	dcbc      	bgt.n	694 <_Z4gamehh+0x90>
					marker.x = 175;
     71a:	8017      	strh	r7, [r2, #0]
					square = 5;
     71c:	2405      	movs	r4, #5
     71e:	e7b9      	b.n	694 <_Z4gamehh+0x90>
				} else if (point.y > 240) {
     720:	29f0      	cmp	r1, #240	; 0xf0
     722:	ddb8      	ble.n	696 <_Z4gamehh+0x92>
     724:	aa03      	add	r2, sp, #12
				if (point.x < 81) {
     726:	2b50      	cmp	r3, #80	; 0x50
     728:	dc04      	bgt.n	734 <_Z4gamehh+0x130>
					marker.x = 15;
     72a:	230f      	movs	r3, #15
					square = 6;
     72c:	2406      	movs	r4, #6
					marker.x = 15;
     72e:	8013      	strh	r3, [r2, #0]
				marker.y = 255;
     730:	23ff      	movs	r3, #255	; 0xff
     732:	e799      	b.n	668 <_Z4gamehh+0x64>
					} else if (point.x < 161) {
     734:	2ba0      	cmp	r3, #160	; 0xa0
     736:	dc03      	bgt.n	740 <_Z4gamehh+0x13c>
					marker.x = 95;
     738:	235f      	movs	r3, #95	; 0x5f
					square = 7;
     73a:	2407      	movs	r4, #7
					marker.x = 95;
     73c:	8013      	strh	r3, [r2, #0]
     73e:	e7f7      	b.n	730 <_Z4gamehh+0x12c>
					} else if (point.x < 240) {
     740:	2bef      	cmp	r3, #239	; 0xef
     742:	dcf5      	bgt.n	730 <_Z4gamehh+0x12c>
					marker.x = 175;
     744:	8017      	strh	r7, [r2, #0]
					square = 8;
     746:	2408      	movs	r4, #8
     748:	e7f2      	b.n	730 <_Z4gamehh+0x12c>
     74a:	2500      	movs	r5, #0
}
     74c:	0028      	movs	r0, r5
     74e:	b00b      	add	sp, #44	; 0x2c
     750:	bdf0      	pop	{r4, r5, r6, r7, pc}
     752:	46c0      	nop			; (mov r8, r8)
     754:	200001b0 	.word	0x200001b0
     758:	20000000 	.word	0x20000000
     75c:	20000c50 	.word	0x20000c50
     760:	00005f80 	.word	0x00005f80

00000764 <_Z9playMatchi>:
	drawBitmap('a', 0, 0);
     764:	2200      	movs	r2, #0
void playMatch(int maxGames) {
     766:	b5f0      	push	{r4, r5, r6, r7, lr}
	uint8_t gamesPlayed = 0;
     768:	2400      	movs	r4, #0
void playMatch(int maxGames) {
     76a:	b087      	sub	sp, #28
	drawBitmap('a', 0, 0);
     76c:	0011      	movs	r1, r2
void playMatch(int maxGames) {
     76e:	9003      	str	r0, [sp, #12]
	drawBitmap('a', 0, 0);
     770:	2061      	movs	r0, #97	; 0x61
     772:	f7ff fd25 	bl	1c0 <_Z10drawBitmapcss>
	drawBitmap('c', 118, 32);
     776:	2220      	movs	r2, #32
     778:	2176      	movs	r1, #118	; 0x76
     77a:	2063      	movs	r0, #99	; 0x63
     77c:	f7ff fd20 	bl	1c0 <_Z10drawBitmapcss>
	updateScore(noughtsScore, crossesScore);
     780:	2100      	movs	r1, #0
	uint8_t crossesScore = 0;
     782:	0026      	movs	r6, r4
	uint8_t noughtsScore = 0;
     784:	0025      	movs	r5, r4
	updateScore(noughtsScore, crossesScore);
     786:	0008      	movs	r0, r1
     788:	f7ff ff12 	bl	5b0 <_Z11updateScoreii>
	drawBitmap('b', 81, 10);
     78c:	220a      	movs	r2, #10
     78e:	2151      	movs	r1, #81	; 0x51
     790:	2062      	movs	r0, #98	; 0x62
     792:	f7ff fd15 	bl	1c0 <_Z10drawBitmapcss>
		uint8_t gamesToWin = (maxGames / 2) + 1;
     796:	9b03      	ldr	r3, [sp, #12]
     798:	105b      	asrs	r3, r3, #1
     79a:	3301      	adds	r3, #1
		if (noughtsScore < gamesToWin && crossesScore < gamesToWin) {
     79c:	b2db      	uxtb	r3, r3
     79e:	9302      	str	r3, [sp, #8]
	while (gamesPlayed < maxGames) {
     7a0:	9b03      	ldr	r3, [sp, #12]
     7a2:	429c      	cmp	r4, r3
     7a4:	da5d      	bge.n	862 <_Z9playMatchi+0xfe>
		State winner = game(noughtsScore, crossesScore);
     7a6:	0031      	movs	r1, r6
     7a8:	0028      	movs	r0, r5
     7aa:	f7ff ff2b 	bl	604 <_Z4gamehh>
		switch (winner) {
     7ae:	2801      	cmp	r0, #1
     7b0:	d021      	beq.n	7f6 <_Z9playMatchi+0x92>
     7b2:	2800      	cmp	r0, #0
     7b4:	d016      	beq.n	7e4 <_Z9playMatchi+0x80>
     7b6:	2802      	cmp	r0, #2
     7b8:	d017      	beq.n	7ea <_Z9playMatchi+0x86>
		updateScore(noughtsScore, crossesScore);
     7ba:	0031      	movs	r1, r6
     7bc:	0028      	movs	r0, r5
     7be:	f7ff fef7 	bl	5b0 <_Z11updateScoreii>
		if (noughtsScore < gamesToWin && crossesScore < gamesToWin) {
     7c2:	9b02      	ldr	r3, [sp, #8]
     7c4:	4f28      	ldr	r7, [pc, #160]	; (868 <_Z9playMatchi+0x104>)
     7c6:	429d      	cmp	r5, r3
     7c8:	da1b      	bge.n	802 <_Z9playMatchi+0x9e>
     7ca:	429e      	cmp	r6, r3
     7cc:	da19      	bge.n	802 <_Z9playMatchi+0x9e>
			drawBitmap(bitmap, 0, 110);
     7ce:	226e      	movs	r2, #110	; 0x6e
     7d0:	2100      	movs	r1, #0
     7d2:	9801      	ldr	r0, [sp, #4]
     7d4:	f7ff fcf4 	bl	1c0 <_Z10drawBitmapcss>
			if (touchScreen.touched()) break;
     7d8:	0038      	movs	r0, r7
     7da:	f001 ffd1 	bl	2780 <_ZN15Adafruit_FT62067touchedEv>
     7de:	2800      	cmp	r0, #0
     7e0:	d0fa      	beq.n	7d8 <_Z9playMatchi+0x74>
     7e2:	e7dd      	b.n	7a0 <_Z9playMatchi+0x3c>
			bitmap = 'f';
     7e4:	2366      	movs	r3, #102	; 0x66
			bitmap = 'g';
     7e6:	9301      	str	r3, [sp, #4]
			break;
     7e8:	e7e7      	b.n	7ba <_Z9playMatchi+0x56>
			crossesScore++;
     7ea:	3601      	adds	r6, #1
			gamesPlayed++;
     7ec:	3401      	adds	r4, #1
			crossesScore++;
     7ee:	b2f6      	uxtb	r6, r6
			gamesPlayed++;
     7f0:	b2e4      	uxtb	r4, r4
			bitmap = 'e';
     7f2:	2365      	movs	r3, #101	; 0x65
     7f4:	e7f7      	b.n	7e6 <_Z9playMatchi+0x82>
			noughtsScore++;
     7f6:	3501      	adds	r5, #1
			gamesPlayed++;
     7f8:	3401      	adds	r4, #1
			noughtsScore++;
     7fa:	b2ed      	uxtb	r5, r5
			gamesPlayed++;
     7fc:	b2e4      	uxtb	r4, r4
			bitmap = 'g';
     7fe:	2367      	movs	r3, #103	; 0x67
     800:	e7f1      	b.n	7e6 <_Z9playMatchi+0x82>
				drawBitmap('m', 0, 0);
     802:	2200      	movs	r2, #0
     804:	0011      	movs	r1, r2
			if (crossesScore > noughtsScore) {
     806:	42b5      	cmp	r5, r6
     808:	da15      	bge.n	836 <_Z9playMatchi+0xd2>
				drawBitmap('m', 0, 0);
     80a:	206d      	movs	r0, #109	; 0x6d
     80c:	f7ff fcd8 	bl	1c0 <_Z10drawBitmapcss>
					if (touchScreen.touched()) {
     810:	0038      	movs	r0, r7
     812:	f001 ffb5 	bl	2780 <_ZN15Adafruit_FT62067touchedEv>
     816:	2800      	cmp	r0, #0
     818:	d0fa      	beq.n	810 <_Z9playMatchi+0xac>
						TS_Point point = getPoint();
     81a:	a804      	add	r0, sp, #16
     81c:	f7ff fca2 	bl	164 <_Z8getPointv>
						if (point.x > 22 and point.x < 216 and point.y > 185 and point.y < 265) {
     820:	ab04      	add	r3, sp, #16
     822:	881b      	ldrh	r3, [r3, #0]
     824:	3b17      	subs	r3, #23
     826:	2bc0      	cmp	r3, #192	; 0xc0
     828:	d8f2      	bhi.n	810 <_Z9playMatchi+0xac>
     82a:	ab04      	add	r3, sp, #16
     82c:	885b      	ldrh	r3, [r3, #2]
     82e:	3bba      	subs	r3, #186	; 0xba
     830:	2b4e      	cmp	r3, #78	; 0x4e
     832:	d9b5      	bls.n	7a0 <_Z9playMatchi+0x3c>
     834:	e7ec      	b.n	810 <_Z9playMatchi+0xac>
				drawBitmap('n', 0, 0);
     836:	206e      	movs	r0, #110	; 0x6e
     838:	f7ff fcc2 	bl	1c0 <_Z10drawBitmapcss>
					if (touchScreen.touched()) {
     83c:	0038      	movs	r0, r7
     83e:	f001 ff9f 	bl	2780 <_ZN15Adafruit_FT62067touchedEv>
     842:	2800      	cmp	r0, #0
     844:	d0fa      	beq.n	83c <_Z9playMatchi+0xd8>
						TS_Point point = getPoint();
     846:	a804      	add	r0, sp, #16
     848:	f7ff fc8c 	bl	164 <_Z8getPointv>
						if (point.x > 22 and point.x < 216 and point.y > 185 and point.y < 265) {
     84c:	ab04      	add	r3, sp, #16
     84e:	881b      	ldrh	r3, [r3, #0]
     850:	3b17      	subs	r3, #23
     852:	2bc0      	cmp	r3, #192	; 0xc0
     854:	d8f2      	bhi.n	83c <_Z9playMatchi+0xd8>
     856:	ab04      	add	r3, sp, #16
     858:	885b      	ldrh	r3, [r3, #2]
     85a:	3bba      	subs	r3, #186	; 0xba
     85c:	2b4e      	cmp	r3, #78	; 0x4e
     85e:	d8ed      	bhi.n	83c <_Z9playMatchi+0xd8>
     860:	e79e      	b.n	7a0 <_Z9playMatchi+0x3c>
}
     862:	b007      	add	sp, #28
     864:	bdf0      	pop	{r4, r5, r6, r7, pc}
     866:	46c0      	nop			; (mov r8, r8)
     868:	200001b0 	.word	0x200001b0

0000086c <_Z11startScreenv>:
	drawBitmap('l', 0, 0);
     86c:	2200      	movs	r2, #0
void startScreen() {
     86e:	b510      	push	{r4, lr}
	drawBitmap('l', 0, 0);
     870:	0011      	movs	r1, r2
void startScreen() {
     872:	b088      	sub	sp, #32
	drawBitmap('l', 0, 0);
     874:	206c      	movs	r0, #108	; 0x6c
     876:	f7ff fca3 	bl	1c0 <_Z10drawBitmapcss>
	String s = (String) maxGames;
     87a:	220a      	movs	r2, #10
     87c:	2103      	movs	r1, #3
     87e:	a802      	add	r0, sp, #8
     880:	f001 fe8c 	bl	259c <_ZN6StringC1Ehh>
	char maxGamesChar = s.charAt(0);
     884:	2100      	movs	r1, #0
     886:	a802      	add	r0, sp, #8
     888:	f001 feb5 	bl	25f6 <_ZNK6String6charAtEj>
	drawBitmap(maxGamesChar, 173, 149);
     88c:	2295      	movs	r2, #149	; 0x95
     88e:	21ad      	movs	r1, #173	; 0xad
     890:	f7ff fc96 	bl	1c0 <_Z10drawBitmapcss>
	uint8_t maxGames = 3;
     894:	2403      	movs	r4, #3
		if (touchScreen.touched()) {
     896:	4823      	ldr	r0, [pc, #140]	; (924 <_Z11startScreenv+0xb8>)
     898:	f001 ff72 	bl	2780 <_ZN15Adafruit_FT62067touchedEv>
     89c:	2800      	cmp	r0, #0
     89e:	d0fa      	beq.n	896 <_Z11startScreenv+0x2a>
			TS_Point point = getPoint();
     8a0:	4668      	mov	r0, sp
     8a2:	f7ff fc5f 	bl	164 <_Z8getPointv>
     8a6:	466b      	mov	r3, sp
     8a8:	2202      	movs	r2, #2
     8aa:	5e9b      	ldrsh	r3, [r3, r2]
			if (point.x > 22 and point.x < 216 and point.y > 205 and point.y < 305) {
     8ac:	466a      	mov	r2, sp
     8ae:	8812      	ldrh	r2, [r2, #0]
     8b0:	0011      	movs	r1, r2
     8b2:	3917      	subs	r1, #23
     8b4:	29c0      	cmp	r1, #192	; 0xc0
     8b6:	d804      	bhi.n	8c2 <_Z11startScreenv+0x56>
     8b8:	0019      	movs	r1, r3
     8ba:	39ce      	subs	r1, #206	; 0xce
     8bc:	b289      	uxth	r1, r1
     8be:	2962      	cmp	r1, #98	; 0x62
     8c0:	d928      	bls.n	914 <_Z11startScreenv+0xa8>
			} else if (point.x > 100 and point.x < 180 and point.y > 100 and point.y < 220) {
     8c2:	0011      	movs	r1, r2
     8c4:	3965      	subs	r1, #101	; 0x65
     8c6:	294e      	cmp	r1, #78	; 0x4e
     8c8:	d819      	bhi.n	8fe <_Z11startScreenv+0x92>
     8ca:	0019      	movs	r1, r3
     8cc:	3965      	subs	r1, #101	; 0x65
     8ce:	b289      	uxth	r1, r1
     8d0:	2976      	cmp	r1, #118	; 0x76
     8d2:	d814      	bhi.n	8fe <_Z11startScreenv+0x92>
				if (maxGames != 1) {
     8d4:	2c01      	cmp	r4, #1
     8d6:	d0de      	beq.n	896 <_Z11startScreenv+0x2a>
					maxGames -= 2;
     8d8:	3c02      	subs	r4, #2
					maxGames += 2;
     8da:	b2e4      	uxtb	r4, r4
					String s = (String) maxGames;
     8dc:	220a      	movs	r2, #10
     8de:	0021      	movs	r1, r4
     8e0:	a805      	add	r0, sp, #20
     8e2:	f001 fe5b 	bl	259c <_ZN6StringC1Ehh>
					char maxGamesChar = s.charAt(0);
     8e6:	2100      	movs	r1, #0
     8e8:	a805      	add	r0, sp, #20
     8ea:	f001 fe84 	bl	25f6 <_ZNK6String6charAtEj>
					drawBitmap(maxGamesChar, 173, 149);
     8ee:	2295      	movs	r2, #149	; 0x95
     8f0:	21ad      	movs	r1, #173	; 0xad
     8f2:	f7ff fc65 	bl	1c0 <_Z10drawBitmapcss>
					String s = (String) maxGames;
     8f6:	a805      	add	r0, sp, #20
     8f8:	f001 fdcf 	bl	249a <_ZN6StringD1Ev>
     8fc:	e7cb      	b.n	896 <_Z11startScreenv+0x2a>
			} else if (point.x > 180 and point.x < 241 and point.y > 100 and point.y < 220) {
     8fe:	3ab5      	subs	r2, #181	; 0xb5
     900:	2a3b      	cmp	r2, #59	; 0x3b
     902:	d8c8      	bhi.n	896 <_Z11startScreenv+0x2a>
     904:	3b65      	subs	r3, #101	; 0x65
     906:	b29b      	uxth	r3, r3
     908:	2b76      	cmp	r3, #118	; 0x76
     90a:	d8c4      	bhi.n	896 <_Z11startScreenv+0x2a>
				if (maxGames != 9) {
     90c:	2c09      	cmp	r4, #9
     90e:	d0c2      	beq.n	896 <_Z11startScreenv+0x2a>
					maxGames += 2;
     910:	3402      	adds	r4, #2
     912:	e7e2      	b.n	8da <_Z11startScreenv+0x6e>
	playMatch(maxGames);
     914:	0020      	movs	r0, r4
     916:	f7ff ff25 	bl	764 <_Z9playMatchi>
	String s = (String) maxGames;
     91a:	a802      	add	r0, sp, #8
     91c:	f001 fdbd 	bl	249a <_ZN6StringD1Ev>
}
     920:	b008      	add	sp, #32
     922:	bd10      	pop	{r4, pc}
     924:	200001b0 	.word	0x200001b0

00000928 <loop>:
void loop() {
     928:	b510      	push	{r4, lr}
	startScreen();
     92a:	f7ff ff9f 	bl	86c <_Z11startScreenv>
     92e:	bd10      	pop	{r4, pc}

00000930 <setup>:
	Serial.begin(9600);
     930:	2196      	movs	r1, #150	; 0x96
void setup() {
     932:	b510      	push	{r4, lr}
	Serial.begin(9600);
     934:	4c12      	ldr	r4, [pc, #72]	; (980 <setup+0x50>)
     936:	0189      	lsls	r1, r1, #6
     938:	0020      	movs	r0, r4
     93a:	f000 fa79 	bl	e30 <_ZN4Uart5beginEm>
	tftDisplay.begin();
     93e:	2100      	movs	r1, #0
     940:	4810      	ldr	r0, [pc, #64]	; (984 <setup+0x54>)
     942:	f002 f847 	bl	29d4 <_ZN16Adafruit_ILI93415beginEm>
	if (!touchScreen.begin()) {
     946:	2180      	movs	r1, #128	; 0x80
     948:	480f      	ldr	r0, [pc, #60]	; (988 <setup+0x58>)
     94a:	f001 fef7 	bl	273c <_ZN15Adafruit_FT62065beginEh>
     94e:	2800      	cmp	r0, #0
     950:	d108      	bne.n	964 <setup+0x34>
		Serial.println(F("Couldn't start FT6206 touchscreen controller"));
     952:	490e      	ldr	r1, [pc, #56]	; (98c <setup+0x5c>)
     954:	0020      	movs	r0, r4
     956:	f000 f8e1 	bl	b1c <_ZN5Print7printlnEPK19__FlashStringHelper>
		Serial.println(F("Driver might not have been found"));
     95a:	490d      	ldr	r1, [pc, #52]	; (990 <setup+0x60>)
     95c:	0020      	movs	r0, r4
     95e:	f000 f8dd 	bl	b1c <_ZN5Print7printlnEPK19__FlashStringHelper>
     962:	e7fe      	b.n	962 <setup+0x32>
	if (!SD.begin(SD_CS)) {
     964:	2104      	movs	r1, #4
     966:	480b      	ldr	r0, [pc, #44]	; (994 <setup+0x64>)
     968:	f002 fc38 	bl	31dc <_ZN5SDLib7SDClass5beginEh>
     96c:	2800      	cmp	r0, #0
     96e:	d103      	bne.n	978 <setup+0x48>
		Serial.println(F("Failed to initialise SD card"));
     970:	4909      	ldr	r1, [pc, #36]	; (998 <setup+0x68>)
     972:	0020      	movs	r0, r4
     974:	f000 f8d2 	bl	b1c <_ZN5Print7printlnEPK19__FlashStringHelper>
	startScreen();
     978:	f7ff ff78 	bl	86c <_Z11startScreenv>
}
     97c:	bd10      	pop	{r4, pc}
     97e:	46c0      	nop			; (mov r8, r8)
     980:	20000c50 	.word	0x20000c50
     984:	2000014c 	.word	0x2000014c
     988:	200001b0 	.word	0x200001b0
     98c:	00005fca 	.word	0x00005fca
     990:	00005ff7 	.word	0x00005ff7
     994:	20000784 	.word	0x20000784
     998:	00006018 	.word	0x00006018

0000099c <Dummy_Handler>:
     99c:	be03      	bkpt	0x0003
     99e:	e7fe      	b.n	99e <Dummy_Handler+0x2>

000009a0 <USB_Handler>:
     9a0:	4b03      	ldr	r3, [pc, #12]	; (9b0 <USB_Handler+0x10>)
     9a2:	b510      	push	{r4, lr}
     9a4:	681b      	ldr	r3, [r3, #0]
     9a6:	2b00      	cmp	r3, #0
     9a8:	d000      	beq.n	9ac <USB_Handler+0xc>
     9aa:	4798      	blx	r3
     9ac:	bd10      	pop	{r4, pc}
     9ae:	46c0      	nop			; (mov r8, r8)
     9b0:	200001c0 	.word	0x200001c0

000009b4 <Reset_Handler>:
     9b4:	b570      	push	{r4, r5, r6, lr}
     9b6:	490f      	ldr	r1, [pc, #60]	; (9f4 <Reset_Handler+0x40>)
     9b8:	4c0f      	ldr	r4, [pc, #60]	; (9f8 <Reset_Handler+0x44>)
     9ba:	42a1      	cmp	r1, r4
     9bc:	d104      	bne.n	9c8 <Reset_Handler+0x14>
     9be:	f000 f985 	bl	ccc <SystemInit>
     9c2:	f000 f851 	bl	a68 <main>
     9c6:	e7fe      	b.n	9c6 <Reset_Handler+0x12>
     9c8:	4d0c      	ldr	r5, [pc, #48]	; (9fc <Reset_Handler+0x48>)
     9ca:	2300      	movs	r3, #0
     9cc:	428d      	cmp	r5, r1
     9ce:	d0f6      	beq.n	9be <Reset_Handler+0xa>
     9d0:	18ca      	adds	r2, r1, r3
     9d2:	18e8      	adds	r0, r5, r3
     9d4:	42a2      	cmp	r2, r4
     9d6:	d305      	bcc.n	9e4 <Reset_Handler+0x30>
     9d8:	4290      	cmp	r0, r2
     9da:	d0f0      	beq.n	9be <Reset_Handler+0xa>
     9dc:	4b08      	ldr	r3, [pc, #32]	; (a00 <Reset_Handler+0x4c>)
     9de:	4909      	ldr	r1, [pc, #36]	; (a04 <Reset_Handler+0x50>)
     9e0:	2200      	movs	r2, #0
     9e2:	e004      	b.n	9ee <Reset_Handler+0x3a>
     9e4:	6800      	ldr	r0, [r0, #0]
     9e6:	3304      	adds	r3, #4
     9e8:	6010      	str	r0, [r2, #0]
     9ea:	e7f1      	b.n	9d0 <Reset_Handler+0x1c>
     9ec:	c304      	stmia	r3!, {r2}
     9ee:	428b      	cmp	r3, r1
     9f0:	d3fc      	bcc.n	9ec <Reset_Handler+0x38>
     9f2:	e7e4      	b.n	9be <Reset_Handler+0xa>
     9f4:	20000000 	.word	0x20000000
     9f8:	20000130 	.word	0x20000130
     9fc:	00006be0 	.word	0x00006be0
     a00:	20000130 	.word	0x20000130
     a04:	20000e18 	.word	0x20000e18

00000a08 <SysTick_Handler>:
     a08:	b510      	push	{r4, lr}
     a0a:	f000 f82a 	bl	a62 <sysTickHook>
     a0e:	2800      	cmp	r0, #0
     a10:	d101      	bne.n	a16 <SysTick_Handler+0xe>
     a12:	f000 f81b 	bl	a4c <SysTick_DefaultHandler>
     a16:	bd10      	pop	{r4, pc}

00000a18 <USB_SetHandler>:
     a18:	4b01      	ldr	r3, [pc, #4]	; (a20 <USB_SetHandler+0x8>)
     a1a:	6018      	str	r0, [r3, #0]
     a1c:	4770      	bx	lr
     a1e:	46c0      	nop			; (mov r8, r8)
     a20:	200001c0 	.word	0x200001c0

00000a24 <millis>:
     a24:	4b01      	ldr	r3, [pc, #4]	; (a2c <millis+0x8>)
     a26:	6818      	ldr	r0, [r3, #0]
     a28:	4770      	bx	lr
     a2a:	46c0      	nop			; (mov r8, r8)
     a2c:	200001c4 	.word	0x200001c4

00000a30 <delay>:
     a30:	b570      	push	{r4, r5, r6, lr}
     a32:	1e04      	subs	r4, r0, #0
     a34:	d007      	beq.n	a46 <delay+0x16>
     a36:	4d04      	ldr	r5, [pc, #16]	; (a48 <delay+0x18>)
     a38:	682e      	ldr	r6, [r5, #0]
     a3a:	f000 f811 	bl	a60 <yield>
     a3e:	682b      	ldr	r3, [r5, #0]
     a40:	1b9b      	subs	r3, r3, r6
     a42:	429c      	cmp	r4, r3
     a44:	d8f9      	bhi.n	a3a <delay+0xa>
     a46:	bd70      	pop	{r4, r5, r6, pc}
     a48:	200001c4 	.word	0x200001c4

00000a4c <SysTick_DefaultHandler>:
     a4c:	b510      	push	{r4, lr}
     a4e:	4a03      	ldr	r2, [pc, #12]	; (a5c <SysTick_DefaultHandler+0x10>)
     a50:	6813      	ldr	r3, [r2, #0]
     a52:	3301      	adds	r3, #1
     a54:	6013      	str	r3, [r2, #0]
     a56:	f000 f8fd 	bl	c54 <tickReset>
     a5a:	bd10      	pop	{r4, pc}
     a5c:	200001c4 	.word	0x200001c4

00000a60 <yield>:
     a60:	4770      	bx	lr

00000a62 <sysTickHook>:
     a62:	2000      	movs	r0, #0
     a64:	4770      	bx	lr

00000a66 <_Z11initVariantv>:
     a66:	4770      	bx	lr

00000a68 <main>:
     a68:	b510      	push	{r4, lr}
     a6a:	f001 fb8b 	bl	2184 <init>
     a6e:	f005 f897 	bl	5ba0 <__libc_init_array>
     a72:	f7ff fff8 	bl	a66 <_Z11initVariantv>
     a76:	2001      	movs	r0, #1
     a78:	f7ff ffda 	bl	a30 <delay>
     a7c:	4c08      	ldr	r4, [pc, #32]	; (aa0 <main+0x38>)
     a7e:	0020      	movs	r0, r4
     a80:	f000 fe10 	bl	16a4 <_ZN14USBDeviceClass4initEv>
     a84:	0020      	movs	r0, r4
     a86:	f000 fe85 	bl	1794 <_ZN14USBDeviceClass6attachEv>
     a8a:	f7ff ff51 	bl	930 <setup>
     a8e:	f7ff ff4b 	bl	928 <loop>
     a92:	4b04      	ldr	r3, [pc, #16]	; (aa4 <main+0x3c>)
     a94:	2b00      	cmp	r3, #0
     a96:	d0fa      	beq.n	a8e <main+0x26>
     a98:	e000      	b.n	a9c <main+0x34>
     a9a:	bf00      	nop
     a9c:	e7f7      	b.n	a8e <main+0x26>
     a9e:	46c0      	nop			; (mov r8, r8)
     aa0:	200001c8 	.word	0x200001c8
     aa4:	00000000 	.word	0x00000000

00000aa8 <_ZN5Print17availableForWriteEv>:
     aa8:	2000      	movs	r0, #0
     aaa:	4770      	bx	lr

00000aac <_ZN5Print5flushEv>:
     aac:	4770      	bx	lr

00000aae <_ZN5Print5writeEPKhj>:
     aae:	b5f7      	push	{r0, r1, r2, r4, r5, r6, r7, lr}
     ab0:	0006      	movs	r6, r0
     ab2:	000d      	movs	r5, r1
     ab4:	000c      	movs	r4, r1
     ab6:	188b      	adds	r3, r1, r2
     ab8:	9301      	str	r3, [sp, #4]
     aba:	9b01      	ldr	r3, [sp, #4]
     abc:	1b67      	subs	r7, r4, r5
     abe:	429c      	cmp	r4, r3
     ac0:	d007      	beq.n	ad2 <_ZN5Print5writeEPKhj+0x24>
     ac2:	6833      	ldr	r3, [r6, #0]
     ac4:	7821      	ldrb	r1, [r4, #0]
     ac6:	681b      	ldr	r3, [r3, #0]
     ac8:	0030      	movs	r0, r6
     aca:	4798      	blx	r3
     acc:	3401      	adds	r4, #1
     ace:	2800      	cmp	r0, #0
     ad0:	d1f3      	bne.n	aba <_ZN5Print5writeEPKhj+0xc>
     ad2:	0038      	movs	r0, r7
     ad4:	bdfe      	pop	{r1, r2, r3, r4, r5, r6, r7, pc}

00000ad6 <_ZN5Print5writeEPKc>:
     ad6:	b570      	push	{r4, r5, r6, lr}
     ad8:	0005      	movs	r5, r0
     ada:	000c      	movs	r4, r1
     adc:	1e08      	subs	r0, r1, #0
     ade:	d007      	beq.n	af0 <_ZN5Print5writeEPKc+0x1a>
     ae0:	f005 f990 	bl	5e04 <strlen>
     ae4:	682b      	ldr	r3, [r5, #0]
     ae6:	0002      	movs	r2, r0
     ae8:	685b      	ldr	r3, [r3, #4]
     aea:	0021      	movs	r1, r4
     aec:	0028      	movs	r0, r5
     aee:	4798      	blx	r3
     af0:	bd70      	pop	{r4, r5, r6, pc}

00000af2 <_ZN5Print5printEPK19__FlashStringHelper>:
     af2:	b510      	push	{r4, lr}
     af4:	f7ff ffef 	bl	ad6 <_ZN5Print5writeEPKc>
     af8:	bd10      	pop	{r4, pc}

00000afa <_ZN5Print5printEPKc>:
     afa:	b510      	push	{r4, lr}
     afc:	f7ff ffeb 	bl	ad6 <_ZN5Print5writeEPKc>
     b00:	bd10      	pop	{r4, pc}

00000b02 <_ZN5Print5printEc>:
     b02:	b510      	push	{r4, lr}
     b04:	6803      	ldr	r3, [r0, #0]
     b06:	681b      	ldr	r3, [r3, #0]
     b08:	4798      	blx	r3
     b0a:	bd10      	pop	{r4, pc}

00000b0c <_ZN5Print7printlnEv>:
     b0c:	b510      	push	{r4, lr}
     b0e:	4902      	ldr	r1, [pc, #8]	; (b18 <_ZN5Print7printlnEv+0xc>)
     b10:	f7ff ffe1 	bl	ad6 <_ZN5Print5writeEPKc>
     b14:	bd10      	pop	{r4, pc}
     b16:	46c0      	nop			; (mov r8, r8)
     b18:	00006035 	.word	0x00006035

00000b1c <_ZN5Print7printlnEPK19__FlashStringHelper>:
     b1c:	b570      	push	{r4, r5, r6, lr}
     b1e:	0004      	movs	r4, r0
     b20:	f7ff ffd9 	bl	ad6 <_ZN5Print5writeEPKc>
     b24:	0005      	movs	r5, r0
     b26:	0020      	movs	r0, r4
     b28:	f7ff fff0 	bl	b0c <_ZN5Print7printlnEv>
     b2c:	1940      	adds	r0, r0, r5
     b2e:	bd70      	pop	{r4, r5, r6, pc}

00000b30 <_ZN5Print7printlnEc>:
     b30:	b570      	push	{r4, r5, r6, lr}
     b32:	0005      	movs	r5, r0
     b34:	f7ff ffe5 	bl	b02 <_ZN5Print5printEc>
     b38:	0004      	movs	r4, r0
     b3a:	0028      	movs	r0, r5
     b3c:	f7ff ffe6 	bl	b0c <_ZN5Print7printlnEv>
     b40:	1820      	adds	r0, r4, r0
     b42:	bd70      	pop	{r4, r5, r6, pc}

00000b44 <_ZN5Print11printNumberEmh>:
     b44:	b5f0      	push	{r4, r5, r6, r7, lr}
     b46:	0016      	movs	r6, r2
     b48:	2200      	movs	r2, #0
     b4a:	b08d      	sub	sp, #52	; 0x34
     b4c:	ab02      	add	r3, sp, #8
     b4e:	3305      	adds	r3, #5
     b50:	9001      	str	r0, [sp, #4]
     b52:	000d      	movs	r5, r1
     b54:	77da      	strb	r2, [r3, #31]
     b56:	2e01      	cmp	r6, #1
     b58:	dc00      	bgt.n	b5c <_ZN5Print11printNumberEmh+0x18>
     b5a:	260a      	movs	r6, #10
     b5c:	ac0b      	add	r4, sp, #44	; 0x2c
     b5e:	0028      	movs	r0, r5
     b60:	0031      	movs	r1, r6
     b62:	f004 ff2d 	bl	59c0 <__aeabi_uidivmod>
     b66:	000f      	movs	r7, r1
     b68:	b2cb      	uxtb	r3, r1
     b6a:	0028      	movs	r0, r5
     b6c:	0031      	movs	r1, r6
     b6e:	9300      	str	r3, [sp, #0]
     b70:	f004 fea0 	bl	58b4 <__udivsi3>
     b74:	b2fb      	uxtb	r3, r7
     b76:	3337      	adds	r3, #55	; 0x37
     b78:	0005      	movs	r5, r0
     b7a:	3c01      	subs	r4, #1
     b7c:	b2db      	uxtb	r3, r3
     b7e:	2f09      	cmp	r7, #9
     b80:	d802      	bhi.n	b88 <_ZN5Print11printNumberEmh+0x44>
     b82:	9b00      	ldr	r3, [sp, #0]
     b84:	3330      	adds	r3, #48	; 0x30
     b86:	b2db      	uxtb	r3, r3
     b88:	7023      	strb	r3, [r4, #0]
     b8a:	2d00      	cmp	r5, #0
     b8c:	d1e7      	bne.n	b5e <_ZN5Print11printNumberEmh+0x1a>
     b8e:	0021      	movs	r1, r4
     b90:	9801      	ldr	r0, [sp, #4]
     b92:	f7ff ffa0 	bl	ad6 <_ZN5Print5writeEPKc>
     b96:	b00d      	add	sp, #52	; 0x34
     b98:	bdf0      	pop	{r4, r5, r6, r7, pc}

00000b9a <_ZN5Print5printEli>:
     b9a:	b5f8      	push	{r3, r4, r5, r6, r7, lr}
     b9c:	0006      	movs	r6, r0
     b9e:	000c      	movs	r4, r1
     ba0:	1e15      	subs	r5, r2, #0
     ba2:	d104      	bne.n	bae <_ZN5Print5printEli+0x14>
     ba4:	6803      	ldr	r3, [r0, #0]
     ba6:	b2c9      	uxtb	r1, r1
     ba8:	681b      	ldr	r3, [r3, #0]
     baa:	4798      	blx	r3
     bac:	bdf8      	pop	{r3, r4, r5, r6, r7, pc}
     bae:	b2d2      	uxtb	r2, r2
     bb0:	2d0a      	cmp	r5, #10
     bb2:	d10d      	bne.n	bd0 <_ZN5Print5printEli+0x36>
     bb4:	002a      	movs	r2, r5
     bb6:	2900      	cmp	r1, #0
     bb8:	da0a      	bge.n	bd0 <_ZN5Print5printEli+0x36>
     bba:	212d      	movs	r1, #45	; 0x2d
     bbc:	f7ff ffa1 	bl	b02 <_ZN5Print5printEc>
     bc0:	4261      	negs	r1, r4
     bc2:	0007      	movs	r7, r0
     bc4:	002a      	movs	r2, r5
     bc6:	0030      	movs	r0, r6
     bc8:	f7ff ffbc 	bl	b44 <_ZN5Print11printNumberEmh>
     bcc:	1838      	adds	r0, r7, r0
     bce:	e7ed      	b.n	bac <_ZN5Print5printEli+0x12>
     bd0:	0021      	movs	r1, r4
     bd2:	0030      	movs	r0, r6
     bd4:	f7ff ffb6 	bl	b44 <_ZN5Print11printNumberEmh>
     bd8:	e7e8      	b.n	bac <_ZN5Print5printEli+0x12>

00000bda <_ZN5Print5printEii>:
     bda:	b510      	push	{r4, lr}
     bdc:	f7ff ffdd 	bl	b9a <_ZN5Print5printEli>
     be0:	bd10      	pop	{r4, pc}

00000be2 <_ZN5Print7printlnEii>:
     be2:	b570      	push	{r4, r5, r6, lr}
     be4:	0004      	movs	r4, r0
     be6:	f7ff ffd8 	bl	b9a <_ZN5Print5printEli>
     bea:	0005      	movs	r5, r0
     bec:	0020      	movs	r0, r4
     bee:	f7ff ff8d 	bl	b0c <_ZN5Print7printlnEv>
     bf2:	1940      	adds	r0, r0, r5
     bf4:	bd70      	pop	{r4, r5, r6, pc}

00000bf6 <_ZN5Print5printEmi>:
     bf6:	b510      	push	{r4, lr}
     bf8:	2a00      	cmp	r2, #0
     bfa:	d104      	bne.n	c06 <_ZN5Print5printEmi+0x10>
     bfc:	6803      	ldr	r3, [r0, #0]
     bfe:	b2c9      	uxtb	r1, r1
     c00:	681b      	ldr	r3, [r3, #0]
     c02:	4798      	blx	r3
     c04:	bd10      	pop	{r4, pc}
     c06:	b2d2      	uxtb	r2, r2
     c08:	f7ff ff9c 	bl	b44 <_ZN5Print11printNumberEmh>
     c0c:	e7fa      	b.n	c04 <_ZN5Print5printEmi+0xe>

00000c0e <_ZN5Print7printlnEhi>:
     c0e:	b570      	push	{r4, r5, r6, lr}
     c10:	0004      	movs	r4, r0
     c12:	f7ff fff0 	bl	bf6 <_ZN5Print5printEmi>
     c16:	0005      	movs	r5, r0
     c18:	0020      	movs	r0, r4
     c1a:	f7ff ff77 	bl	b0c <_ZN5Print7printlnEv>
     c1e:	1940      	adds	r0, r0, r5
     c20:	bd70      	pop	{r4, r5, r6, pc}

00000c22 <_ZN5Print7printlnEmi>:
     c22:	b570      	push	{r4, r5, r6, lr}
     c24:	0005      	movs	r5, r0
     c26:	f7ff ffe6 	bl	bf6 <_ZN5Print5printEmi>
     c2a:	0004      	movs	r4, r0
     c2c:	0028      	movs	r0, r5
     c2e:	f7ff ff6d 	bl	b0c <_ZN5Print7printlnEv>
     c32:	1820      	adds	r0, r4, r0
     c34:	bd70      	pop	{r4, r5, r6, pc}
	...

00000c38 <initiateReset>:
     c38:	4b01      	ldr	r3, [pc, #4]	; (c40 <initiateReset+0x8>)
     c3a:	6018      	str	r0, [r3, #0]
     c3c:	4770      	bx	lr
     c3e:	46c0      	nop			; (mov r8, r8)
     c40:	20000018 	.word	0x20000018

00000c44 <cancelReset>:
     c44:	2201      	movs	r2, #1
     c46:	4b02      	ldr	r3, [pc, #8]	; (c50 <cancelReset+0xc>)
     c48:	4252      	negs	r2, r2
     c4a:	601a      	str	r2, [r3, #0]
     c4c:	4770      	bx	lr
     c4e:	46c0      	nop			; (mov r8, r8)
     c50:	20000018 	.word	0x20000018

00000c54 <tickReset>:
     c54:	4a16      	ldr	r2, [pc, #88]	; (cb0 <tickReset+0x5c>)
     c56:	b510      	push	{r4, lr}
     c58:	6813      	ldr	r3, [r2, #0]
     c5a:	1c59      	adds	r1, r3, #1
     c5c:	d027      	beq.n	cae <tickReset+0x5a>
     c5e:	3b01      	subs	r3, #1
     c60:	6013      	str	r3, [r2, #0]
     c62:	2b00      	cmp	r3, #0
     c64:	d123      	bne.n	cae <tickReset+0x5a>
  \details Disables IRQ interrupts by setting the I-bit in the CPSR.
           Can only be executed in Privileged modes.
 */
__attribute__((always_inline)) __STATIC_INLINE void __disable_irq(void)
{
  __ASM volatile ("cpsid i" : : : "memory");
     c66:	b672      	cpsid	i
     c68:	4b12      	ldr	r3, [pc, #72]	; (cb4 <tickReset+0x60>)
     c6a:	4a13      	ldr	r2, [pc, #76]	; (cb8 <tickReset+0x64>)
     c6c:	3304      	adds	r3, #4
     c6e:	4293      	cmp	r3, r2
     c70:	d808      	bhi.n	c84 <tickReset+0x30>
  \details Acts as a special kind of Data Memory Barrier.
           It completes when all explicit memory accesses before this instruction complete.
 */
__attribute__((always_inline)) __STATIC_INLINE void __DSB(void)
{
  __ASM volatile ("dsb 0xF":::"memory");
     c72:	f3bf 8f4f 	dsb	sy
 */
__STATIC_INLINE void NVIC_SystemReset(void)
{
  __DSB();                                                          /* Ensure all outstanding memory accesses included
                                                                       buffered write are completed before reset */
  SCB->AIRCR  = ((0x5FAUL << SCB_AIRCR_VECTKEY_Pos) |
     c76:	4a11      	ldr	r2, [pc, #68]	; (cbc <tickReset+0x68>)
     c78:	4b11      	ldr	r3, [pc, #68]	; (cc0 <tickReset+0x6c>)
     c7a:	60da      	str	r2, [r3, #12]
     c7c:	f3bf 8f4f 	dsb	sy
                 SCB_AIRCR_SYSRESETREQ_Msk);
  __DSB();                                                          /* Ensure completion of memory access */

  for(;;)                                                           /* wait until reset */
  {
    __NOP();
     c80:	46c0      	nop			; (mov r8, r8)
     c82:	e7fd      	b.n	c80 <tickReset+0x2c>
     c84:	4a0f      	ldr	r2, [pc, #60]	; (cc4 <tickReset+0x70>)
     c86:	2101      	movs	r1, #1
     c88:	0010      	movs	r0, r2
     c8a:	7d14      	ldrb	r4, [r2, #20]
     c8c:	420c      	tst	r4, r1
     c8e:	d0fc      	beq.n	c8a <tickReset+0x36>
     c90:	2120      	movs	r1, #32
     c92:	8b14      	ldrh	r4, [r2, #24]
     c94:	31ff      	adds	r1, #255	; 0xff
     c96:	089b      	lsrs	r3, r3, #2
     c98:	005b      	lsls	r3, r3, #1
     c9a:	4321      	orrs	r1, r4
     c9c:	8311      	strh	r1, [r2, #24]
     c9e:	61d3      	str	r3, [r2, #28]
     ca0:	4b09      	ldr	r3, [pc, #36]	; (cc8 <tickReset+0x74>)
     ca2:	8013      	strh	r3, [r2, #0]
     ca4:	2301      	movs	r3, #1
     ca6:	7d02      	ldrb	r2, [r0, #20]
     ca8:	421a      	tst	r2, r3
     caa:	d0fc      	beq.n	ca6 <tickReset+0x52>
     cac:	e7e1      	b.n	c72 <tickReset+0x1e>
     cae:	bd10      	pop	{r4, pc}
     cb0:	20000018 	.word	0x20000018
     cb4:	00000000 	.word	0x00000000
     cb8:	00000203 	.word	0x00000203
     cbc:	05fa0004 	.word	0x05fa0004
     cc0:	e000ed00 	.word	0xe000ed00
     cc4:	41004000 	.word	0x41004000
     cc8:	ffffa502 	.word	0xffffa502

00000ccc <SystemInit>:
     ccc:	221e      	movs	r2, #30
     cce:	b570      	push	{r4, r5, r6, lr}
     cd0:	4846      	ldr	r0, [pc, #280]	; (dec <SystemInit+0x120>)
     cd2:	4947      	ldr	r1, [pc, #284]	; (df0 <SystemInit+0x124>)
     cd4:	6843      	ldr	r3, [r0, #4]
     cd6:	4393      	bics	r3, r2
     cd8:	3a1c      	subs	r2, #28
     cda:	4313      	orrs	r3, r2
     cdc:	6043      	str	r3, [r0, #4]
     cde:	2308      	movs	r3, #8
     ce0:	698c      	ldr	r4, [r1, #24]
     ce2:	4323      	orrs	r3, r4
     ce4:	618b      	str	r3, [r1, #24]
     ce6:	4c43      	ldr	r4, [pc, #268]	; (df4 <SystemInit+0x128>)
     ce8:	4b43      	ldr	r3, [pc, #268]	; (df8 <SystemInit+0x12c>)
     cea:	829c      	strh	r4, [r3, #20]
     cec:	8a9c      	ldrh	r4, [r3, #20]
     cee:	4314      	orrs	r4, r2
     cf0:	829c      	strh	r4, [r3, #20]
     cf2:	68dc      	ldr	r4, [r3, #12]
     cf4:	4214      	tst	r4, r2
     cf6:	d0fc      	beq.n	cf2 <SystemInit+0x26>
     cf8:	2401      	movs	r4, #1
     cfa:	4a40      	ldr	r2, [pc, #256]	; (dfc <SystemInit+0x130>)
     cfc:	7014      	strb	r4, [r2, #0]
     cfe:	7815      	ldrb	r5, [r2, #0]
     d00:	4225      	tst	r5, r4
     d02:	d003      	beq.n	d0c <SystemInit+0x40>
     d04:	7855      	ldrb	r5, [r2, #1]
     d06:	b26d      	sxtb	r5, r5
     d08:	2d00      	cmp	r5, #0
     d0a:	dbf8      	blt.n	cfe <SystemInit+0x32>
     d0c:	2401      	movs	r4, #1
     d0e:	6094      	str	r4, [r2, #8]
     d10:	7854      	ldrb	r4, [r2, #1]
     d12:	b264      	sxtb	r4, r4
     d14:	2c00      	cmp	r4, #0
     d16:	dbfb      	blt.n	d10 <SystemInit+0x44>
     d18:	4c39      	ldr	r4, [pc, #228]	; (e00 <SystemInit+0x134>)
     d1a:	6054      	str	r4, [r2, #4]
     d1c:	7854      	ldrb	r4, [r2, #1]
     d1e:	b264      	sxtb	r4, r4
     d20:	2c00      	cmp	r4, #0
     d22:	dbfb      	blt.n	d1c <SystemInit+0x50>
     d24:	2482      	movs	r4, #130	; 0x82
     d26:	01e4      	lsls	r4, r4, #7
     d28:	8054      	strh	r4, [r2, #2]
     d2a:	7854      	ldrb	r4, [r2, #1]
     d2c:	b264      	sxtb	r4, r4
     d2e:	2c00      	cmp	r4, #0
     d30:	dbfb      	blt.n	d2a <SystemInit+0x5e>
     d32:	2402      	movs	r4, #2
     d34:	849c      	strh	r4, [r3, #36]	; 0x24
     d36:	340e      	adds	r4, #14
     d38:	68dd      	ldr	r5, [r3, #12]
     d3a:	4225      	tst	r5, r4
     d3c:	d0fc      	beq.n	d38 <SystemInit+0x6c>
     d3e:	4c31      	ldr	r4, [pc, #196]	; (e04 <SystemInit+0x138>)
     d40:	62dc      	str	r4, [r3, #44]	; 0x2c
     d42:	2410      	movs	r4, #16
     d44:	68dd      	ldr	r5, [r3, #12]
     d46:	4225      	tst	r5, r4
     d48:	d0fc      	beq.n	d44 <SystemInit+0x78>
     d4a:	8c9d      	ldrh	r5, [r3, #36]	; 0x24
     d4c:	4c2e      	ldr	r4, [pc, #184]	; (e08 <SystemInit+0x13c>)
     d4e:	432c      	orrs	r4, r5
     d50:	849c      	strh	r4, [r3, #36]	; 0x24
     d52:	2410      	movs	r4, #16
     d54:	68dd      	ldr	r5, [r3, #12]
     d56:	4225      	tst	r5, r4
     d58:	d0fc      	beq.n	d54 <SystemInit+0x88>
     d5a:	2402      	movs	r4, #2
     d5c:	8c9d      	ldrh	r5, [r3, #36]	; 0x24
     d5e:	2680      	movs	r6, #128	; 0x80
     d60:	432c      	orrs	r4, r5
     d62:	849c      	strh	r4, [r3, #36]	; 0x24
     d64:	2440      	movs	r4, #64	; 0x40
     d66:	68dd      	ldr	r5, [r3, #12]
     d68:	4235      	tst	r5, r6
     d6a:	d0fc      	beq.n	d66 <SystemInit+0x9a>
     d6c:	68dd      	ldr	r5, [r3, #12]
     d6e:	4225      	tst	r5, r4
     d70:	d0f9      	beq.n	d66 <SystemInit+0x9a>
     d72:	2410      	movs	r4, #16
     d74:	68dd      	ldr	r5, [r3, #12]
     d76:	4225      	tst	r5, r4
     d78:	d0fc      	beq.n	d74 <SystemInit+0xa8>
     d7a:	2400      	movs	r4, #0
     d7c:	6094      	str	r4, [r2, #8]
     d7e:	7854      	ldrb	r4, [r2, #1]
     d80:	b264      	sxtb	r4, r4
     d82:	2c00      	cmp	r4, #0
     d84:	dbfb      	blt.n	d7e <SystemInit+0xb2>
     d86:	4c21      	ldr	r4, [pc, #132]	; (e0c <SystemInit+0x140>)
     d88:	6054      	str	r4, [r2, #4]
     d8a:	7854      	ldrb	r4, [r2, #1]
     d8c:	b264      	sxtb	r4, r4
     d8e:	2c00      	cmp	r4, #0
     d90:	dbfb      	blt.n	d8a <SystemInit+0xbe>
     d92:	6a1c      	ldr	r4, [r3, #32]
     d94:	4d1e      	ldr	r5, [pc, #120]	; (e10 <SystemInit+0x144>)
     d96:	402c      	ands	r4, r5
     d98:	2580      	movs	r5, #128	; 0x80
     d9a:	621c      	str	r4, [r3, #32]
     d9c:	6a1c      	ldr	r4, [r3, #32]
     d9e:	43ac      	bics	r4, r5
     da0:	621c      	str	r4, [r3, #32]
     da2:	2303      	movs	r3, #3
     da4:	6093      	str	r3, [r2, #8]
     da6:	4b1b      	ldr	r3, [pc, #108]	; (e14 <SystemInit+0x148>)
     da8:	6053      	str	r3, [r2, #4]
     daa:	7853      	ldrb	r3, [r2, #1]
     dac:	b25b      	sxtb	r3, r3
     dae:	2b00      	cmp	r3, #0
     db0:	dbfb      	blt.n	daa <SystemInit+0xde>
     db2:	2300      	movs	r3, #0
     db4:	24ff      	movs	r4, #255	; 0xff
     db6:	720b      	strb	r3, [r1, #8]
     db8:	4a17      	ldr	r2, [pc, #92]	; (e18 <SystemInit+0x14c>)
     dba:	724b      	strb	r3, [r1, #9]
     dbc:	728b      	strb	r3, [r1, #10]
     dbe:	72cb      	strb	r3, [r1, #11]
     dc0:	4b16      	ldr	r3, [pc, #88]	; (e1c <SystemInit+0x150>)
     dc2:	601a      	str	r2, [r3, #0]
     dc4:	4b16      	ldr	r3, [pc, #88]	; (e20 <SystemInit+0x154>)
     dc6:	4a17      	ldr	r2, [pc, #92]	; (e24 <SystemInit+0x158>)
     dc8:	681b      	ldr	r3, [r3, #0]
     dca:	6811      	ldr	r1, [r2, #0]
     dcc:	069a      	lsls	r2, r3, #26
     dce:	015b      	lsls	r3, r3, #5
     dd0:	0ec9      	lsrs	r1, r1, #27
     dd2:	4023      	ands	r3, r4
     dd4:	0f52      	lsrs	r2, r2, #29
     dd6:	0212      	lsls	r2, r2, #8
     dd8:	430b      	orrs	r3, r1
     dda:	4313      	orrs	r3, r2
     ddc:	4a12      	ldr	r2, [pc, #72]	; (e28 <SystemInit+0x15c>)
     dde:	8513      	strh	r3, [r2, #40]	; 0x28
     de0:	2380      	movs	r3, #128	; 0x80
     de2:	6842      	ldr	r2, [r0, #4]
     de4:	4313      	orrs	r3, r2
     de6:	6043      	str	r3, [r0, #4]
     de8:	bd70      	pop	{r4, r5, r6, pc}
     dea:	46c0      	nop			; (mov r8, r8)
     dec:	41004000 	.word	0x41004000
     df0:	40000400 	.word	0x40000400
     df4:	0000060c 	.word	0x0000060c
     df8:	40000800 	.word	0x40000800
     dfc:	40000c00 	.word	0x40000c00
     e00:	00010501 	.word	0x00010501
     e04:	7dff05b9 	.word	0x7dff05b9
     e08:	00000a04 	.word	0x00000a04
     e0c:	00030700 	.word	0x00030700
     e10:	fffffcff 	.word	0xfffffcff
     e14:	00010603 	.word	0x00010603
     e18:	02dc6c00 	.word	0x02dc6c00
     e1c:	20000044 	.word	0x20000044
     e20:	00806024 	.word	0x00806024
     e24:	00806020 	.word	0x00806020
     e28:	42004000 	.word	0x42004000

00000e2c <_ZN4UartcvbEv>:
     e2c:	2001      	movs	r0, #1
     e2e:	4770      	bx	lr

00000e30 <_ZN4Uart5beginEm>:
     e30:	b510      	push	{r4, lr}
     e32:	6803      	ldr	r3, [r0, #0]
     e34:	4a01      	ldr	r2, [pc, #4]	; (e3c <_ZN4Uart5beginEm+0xc>)
     e36:	6a1b      	ldr	r3, [r3, #32]
     e38:	4798      	blx	r3
     e3a:	bd10      	pop	{r4, pc}
     e3c:	00000413 	.word	0x00000413

00000e40 <_ZN4Uart4peekEv>:
     e40:	6d82      	ldr	r2, [r0, #88]	; 0x58
     e42:	6d43      	ldr	r3, [r0, #84]	; 0x54
     e44:	429a      	cmp	r2, r3
     e46:	d003      	beq.n	e50 <_ZN4Uart4peekEv+0x10>
     e48:	6d83      	ldr	r3, [r0, #88]	; 0x58
     e4a:	18c0      	adds	r0, r0, r3
     e4c:	7d00      	ldrb	r0, [r0, #20]
     e4e:	4770      	bx	lr
     e50:	2001      	movs	r0, #1
     e52:	4240      	negs	r0, r0
     e54:	e7fb      	b.n	e4e <_ZN4Uart4peekEv+0xe>

00000e56 <_ZN4Uart3endEv>:
     e56:	b510      	push	{r4, lr}
     e58:	0004      	movs	r4, r0
     e5a:	6900      	ldr	r0, [r0, #16]
     e5c:	f004 f9fb 	bl	5256 <_ZN6SERCOM9resetUARTEv>
     e60:	2300      	movs	r3, #0
     e62:	0022      	movs	r2, r4
     e64:	6563      	str	r3, [r4, #84]	; 0x54
     e66:	329c      	adds	r2, #156	; 0x9c
     e68:	65a3      	str	r3, [r4, #88]	; 0x58
     e6a:	34a0      	adds	r4, #160	; 0xa0
     e6c:	6013      	str	r3, [r2, #0]
     e6e:	6023      	str	r3, [r4, #0]
     e70:	bd10      	pop	{r4, pc}

00000e72 <_ZN4Uart16extractNbStopBitEt>:
     e72:	20f0      	movs	r0, #240	; 0xf0
     e74:	4001      	ands	r1, r0
     e76:	3930      	subs	r1, #48	; 0x30
     e78:	4248      	negs	r0, r1
     e7a:	4148      	adcs	r0, r1
     e7c:	4770      	bx	lr

00000e7e <_ZN4Uart15extractCharSizeEt>:
     e7e:	23f0      	movs	r3, #240	; 0xf0
     e80:	011b      	lsls	r3, r3, #4
     e82:	4019      	ands	r1, r3
     e84:	2380      	movs	r3, #128	; 0x80
     e86:	2006      	movs	r0, #6
     e88:	009b      	lsls	r3, r3, #2
     e8a:	4299      	cmp	r1, r3
     e8c:	d00a      	beq.n	ea4 <_ZN4Uart15extractCharSizeEt+0x26>
     e8e:	3301      	adds	r3, #1
     e90:	33ff      	adds	r3, #255	; 0xff
     e92:	3001      	adds	r0, #1
     e94:	4299      	cmp	r1, r3
     e96:	d005      	beq.n	ea4 <_ZN4Uart15extractCharSizeEt+0x26>
     e98:	2380      	movs	r3, #128	; 0x80
     e9a:	3802      	subs	r0, #2
     e9c:	005b      	lsls	r3, r3, #1
     e9e:	4299      	cmp	r1, r3
     ea0:	d000      	beq.n	ea4 <_ZN4Uart15extractCharSizeEt+0x26>
     ea2:	2000      	movs	r0, #0
     ea4:	4770      	bx	lr

00000ea6 <_ZN4Uart13extractParityEt>:
     ea6:	200f      	movs	r0, #15
     ea8:	4001      	ands	r1, r0
     eaa:	2000      	movs	r0, #0
     eac:	2901      	cmp	r1, #1
     eae:	d003      	beq.n	eb8 <_ZN4Uart13extractParityEt+0x12>
     eb0:	3902      	subs	r1, #2
     eb2:	1e48      	subs	r0, r1, #1
     eb4:	4181      	sbcs	r1, r0
     eb6:	1c48      	adds	r0, r1, #1
     eb8:	4770      	bx	lr
	...

00000ebc <_ZN4Uart5beginEmt>:
     ebc:	0003      	movs	r3, r0
     ebe:	b5f0      	push	{r4, r5, r6, r7, lr}
     ec0:	2618      	movs	r6, #24
     ec2:	b085      	sub	sp, #20
     ec4:	9103      	str	r1, [sp, #12]
     ec6:	33a4      	adds	r3, #164	; 0xa4
     ec8:	0004      	movs	r4, r0
     eca:	7818      	ldrb	r0, [r3, #0]
     ecc:	0033      	movs	r3, r6
     ece:	2108      	movs	r1, #8
     ed0:	4343      	muls	r3, r0
     ed2:	4d33      	ldr	r5, [pc, #204]	; (fa0 <_ZN4Uart5beginEmt+0xe4>)
     ed4:	0017      	movs	r7, r2
     ed6:	18eb      	adds	r3, r5, r3
     ed8:	5659      	ldrsb	r1, [r3, r1]
     eda:	f001 fa75 	bl	23c8 <pinPeripheral>
     ede:	0023      	movs	r3, r4
     ee0:	33a5      	adds	r3, #165	; 0xa5
     ee2:	7818      	ldrb	r0, [r3, #0]
     ee4:	0033      	movs	r3, r6
     ee6:	2108      	movs	r1, #8
     ee8:	4343      	muls	r3, r0
     eea:	18eb      	adds	r3, r5, r3
     eec:	5659      	ldrsb	r1, [r3, r1]
     eee:	f001 fa6b 	bl	23c8 <pinPeripheral>
     ef2:	0023      	movs	r3, r4
     ef4:	33a7      	adds	r3, #167	; 0xa7
     ef6:	781b      	ldrb	r3, [r3, #0]
     ef8:	2b02      	cmp	r3, #2
     efa:	d10a      	bne.n	f12 <_ZN4Uart5beginEmt+0x56>
     efc:	0023      	movs	r3, r4
     efe:	33b8      	adds	r3, #184	; 0xb8
     f00:	7818      	ldrb	r0, [r3, #0]
     f02:	28ff      	cmp	r0, #255	; 0xff
     f04:	d005      	beq.n	f12 <_ZN4Uart5beginEmt+0x56>
     f06:	2108      	movs	r1, #8
     f08:	4346      	muls	r6, r0
     f0a:	19ae      	adds	r6, r5, r6
     f0c:	5671      	ldrsb	r1, [r6, r1]
     f0e:	f001 fa5b 	bl	23c8 <pinPeripheral>
     f12:	0026      	movs	r6, r4
     f14:	36a8      	adds	r6, #168	; 0xa8
     f16:	7830      	ldrb	r0, [r6, #0]
     f18:	28ff      	cmp	r0, #255	; 0xff
     f1a:	d019      	beq.n	f50 <_ZN4Uart5beginEmt+0x94>
     f1c:	2101      	movs	r1, #1
     f1e:	f001 f9db 	bl	22d8 <pinMode>
     f22:	2218      	movs	r2, #24
     f24:	0021      	movs	r1, r4
     f26:	7833      	ldrb	r3, [r6, #0]
     f28:	481e      	ldr	r0, [pc, #120]	; (fa4 <_ZN4Uart5beginEmt+0xe8>)
     f2a:	435a      	muls	r2, r3
     f2c:	56ab      	ldrsb	r3, [r5, r2]
     f2e:	31ac      	adds	r1, #172	; 0xac
     f30:	01db      	lsls	r3, r3, #7
     f32:	1818      	adds	r0, r3, r0
     f34:	6008      	str	r0, [r1, #0]
     f36:	491c      	ldr	r1, [pc, #112]	; (fa8 <_ZN4Uart5beginEmt+0xec>)
     f38:	18ad      	adds	r5, r5, r2
     f3a:	185b      	adds	r3, r3, r1
     f3c:	0021      	movs	r1, r4
     f3e:	2201      	movs	r2, #1
     f40:	31b0      	adds	r1, #176	; 0xb0
     f42:	600b      	str	r3, [r1, #0]
     f44:	6869      	ldr	r1, [r5, #4]
     f46:	408a      	lsls	r2, r1
     f48:	0021      	movs	r1, r4
     f4a:	31b4      	adds	r1, #180	; 0xb4
     f4c:	600a      	str	r2, [r1, #0]
     f4e:	601a      	str	r2, [r3, #0]
     f50:	2201      	movs	r2, #1
     f52:	9b03      	ldr	r3, [sp, #12]
     f54:	0011      	movs	r1, r2
     f56:	6920      	ldr	r0, [r4, #16]
     f58:	f004 fb26 	bl	55a8 <_ZN6SERCOM8initUARTE14SercomUartMode20SercomUartSampleRatem>
     f5c:	0039      	movs	r1, r7
     f5e:	0020      	movs	r0, r4
     f60:	f7ff ff8d 	bl	e7e <_ZN4Uart15extractCharSizeEt>
     f64:	0039      	movs	r1, r7
     f66:	0005      	movs	r5, r0
     f68:	0020      	movs	r0, r4
     f6a:	f7ff ff9c 	bl	ea6 <_ZN4Uart13extractParityEt>
     f6e:	0039      	movs	r1, r7
     f70:	0006      	movs	r6, r0
     f72:	0020      	movs	r0, r4
     f74:	f7ff ff7d 	bl	e72 <_ZN4Uart16extractNbStopBitEt>
     f78:	0033      	movs	r3, r6
     f7a:	9000      	str	r0, [sp, #0]
     f7c:	0029      	movs	r1, r5
     f7e:	6920      	ldr	r0, [r4, #16]
     f80:	2201      	movs	r2, #1
     f82:	f004 f93c 	bl	51fe <_ZN6SERCOM9initFrameE18SercomUartCharSize15SercomDataOrder16SercomParityMode19SercomNumberStopBit>
     f86:	0023      	movs	r3, r4
     f88:	33a6      	adds	r3, #166	; 0xa6
     f8a:	781a      	ldrb	r2, [r3, #0]
     f8c:	7859      	ldrb	r1, [r3, #1]
     f8e:	6920      	ldr	r0, [r4, #16]
     f90:	f004 f94f 	bl	5232 <_ZN6SERCOM8initPadsE15SercomUartTXPad11SercomRXPad>
     f94:	6920      	ldr	r0, [r4, #16]
     f96:	f004 f96a 	bl	526e <_ZN6SERCOM10enableUARTEv>
     f9a:	b005      	add	sp, #20
     f9c:	bdf0      	pop	{r4, r5, r6, r7, pc}
     f9e:	46c0      	nop			; (mov r8, r8)
     fa0:	00006180 	.word	0x00006180
     fa4:	41004418 	.word	0x41004418
     fa8:	41004414 	.word	0x41004414

00000fac <_ZN11RingBufferNILi64EEC1Ev>:
     fac:	b510      	push	{r4, lr}
     fae:	2240      	movs	r2, #64	; 0x40
     fb0:	2100      	movs	r1, #0
     fb2:	0004      	movs	r4, r0
     fb4:	f004 fe44 	bl	5c40 <memset>
     fb8:	2300      	movs	r3, #0
     fba:	0020      	movs	r0, r4
     fbc:	6423      	str	r3, [r4, #64]	; 0x40
     fbe:	6463      	str	r3, [r4, #68]	; 0x44
     fc0:	bd10      	pop	{r4, pc}
	...

00000fc4 <_ZN4UartC1EP6SERCOMhh11SercomRXPad15SercomUartTXPad>:
     fc4:	b5f7      	push	{r0, r1, r2, r4, r5, r6, r7, lr}
     fc6:	001d      	movs	r5, r3
     fc8:	ab08      	add	r3, sp, #32
     fca:	781b      	ldrb	r3, [r3, #0]
     fcc:	0004      	movs	r4, r0
     fce:	9300      	str	r3, [sp, #0]
     fd0:	ab09      	add	r3, sp, #36	; 0x24
     fd2:	781b      	ldrb	r3, [r3, #0]
     fd4:	0016      	movs	r6, r2
     fd6:	9301      	str	r3, [sp, #4]
     fd8:	2300      	movs	r3, #0
     fda:	6043      	str	r3, [r0, #4]
     fdc:	23fa      	movs	r3, #250	; 0xfa
     fde:	009b      	lsls	r3, r3, #2
     fe0:	6083      	str	r3, [r0, #8]
     fe2:	4b0e      	ldr	r3, [pc, #56]	; (101c <_ZN4UartC1EP6SERCOMhh11SercomRXPad15SercomUartTXPad+0x58>)
     fe4:	000f      	movs	r7, r1
     fe6:	3308      	adds	r3, #8
     fe8:	6003      	str	r3, [r0, #0]
     fea:	3014      	adds	r0, #20
     fec:	f7ff ffde 	bl	fac <_ZN11RingBufferNILi64EEC1Ev>
     ff0:	0020      	movs	r0, r4
     ff2:	305c      	adds	r0, #92	; 0x5c
     ff4:	f7ff ffda 	bl	fac <_ZN11RingBufferNILi64EEC1Ev>
     ff8:	466a      	mov	r2, sp
     ffa:	0023      	movs	r3, r4
     ffc:	7812      	ldrb	r2, [r2, #0]
     ffe:	33a4      	adds	r3, #164	; 0xa4
    1000:	6127      	str	r7, [r4, #16]
    1002:	709a      	strb	r2, [r3, #2]
    1004:	466a      	mov	r2, sp
    1006:	7912      	ldrb	r2, [r2, #4]
    1008:	701e      	strb	r6, [r3, #0]
    100a:	70da      	strb	r2, [r3, #3]
    100c:	0022      	movs	r2, r4
    100e:	705d      	strb	r5, [r3, #1]
    1010:	23ff      	movs	r3, #255	; 0xff
    1012:	32a8      	adds	r2, #168	; 0xa8
    1014:	0020      	movs	r0, r4
    1016:	7013      	strb	r3, [r2, #0]
    1018:	7413      	strb	r3, [r2, #16]
    101a:	bdfe      	pop	{r1, r2, r3, r4, r5, r6, r7, pc}
    101c:	00006038 	.word	0x00006038

00001020 <_ZN11RingBufferNILi64EE9availableEv>:
    1020:	6c03      	ldr	r3, [r0, #64]	; 0x40
    1022:	6c40      	ldr	r0, [r0, #68]	; 0x44
    1024:	1a18      	subs	r0, r3, r0
    1026:	d500      	bpl.n	102a <_ZN11RingBufferNILi64EE9availableEv+0xa>
    1028:	3040      	adds	r0, #64	; 0x40
    102a:	4770      	bx	lr

0000102c <_ZN4Uart5flushEv>:
    102c:	b510      	push	{r4, lr}
    102e:	0004      	movs	r4, r0
    1030:	0020      	movs	r0, r4
    1032:	305c      	adds	r0, #92	; 0x5c
    1034:	f7ff fff4 	bl	1020 <_ZN11RingBufferNILi64EE9availableEv>
    1038:	2800      	cmp	r0, #0
    103a:	d1f9      	bne.n	1030 <_ZN4Uart5flushEv+0x4>
    103c:	6920      	ldr	r0, [r4, #16]
    103e:	f004 f91f 	bl	5280 <_ZN6SERCOM9flushUARTEv>
    1042:	bd10      	pop	{r4, pc}

00001044 <_ZN4Uart9availableEv>:
    1044:	b510      	push	{r4, lr}
    1046:	3014      	adds	r0, #20
    1048:	f7ff ffea 	bl	1020 <_ZN11RingBufferNILi64EE9availableEv>
    104c:	bd10      	pop	{r4, pc}

0000104e <_ZN11RingBufferNILi64EE17availableForStoreEv>:
    104e:	6c02      	ldr	r2, [r0, #64]	; 0x40
    1050:	6c43      	ldr	r3, [r0, #68]	; 0x44
    1052:	429a      	cmp	r2, r3
    1054:	db04      	blt.n	1060 <_ZN11RingBufferNILi64EE17availableForStoreEv+0x12>
    1056:	6c03      	ldr	r3, [r0, #64]	; 0x40
    1058:	6c40      	ldr	r0, [r0, #68]	; 0x44
    105a:	1ac0      	subs	r0, r0, r3
    105c:	303f      	adds	r0, #63	; 0x3f
    105e:	4770      	bx	lr
    1060:	6c43      	ldr	r3, [r0, #68]	; 0x44
    1062:	6c00      	ldr	r0, [r0, #64]	; 0x40
    1064:	1a18      	subs	r0, r3, r0
    1066:	3801      	subs	r0, #1
    1068:	e7f9      	b.n	105e <_ZN11RingBufferNILi64EE17availableForStoreEv+0x10>

0000106a <_ZN4Uart17availableForWriteEv>:
    106a:	b510      	push	{r4, lr}
    106c:	305c      	adds	r0, #92	; 0x5c
    106e:	f7ff ffee 	bl	104e <_ZN11RingBufferNILi64EE17availableForStoreEv>
    1072:	bd10      	pop	{r4, pc}

00001074 <_ZN4Uart10IrqHandlerEv>:
    1074:	b570      	push	{r4, r5, r6, lr}
    1076:	0004      	movs	r4, r0
    1078:	6900      	ldr	r0, [r0, #16]
    107a:	f004 f90d 	bl	5298 <_ZN6SERCOM17availableDataUARTEv>
    107e:	2800      	cmp	r0, #0
    1080:	d01f      	beq.n	10c2 <_ZN4Uart10IrqHandlerEv+0x4e>
    1082:	6920      	ldr	r0, [r4, #16]
    1084:	f004 f91d 	bl	52c2 <_ZN6SERCOM12readDataUARTEv>
    1088:	223f      	movs	r2, #63	; 0x3f
    108a:	6d63      	ldr	r3, [r4, #84]	; 0x54
    108c:	3301      	adds	r3, #1
    108e:	4013      	ands	r3, r2
    1090:	6da2      	ldr	r2, [r4, #88]	; 0x58
    1092:	4293      	cmp	r3, r2
    1094:	d003      	beq.n	109e <_ZN4Uart10IrqHandlerEv+0x2a>
    1096:	6d62      	ldr	r2, [r4, #84]	; 0x54
    1098:	18a2      	adds	r2, r4, r2
    109a:	7510      	strb	r0, [r2, #20]
    109c:	6563      	str	r3, [r4, #84]	; 0x54
    109e:	0023      	movs	r3, r4
    10a0:	33a8      	adds	r3, #168	; 0xa8
    10a2:	781b      	ldrb	r3, [r3, #0]
    10a4:	2bff      	cmp	r3, #255	; 0xff
    10a6:	d00c      	beq.n	10c2 <_ZN4Uart10IrqHandlerEv+0x4e>
    10a8:	0020      	movs	r0, r4
    10aa:	3014      	adds	r0, #20
    10ac:	f7ff ffcf 	bl	104e <_ZN11RingBufferNILi64EE17availableForStoreEv>
    10b0:	2809      	cmp	r0, #9
    10b2:	dc06      	bgt.n	10c2 <_ZN4Uart10IrqHandlerEv+0x4e>
    10b4:	0023      	movs	r3, r4
    10b6:	0022      	movs	r2, r4
    10b8:	33ac      	adds	r3, #172	; 0xac
    10ba:	32b4      	adds	r2, #180	; 0xb4
    10bc:	681b      	ldr	r3, [r3, #0]
    10be:	6812      	ldr	r2, [r2, #0]
    10c0:	601a      	str	r2, [r3, #0]
    10c2:	6920      	ldr	r0, [r4, #16]
    10c4:	f004 f8f8 	bl	52b8 <_ZN6SERCOM23isDataRegisterEmptyUARTEv>
    10c8:	2800      	cmp	r0, #0
    10ca:	d019      	beq.n	1100 <_ZN4Uart10IrqHandlerEv+0x8c>
    10cc:	0025      	movs	r5, r4
    10ce:	355c      	adds	r5, #92	; 0x5c
    10d0:	0028      	movs	r0, r5
    10d2:	f7ff ffa5 	bl	1020 <_ZN11RingBufferNILi64EE9availableEv>
    10d6:	2800      	cmp	r0, #0
    10d8:	d021      	beq.n	111e <_ZN4Uart10IrqHandlerEv+0xaa>
    10da:	0022      	movs	r2, r4
    10dc:	0023      	movs	r3, r4
    10de:	32a0      	adds	r2, #160	; 0xa0
    10e0:	339c      	adds	r3, #156	; 0x9c
    10e2:	6811      	ldr	r1, [r2, #0]
    10e4:	681b      	ldr	r3, [r3, #0]
    10e6:	4299      	cmp	r1, r3
    10e8:	d016      	beq.n	1118 <_ZN4Uart10IrqHandlerEv+0xa4>
    10ea:	203f      	movs	r0, #63	; 0x3f
    10ec:	6813      	ldr	r3, [r2, #0]
    10ee:	5ce9      	ldrb	r1, [r5, r3]
    10f0:	6813      	ldr	r3, [r2, #0]
    10f2:	3301      	adds	r3, #1
    10f4:	4003      	ands	r3, r0
    10f6:	6013      	str	r3, [r2, #0]
    10f8:	b2c9      	uxtb	r1, r1
    10fa:	6920      	ldr	r0, [r4, #16]
    10fc:	f004 f8e5 	bl	52ca <_ZN6SERCOM13writeDataUARTEh>
    1100:	6920      	ldr	r0, [r4, #16]
    1102:	f004 f8ce 	bl	52a2 <_ZN6SERCOM11isUARTErrorEv>
    1106:	2800      	cmp	r0, #0
    1108:	d005      	beq.n	1116 <_ZN4Uart10IrqHandlerEv+0xa2>
    110a:	6920      	ldr	r0, [r4, #16]
    110c:	f004 f8cd 	bl	52aa <_ZN6SERCOM20acknowledgeUARTErrorEv>
    1110:	6920      	ldr	r0, [r4, #16]
    1112:	f004 f8bd 	bl	5290 <_ZN6SERCOM15clearStatusUARTEv>
    1116:	bd70      	pop	{r4, r5, r6, pc}
    1118:	2101      	movs	r1, #1
    111a:	4249      	negs	r1, r1
    111c:	e7ec      	b.n	10f8 <_ZN4Uart10IrqHandlerEv+0x84>
    111e:	6920      	ldr	r0, [r4, #16]
    1120:	f004 f8df 	bl	52e2 <_ZN6SERCOM37disableDataRegisterEmptyInterruptUARTEv>
    1124:	e7ec      	b.n	1100 <_ZN4Uart10IrqHandlerEv+0x8c>
	...

00001128 <_ZN4Uart5writeEh>:
    1128:	b5f8      	push	{r3, r4, r5, r6, r7, lr}
    112a:	0004      	movs	r4, r0
    112c:	6900      	ldr	r0, [r0, #16]
    112e:	000d      	movs	r5, r1
    1130:	f004 f8c2 	bl	52b8 <_ZN6SERCOM23isDataRegisterEmptyUARTEv>
    1134:	2800      	cmp	r0, #0
    1136:	d126      	bne.n	1186 <_ZN4Uart5writeEh+0x5e>
    1138:	263f      	movs	r6, #63	; 0x3f
    113a:	2701      	movs	r7, #1
    113c:	0022      	movs	r2, r4
    113e:	0021      	movs	r1, r4
    1140:	329c      	adds	r2, #156	; 0x9c
    1142:	6813      	ldr	r3, [r2, #0]
    1144:	31a0      	adds	r1, #160	; 0xa0
    1146:	6808      	ldr	r0, [r1, #0]
    1148:	3301      	adds	r3, #1
    114a:	4033      	ands	r3, r6
    114c:	4283      	cmp	r3, r0
    114e:	d12e      	bne.n	11ae <_ZN4Uart5writeEh+0x86>
  __ASM volatile ("MRS %0, primask" : "=r" (result) );
    1150:	f3ef 8310 	mrs	r3, PRIMASK
    1154:	423b      	tst	r3, r7
    1156:	d10d      	bne.n	1174 <_ZN4Uart5writeEh+0x4c>
    1158:	4b1d      	ldr	r3, [pc, #116]	; (11d0 <_ZN4Uart5writeEh+0xa8>)
    115a:	685b      	ldr	r3, [r3, #4]
    115c:	05db      	lsls	r3, r3, #23
    115e:	0ddb      	lsrs	r3, r3, #23
    1160:	d0ec      	beq.n	113c <_ZN4Uart5writeEh+0x14>
    1162:	3b10      	subs	r3, #16
    1164:	b25b      	sxtb	r3, r3
  if ((int32_t)(IRQn) >= 0)
    1166:	2b00      	cmp	r3, #0
    1168:	db18      	blt.n	119c <_ZN4Uart5writeEh+0x74>
    return((uint32_t)(((NVIC->IP[ _IP_IDX(IRQn)] >> _BIT_SHIFT(IRQn) ) & (uint32_t)0xFFUL) >> (8U - __NVIC_PRIO_BITS)));
    116a:	089b      	lsrs	r3, r3, #2
    116c:	33c0      	adds	r3, #192	; 0xc0
    116e:	4a19      	ldr	r2, [pc, #100]	; (11d4 <_ZN4Uart5writeEh+0xac>)
    1170:	009b      	lsls	r3, r3, #2
    1172:	589b      	ldr	r3, [r3, r2]
    1174:	6920      	ldr	r0, [r4, #16]
    1176:	f004 f89f 	bl	52b8 <_ZN6SERCOM23isDataRegisterEmptyUARTEv>
    117a:	2800      	cmp	r0, #0
    117c:	d0de      	beq.n	113c <_ZN4Uart5writeEh+0x14>
    117e:	0020      	movs	r0, r4
    1180:	f7ff ff78 	bl	1074 <_ZN4Uart10IrqHandlerEv>
    1184:	e7da      	b.n	113c <_ZN4Uart5writeEh+0x14>
    1186:	0020      	movs	r0, r4
    1188:	305c      	adds	r0, #92	; 0x5c
    118a:	f7ff ff49 	bl	1020 <_ZN11RingBufferNILi64EE9availableEv>
    118e:	2800      	cmp	r0, #0
    1190:	d1d2      	bne.n	1138 <_ZN4Uart5writeEh+0x10>
    1192:	0029      	movs	r1, r5
    1194:	6920      	ldr	r0, [r4, #16]
    1196:	f004 f898 	bl	52ca <_ZN6SERCOM13writeDataUARTEh>
    119a:	e016      	b.n	11ca <_ZN4Uart5writeEh+0xa2>
    return((uint32_t)(((SCB->SHP[_SHP_IDX(IRQn)] >> _BIT_SHIFT(IRQn) ) & (uint32_t)0xFFUL) >> (8U - __NVIC_PRIO_BITS)));
    119c:	220f      	movs	r2, #15
    119e:	4013      	ands	r3, r2
    11a0:	3b08      	subs	r3, #8
    11a2:	089b      	lsrs	r3, r3, #2
    11a4:	4a0c      	ldr	r2, [pc, #48]	; (11d8 <_ZN4Uart5writeEh+0xb0>)
    11a6:	009b      	lsls	r3, r3, #2
    11a8:	189b      	adds	r3, r3, r2
    11aa:	681b      	ldr	r3, [r3, #0]
    11ac:	e7e2      	b.n	1174 <_ZN4Uart5writeEh+0x4c>
    11ae:	6813      	ldr	r3, [r2, #0]
    11b0:	3301      	adds	r3, #1
    11b2:	401e      	ands	r6, r3
    11b4:	680b      	ldr	r3, [r1, #0]
    11b6:	429e      	cmp	r6, r3
    11b8:	d004      	beq.n	11c4 <_ZN4Uart5writeEh+0x9c>
    11ba:	0021      	movs	r1, r4
    11bc:	6813      	ldr	r3, [r2, #0]
    11be:	315c      	adds	r1, #92	; 0x5c
    11c0:	54cd      	strb	r5, [r1, r3]
    11c2:	6016      	str	r6, [r2, #0]
    11c4:	6920      	ldr	r0, [r4, #16]
    11c6:	f004 f888 	bl	52da <_ZN6SERCOM36enableDataRegisterEmptyInterruptUARTEv>
    11ca:	2001      	movs	r0, #1
    11cc:	bdf8      	pop	{r3, r4, r5, r6, r7, pc}
    11ce:	46c0      	nop			; (mov r8, r8)
    11d0:	e000ed00 	.word	0xe000ed00
    11d4:	e000e100 	.word	0xe000e100
    11d8:	e000ed1c 	.word	0xe000ed1c

000011dc <_ZN4Uart4readEv>:
    11dc:	6d82      	ldr	r2, [r0, #88]	; 0x58
    11de:	6d43      	ldr	r3, [r0, #84]	; 0x54
    11e0:	b570      	push	{r4, r5, r6, lr}
    11e2:	0004      	movs	r4, r0
    11e4:	429a      	cmp	r2, r3
    11e6:	d01a      	beq.n	121e <_ZN4Uart4readEv+0x42>
    11e8:	223f      	movs	r2, #63	; 0x3f
    11ea:	6d83      	ldr	r3, [r0, #88]	; 0x58
    11ec:	18c3      	adds	r3, r0, r3
    11ee:	7d1d      	ldrb	r5, [r3, #20]
    11f0:	6d83      	ldr	r3, [r0, #88]	; 0x58
    11f2:	3301      	adds	r3, #1
    11f4:	4013      	ands	r3, r2
    11f6:	6583      	str	r3, [r0, #88]	; 0x58
    11f8:	0023      	movs	r3, r4
    11fa:	33a8      	adds	r3, #168	; 0xa8
    11fc:	781b      	ldrb	r3, [r3, #0]
    11fe:	2bff      	cmp	r3, #255	; 0xff
    1200:	d00b      	beq.n	121a <_ZN4Uart4readEv+0x3e>
    1202:	0020      	movs	r0, r4
    1204:	3014      	adds	r0, #20
    1206:	f7ff ff22 	bl	104e <_ZN11RingBufferNILi64EE17availableForStoreEv>
    120a:	280a      	cmp	r0, #10
    120c:	dd05      	ble.n	121a <_ZN4Uart4readEv+0x3e>
    120e:	0023      	movs	r3, r4
    1210:	34b4      	adds	r4, #180	; 0xb4
    1212:	33b0      	adds	r3, #176	; 0xb0
    1214:	681b      	ldr	r3, [r3, #0]
    1216:	6822      	ldr	r2, [r4, #0]
    1218:	601a      	str	r2, [r3, #0]
    121a:	0028      	movs	r0, r5
    121c:	bd70      	pop	{r4, r5, r6, pc}
    121e:	2501      	movs	r5, #1
    1220:	426d      	negs	r5, r5
    1222:	e7e9      	b.n	11f8 <_ZN4Uart4readEv+0x1c>

00001224 <_ZL5utox8mPc>:
    1224:	b530      	push	{r4, r5, lr}
    1226:	250f      	movs	r5, #15
    1228:	1dcb      	adds	r3, r1, #7
    122a:	3901      	subs	r1, #1
    122c:	0002      	movs	r2, r0
    122e:	402a      	ands	r2, r5
    1230:	0014      	movs	r4, r2
    1232:	0900      	lsrs	r0, r0, #4
    1234:	3430      	adds	r4, #48	; 0x30
    1236:	2a09      	cmp	r2, #9
    1238:	dd01      	ble.n	123e <_ZL5utox8mPc+0x1a>
    123a:	3237      	adds	r2, #55	; 0x37
    123c:	0014      	movs	r4, r2
    123e:	701c      	strb	r4, [r3, #0]
    1240:	3b01      	subs	r3, #1
    1242:	428b      	cmp	r3, r1
    1244:	d1f2      	bne.n	122c <_ZL5utox8mPc+0x8>
    1246:	bd30      	pop	{r4, r5, pc}

00001248 <_ZN14USBDeviceClass6initEPEmm.part.5>:
    1248:	b570      	push	{r4, r5, r6, lr}
    124a:	2982      	cmp	r1, #130	; 0x82
    124c:	d11f      	bne.n	128e <_ZN14USBDeviceClass6initEPEmm.part.5+0x46>
    124e:	b2c3      	uxtb	r3, r0
    1250:	4d2c      	ldr	r5, [pc, #176]	; (1304 <_ZN14USBDeviceClass6initEPEmm.part.5+0xbc>)
    1252:	015a      	lsls	r2, r3, #5
    1254:	18aa      	adds	r2, r5, r2
    1256:	6991      	ldr	r1, [r2, #24]
    1258:	4c2b      	ldr	r4, [pc, #172]	; (1308 <_ZN14USBDeviceClass6initEPEmm.part.5+0xc0>)
    125a:	0180      	lsls	r0, r0, #6
    125c:	400c      	ands	r4, r1
    125e:	21c0      	movs	r1, #192	; 0xc0
    1260:	0589      	lsls	r1, r1, #22
    1262:	4321      	orrs	r1, r4
    1264:	6191      	str	r1, [r2, #24]
    1266:	4929      	ldr	r1, [pc, #164]	; (130c <_ZN14USBDeviceClass6initEPEmm.part.5+0xc4>)
    1268:	3308      	adds	r3, #8
    126a:	1808      	adds	r0, r1, r0
    126c:	2180      	movs	r1, #128	; 0x80
    126e:	6150      	str	r0, [r2, #20]
    1270:	682a      	ldr	r2, [r5, #0]
    1272:	015b      	lsls	r3, r3, #5
    1274:	18d0      	adds	r0, r2, r3
    1276:	7904      	ldrb	r4, [r0, #4]
    1278:	4249      	negs	r1, r1
    127a:	4321      	orrs	r1, r4
    127c:	7101      	strb	r1, [r0, #4]
    127e:	2070      	movs	r0, #112	; 0x70
    1280:	5c99      	ldrb	r1, [r3, r2]
    1282:	4381      	bics	r1, r0
    1284:	0008      	movs	r0, r1
    1286:	2130      	movs	r1, #48	; 0x30
    1288:	4301      	orrs	r1, r0
    128a:	5499      	strb	r1, [r3, r2]
    128c:	bd70      	pop	{r4, r5, r6, pc}
    128e:	2900      	cmp	r1, #0
    1290:	d1fc      	bne.n	128c <_ZN14USBDeviceClass6initEPEmm.part.5+0x44>
    1292:	24c0      	movs	r4, #192	; 0xc0
    1294:	b2c1      	uxtb	r1, r0
    1296:	4e1b      	ldr	r6, [pc, #108]	; (1304 <_ZN14USBDeviceClass6initEPEmm.part.5+0xbc>)
    1298:	014b      	lsls	r3, r1, #5
    129a:	18f3      	adds	r3, r6, r3
    129c:	689a      	ldr	r2, [r3, #8]
    129e:	4d1a      	ldr	r5, [pc, #104]	; (1308 <_ZN14USBDeviceClass6initEPEmm.part.5+0xc0>)
    12a0:	05a4      	lsls	r4, r4, #22
    12a2:	402a      	ands	r2, r5
    12a4:	4322      	orrs	r2, r4
    12a6:	609a      	str	r2, [r3, #8]
    12a8:	4a19      	ldr	r2, [pc, #100]	; (1310 <_ZN14USBDeviceClass6initEPEmm.part.5+0xc8>)
    12aa:	0180      	lsls	r0, r0, #6
    12ac:	1810      	adds	r0, r2, r0
    12ae:	000a      	movs	r2, r1
    12b0:	6058      	str	r0, [r3, #4]
    12b2:	6830      	ldr	r0, [r6, #0]
    12b4:	2607      	movs	r6, #7
    12b6:	3208      	adds	r2, #8
    12b8:	0152      	lsls	r2, r2, #5
    12ba:	5c11      	ldrb	r1, [r2, r0]
    12bc:	43b1      	bics	r1, r6
    12be:	000e      	movs	r6, r1
    12c0:	2101      	movs	r1, #1
    12c2:	4331      	orrs	r1, r6
    12c4:	5411      	strb	r1, [r2, r0]
    12c6:	6999      	ldr	r1, [r3, #24]
    12c8:	400d      	ands	r5, r1
    12ca:	432c      	orrs	r4, r5
    12cc:	619c      	str	r4, [r3, #24]
    12ce:	2470      	movs	r4, #112	; 0x70
    12d0:	490e      	ldr	r1, [pc, #56]	; (130c <_ZN14USBDeviceClass6initEPEmm.part.5+0xc4>)
    12d2:	6159      	str	r1, [r3, #20]
    12d4:	5c11      	ldrb	r1, [r2, r0]
    12d6:	43a1      	bics	r1, r4
    12d8:	000c      	movs	r4, r1
    12da:	2110      	movs	r1, #16
    12dc:	4321      	orrs	r1, r4
    12de:	5411      	strb	r1, [r2, r0]
    12e0:	6899      	ldr	r1, [r3, #8]
    12e2:	4c0c      	ldr	r4, [pc, #48]	; (1314 <_ZN14USBDeviceClass6initEPEmm.part.5+0xcc>)
    12e4:	1882      	adds	r2, r0, r2
    12e6:	400c      	ands	r4, r1
    12e8:	2180      	movs	r1, #128	; 0x80
    12ea:	0349      	lsls	r1, r1, #13
    12ec:	4321      	orrs	r1, r4
    12ee:	6099      	str	r1, [r3, #8]
    12f0:	6899      	ldr	r1, [r3, #8]
    12f2:	0b89      	lsrs	r1, r1, #14
    12f4:	0389      	lsls	r1, r1, #14
    12f6:	6099      	str	r1, [r3, #8]
    12f8:	2340      	movs	r3, #64	; 0x40
    12fa:	7951      	ldrb	r1, [r2, #5]
    12fc:	430b      	orrs	r3, r1
    12fe:	7153      	strb	r3, [r2, #5]
    1300:	e7c4      	b.n	128c <_ZN14USBDeviceClass6initEPEmm.part.5+0x44>
    1302:	46c0      	nop			; (mov r8, r8)
    1304:	20000680 	.word	0x20000680
    1308:	8fffffff 	.word	0x8fffffff
    130c:	200001f4 	.word	0x200001f4
    1310:	200003b4 	.word	0x200003b4
    1314:	f0003fff 	.word	0xf0003fff

00001318 <_ZN20USBDevice_SAMD21G18x5resetEv>:
    1318:	b570      	push	{r4, r5, r6, lr}
    131a:	0004      	movs	r4, r0
    131c:	2301      	movs	r3, #1
    131e:	cc20      	ldmia	r4!, {r5}
    1320:	2100      	movs	r1, #0
    1322:	782a      	ldrb	r2, [r5, #0]
    1324:	0020      	movs	r0, r4
    1326:	4313      	orrs	r3, r2
    1328:	2280      	movs	r2, #128	; 0x80
    132a:	702b      	strb	r3, [r5, #0]
    132c:	0052      	lsls	r2, r2, #1
    132e:	f004 fc87 	bl	5c40 <memset>
    1332:	78ab      	ldrb	r3, [r5, #2]
    1334:	07db      	lsls	r3, r3, #31
    1336:	d4fc      	bmi.n	1332 <_ZN20USBDevice_SAMD21G18x5resetEv+0x1a>
    1338:	626c      	str	r4, [r5, #36]	; 0x24
    133a:	bd70      	pop	{r4, r5, r6, pc}

0000133c <_ZN20USBDevice_SAMD21G18x9calibrateEv>:
    133c:	221f      	movs	r2, #31
    133e:	4b14      	ldr	r3, [pc, #80]	; (1390 <_ZN20USBDevice_SAMD21G18x9calibrateEv+0x54>)
    1340:	b570      	push	{r4, r5, r6, lr}
    1342:	681b      	ldr	r3, [r3, #0]
    1344:	0b59      	lsrs	r1, r3, #13
    1346:	0c9c      	lsrs	r4, r3, #18
    1348:	019b      	lsls	r3, r3, #6
    134a:	4011      	ands	r1, r2
    134c:	0f5b      	lsrs	r3, r3, #29
    134e:	4022      	ands	r2, r4
    1350:	291f      	cmp	r1, #31
    1352:	d100      	bne.n	1356 <_ZN20USBDevice_SAMD21G18x9calibrateEv+0x1a>
    1354:	391a      	subs	r1, #26
    1356:	2a1f      	cmp	r2, #31
    1358:	d100      	bne.n	135c <_ZN20USBDevice_SAMD21G18x9calibrateEv+0x20>
    135a:	3a02      	subs	r2, #2
    135c:	2b07      	cmp	r3, #7
    135e:	d100      	bne.n	1362 <_ZN20USBDevice_SAMD21G18x9calibrateEv+0x26>
    1360:	3b04      	subs	r3, #4
    1362:	251f      	movs	r5, #31
    1364:	6800      	ldr	r0, [r0, #0]
    1366:	018e      	lsls	r6, r1, #6
    1368:	8d04      	ldrh	r4, [r0, #40]	; 0x28
    136a:	490a      	ldr	r1, [pc, #40]	; (1394 <_ZN20USBDevice_SAMD21G18x9calibrateEv+0x58>)
    136c:	402a      	ands	r2, r5
    136e:	4021      	ands	r1, r4
    1370:	4331      	orrs	r1, r6
    1372:	8501      	strh	r1, [r0, #40]	; 0x28
    1374:	8d01      	ldrh	r1, [r0, #40]	; 0x28
    1376:	0014      	movs	r4, r2
    1378:	000a      	movs	r2, r1
    137a:	43aa      	bics	r2, r5
    137c:	4322      	orrs	r2, r4
    137e:	8502      	strh	r2, [r0, #40]	; 0x28
    1380:	8d02      	ldrh	r2, [r0, #40]	; 0x28
    1382:	0319      	lsls	r1, r3, #12
    1384:	4b04      	ldr	r3, [pc, #16]	; (1398 <_ZN20USBDevice_SAMD21G18x9calibrateEv+0x5c>)
    1386:	4013      	ands	r3, r2
    1388:	430b      	orrs	r3, r1
    138a:	8503      	strh	r3, [r0, #40]	; 0x28
    138c:	bd70      	pop	{r4, r5, r6, pc}
    138e:	46c0      	nop			; (mov r8, r8)
    1390:	00806024 	.word	0x00806024
    1394:	fffff83f 	.word	0xfffff83f
    1398:	ffff8fff 	.word	0xffff8fff

0000139c <_ZN7__GuardC1Ev>:
    139c:	f3ef 8310 	mrs	r3, PRIMASK
    13a0:	6003      	str	r3, [r0, #0]
    13a2:	2301      	movs	r3, #1
    13a4:	6043      	str	r3, [r0, #4]
  __ASM volatile ("cpsid i" : : : "memory");
    13a6:	b672      	cpsid	i
    13a8:	4770      	bx	lr

000013aa <_ZN7__GuardD1Ev>:
    13aa:	6803      	ldr	r3, [r0, #0]
    13ac:	2b00      	cmp	r3, #0
    13ae:	d102      	bne.n	13b6 <_ZN7__GuardD1Ev+0xc>
  __ASM volatile ("cpsie i" : : : "memory");
    13b0:	b662      	cpsie	i
  __ASM volatile ("isb 0xF":::"memory");
    13b2:	f3bf 8f6f 	isb	sy
    13b6:	4770      	bx	lr

000013b8 <_ZNK26DoubleBufferedEPOutHandler9availableEv>:
    13b8:	b537      	push	{r0, r1, r2, r4, r5, lr}
    13ba:	6905      	ldr	r5, [r0, #16]
    13bc:	0004      	movs	r4, r0
    13be:	4668      	mov	r0, sp
    13c0:	2d00      	cmp	r5, #0
    13c2:	d114      	bne.n	13ee <_ZNK26DoubleBufferedEPOutHandler9availableEv+0x36>
    13c4:	f7ff ffea 	bl	139c <_ZN7__GuardC1Ev>
    13c8:	9b01      	ldr	r3, [sp, #4]
    13ca:	1d62      	adds	r2, r4, #5
    13cc:	3b01      	subs	r3, #1
    13ce:	d302      	bcc.n	13d6 <_ZNK26DoubleBufferedEPOutHandler9availableEv+0x1e>
    13d0:	7fd5      	ldrb	r5, [r2, #31]
    13d2:	b2ed      	uxtb	r5, r5
    13d4:	e7fa      	b.n	13cc <_ZNK26DoubleBufferedEPOutHandler9availableEv+0x14>
    13d6:	4668      	mov	r0, sp
    13d8:	9301      	str	r3, [sp, #4]
    13da:	f7ff ffe6 	bl	13aa <_ZN7__GuardD1Ev>
    13de:	2d00      	cmp	r5, #0
    13e0:	d101      	bne.n	13e6 <_ZNK26DoubleBufferedEPOutHandler9availableEv+0x2e>
    13e2:	2000      	movs	r0, #0
    13e4:	bd3e      	pop	{r1, r2, r3, r4, r5, pc}
    13e6:	6a20      	ldr	r0, [r4, #32]
    13e8:	69e3      	ldr	r3, [r4, #28]
    13ea:	1ac0      	subs	r0, r0, r3
    13ec:	e7fa      	b.n	13e4 <_ZNK26DoubleBufferedEPOutHandler9availableEv+0x2c>
    13ee:	f7ff ffd5 	bl	139c <_ZN7__GuardC1Ev>
    13f2:	0022      	movs	r2, r4
    13f4:	2500      	movs	r5, #0
    13f6:	9b01      	ldr	r3, [sp, #4]
    13f8:	3234      	adds	r2, #52	; 0x34
    13fa:	3b01      	subs	r3, #1
    13fc:	d302      	bcc.n	1404 <_ZNK26DoubleBufferedEPOutHandler9availableEv+0x4c>
    13fe:	7815      	ldrb	r5, [r2, #0]
    1400:	b2ed      	uxtb	r5, r5
    1402:	e7fa      	b.n	13fa <_ZNK26DoubleBufferedEPOutHandler9availableEv+0x42>
    1404:	4668      	mov	r0, sp
    1406:	9301      	str	r3, [sp, #4]
    1408:	f7ff ffcf 	bl	13aa <_ZN7__GuardD1Ev>
    140c:	2d00      	cmp	r5, #0
    140e:	d0e8      	beq.n	13e2 <_ZNK26DoubleBufferedEPOutHandler9availableEv+0x2a>
    1410:	6b20      	ldr	r0, [r4, #48]	; 0x30
    1412:	6ae3      	ldr	r3, [r4, #44]	; 0x2c
    1414:	e7e9      	b.n	13ea <_ZNK26DoubleBufferedEPOutHandler9availableEv+0x32>
	...

00001418 <_ZN26DoubleBufferedEPOutHandler7releaseEv>:
    1418:	b5f0      	push	{r4, r5, r6, r7, lr}
    141a:	2501      	movs	r5, #1
    141c:	6846      	ldr	r6, [r0, #4]
    141e:	7a03      	ldrb	r3, [r0, #8]
    1420:	6831      	ldr	r1, [r6, #0]
    1422:	015a      	lsls	r2, r3, #5
    1424:	188c      	adds	r4, r1, r2
    1426:	34ff      	adds	r4, #255	; 0xff
    1428:	7aa7      	ldrb	r7, [r4, #10]
    142a:	18b2      	adds	r2, r6, r2
    142c:	433d      	orrs	r5, r7
    142e:	72a5      	strb	r5, [r4, #10]
    1430:	68c4      	ldr	r4, [r0, #12]
    1432:	4d09      	ldr	r5, [pc, #36]	; (1458 <_ZN26DoubleBufferedEPOutHandler7releaseEv+0x40>)
    1434:	6890      	ldr	r0, [r2, #8]
    1436:	04a4      	lsls	r4, r4, #18
    1438:	4028      	ands	r0, r5
    143a:	0924      	lsrs	r4, r4, #4
    143c:	4320      	orrs	r0, r4
    143e:	6090      	str	r0, [r2, #8]
    1440:	6890      	ldr	r0, [r2, #8]
    1442:	3308      	adds	r3, #8
    1444:	0b80      	lsrs	r0, r0, #14
    1446:	0380      	lsls	r0, r0, #14
    1448:	6090      	str	r0, [r2, #8]
    144a:	2240      	movs	r2, #64	; 0x40
    144c:	015b      	lsls	r3, r3, #5
    144e:	18cb      	adds	r3, r1, r3
    1450:	7919      	ldrb	r1, [r3, #4]
    1452:	430a      	orrs	r2, r1
    1454:	711a      	strb	r2, [r3, #4]
    1456:	bdf0      	pop	{r4, r5, r6, r7, pc}
    1458:	f0003fff 	.word	0xf0003fff

0000145c <_ZN26DoubleBufferedEPOutHandler4recvEPvm>:
    145c:	b5f7      	push	{r0, r1, r2, r4, r5, r6, r7, lr}
    145e:	6903      	ldr	r3, [r0, #16]
    1460:	0004      	movs	r4, r0
    1462:	000e      	movs	r6, r1
    1464:	0017      	movs	r7, r2
    1466:	4668      	mov	r0, sp
    1468:	2b00      	cmp	r3, #0
    146a:	d13d      	bne.n	14e8 <_ZN26DoubleBufferedEPOutHandler4recvEPvm+0x8c>
    146c:	f7ff ff96 	bl	139c <_ZN7__GuardC1Ev>
    1470:	9b01      	ldr	r3, [sp, #4]
    1472:	1d61      	adds	r1, r4, #5
    1474:	3b01      	subs	r3, #1
    1476:	1c5a      	adds	r2, r3, #1
    1478:	d00c      	beq.n	1494 <_ZN26DoubleBufferedEPOutHandler4recvEPvm+0x38>
    147a:	7fcd      	ldrb	r5, [r1, #31]
    147c:	1e5a      	subs	r2, r3, #1
    147e:	b2ed      	uxtb	r5, r5
    1480:	2d00      	cmp	r5, #0
    1482:	d105      	bne.n	1490 <_ZN26DoubleBufferedEPOutHandler4recvEPvm+0x34>
    1484:	4668      	mov	r0, sp
    1486:	9301      	str	r3, [sp, #4]
    1488:	f7ff ff8f 	bl	13aa <_ZN7__GuardD1Ev>
    148c:	0028      	movs	r0, r5
    148e:	bdfe      	pop	{r1, r2, r3, r4, r5, r6, r7, pc}
    1490:	0013      	movs	r3, r2
    1492:	e7f0      	b.n	1476 <_ZN26DoubleBufferedEPOutHandler4recvEPvm+0x1a>
    1494:	4668      	mov	r0, sp
    1496:	9301      	str	r3, [sp, #4]
    1498:	2500      	movs	r5, #0
    149a:	f7ff ff86 	bl	13aa <_ZN7__GuardD1Ev>
    149e:	69e3      	ldr	r3, [r4, #28]
    14a0:	42af      	cmp	r7, r5
    14a2:	d002      	beq.n	14aa <_ZN26DoubleBufferedEPOutHandler4recvEPvm+0x4e>
    14a4:	6a22      	ldr	r2, [r4, #32]
    14a6:	4293      	cmp	r3, r2
    14a8:	d357      	bcc.n	155a <_ZN26DoubleBufferedEPOutHandler4recvEPvm+0xfe>
    14aa:	6a22      	ldr	r2, [r4, #32]
    14ac:	4293      	cmp	r3, r2
    14ae:	d1ed      	bne.n	148c <_ZN26DoubleBufferedEPOutHandler4recvEPvm+0x30>
    14b0:	2300      	movs	r3, #0
    14b2:	61e3      	str	r3, [r4, #28]
    14b4:	3301      	adds	r3, #1
    14b6:	6123      	str	r3, [r4, #16]
    14b8:	4668      	mov	r0, sp
    14ba:	f7ff ff6f 	bl	139c <_ZN7__GuardC1Ev>
    14be:	0022      	movs	r2, r4
    14c0:	2100      	movs	r1, #0
    14c2:	9b01      	ldr	r3, [sp, #4]
    14c4:	1d67      	adds	r7, r4, #5
    14c6:	3b01      	subs	r3, #1
    14c8:	3235      	adds	r2, #53	; 0x35
    14ca:	1c58      	adds	r0, r3, #1
    14cc:	d0da      	beq.n	1484 <_ZN26DoubleBufferedEPOutHandler4recvEPvm+0x28>
    14ce:	77f9      	strb	r1, [r7, #31]
    14d0:	7810      	ldrb	r0, [r2, #0]
    14d2:	1e5e      	subs	r6, r3, #1
    14d4:	2800      	cmp	r0, #0
    14d6:	d005      	beq.n	14e4 <_ZN26DoubleBufferedEPOutHandler4recvEPvm+0x88>
    14d8:	7011      	strb	r1, [r2, #0]
    14da:	0020      	movs	r0, r4
    14dc:	9301      	str	r3, [sp, #4]
    14de:	f7ff ff9b 	bl	1418 <_ZN26DoubleBufferedEPOutHandler7releaseEv>
    14e2:	e7ec      	b.n	14be <_ZN26DoubleBufferedEPOutHandler4recvEPvm+0x62>
    14e4:	0033      	movs	r3, r6
    14e6:	e7f0      	b.n	14ca <_ZN26DoubleBufferedEPOutHandler4recvEPvm+0x6e>
    14e8:	f7ff ff58 	bl	139c <_ZN7__GuardC1Ev>
    14ec:	0021      	movs	r1, r4
    14ee:	9b01      	ldr	r3, [sp, #4]
    14f0:	3134      	adds	r1, #52	; 0x34
    14f2:	3b01      	subs	r3, #1
    14f4:	1c5a      	adds	r2, r3, #1
    14f6:	d006      	beq.n	1506 <_ZN26DoubleBufferedEPOutHandler4recvEPvm+0xaa>
    14f8:	780d      	ldrb	r5, [r1, #0]
    14fa:	1e5a      	subs	r2, r3, #1
    14fc:	b2ed      	uxtb	r5, r5
    14fe:	2d00      	cmp	r5, #0
    1500:	d0c0      	beq.n	1484 <_ZN26DoubleBufferedEPOutHandler4recvEPvm+0x28>
    1502:	0013      	movs	r3, r2
    1504:	e7f6      	b.n	14f4 <_ZN26DoubleBufferedEPOutHandler4recvEPvm+0x98>
    1506:	4668      	mov	r0, sp
    1508:	9301      	str	r3, [sp, #4]
    150a:	2500      	movs	r5, #0
    150c:	f7ff ff4d 	bl	13aa <_ZN7__GuardD1Ev>
    1510:	6ae3      	ldr	r3, [r4, #44]	; 0x2c
    1512:	42bd      	cmp	r5, r7
    1514:	d002      	beq.n	151c <_ZN26DoubleBufferedEPOutHandler4recvEPvm+0xc0>
    1516:	6b22      	ldr	r2, [r4, #48]	; 0x30
    1518:	4293      	cmp	r3, r2
    151a:	d326      	bcc.n	156a <_ZN26DoubleBufferedEPOutHandler4recvEPvm+0x10e>
    151c:	6b22      	ldr	r2, [r4, #48]	; 0x30
    151e:	4293      	cmp	r3, r2
    1520:	d1b4      	bne.n	148c <_ZN26DoubleBufferedEPOutHandler4recvEPvm+0x30>
    1522:	2300      	movs	r3, #0
    1524:	4668      	mov	r0, sp
    1526:	62e3      	str	r3, [r4, #44]	; 0x2c
    1528:	6123      	str	r3, [r4, #16]
    152a:	f7ff ff37 	bl	139c <_ZN7__GuardC1Ev>
    152e:	0027      	movs	r7, r4
    1530:	0022      	movs	r2, r4
    1532:	2100      	movs	r1, #0
    1534:	9b01      	ldr	r3, [sp, #4]
    1536:	3734      	adds	r7, #52	; 0x34
    1538:	3b01      	subs	r3, #1
    153a:	3235      	adds	r2, #53	; 0x35
    153c:	1c58      	adds	r0, r3, #1
    153e:	d0a1      	beq.n	1484 <_ZN26DoubleBufferedEPOutHandler4recvEPvm+0x28>
    1540:	7039      	strb	r1, [r7, #0]
    1542:	7810      	ldrb	r0, [r2, #0]
    1544:	1e5e      	subs	r6, r3, #1
    1546:	2800      	cmp	r0, #0
    1548:	d005      	beq.n	1556 <_ZN26DoubleBufferedEPOutHandler4recvEPvm+0xfa>
    154a:	7011      	strb	r1, [r2, #0]
    154c:	0020      	movs	r0, r4
    154e:	9301      	str	r3, [sp, #4]
    1550:	f7ff ff62 	bl	1418 <_ZN26DoubleBufferedEPOutHandler7releaseEv>
    1554:	e7eb      	b.n	152e <_ZN26DoubleBufferedEPOutHandler4recvEPvm+0xd2>
    1556:	0033      	movs	r3, r6
    1558:	e7f0      	b.n	153c <_ZN26DoubleBufferedEPOutHandler4recvEPvm+0xe0>
    155a:	1c5a      	adds	r2, r3, #1
    155c:	61e2      	str	r2, [r4, #28]
    155e:	69a2      	ldr	r2, [r4, #24]
    1560:	18d3      	adds	r3, r2, r3
    1562:	781b      	ldrb	r3, [r3, #0]
    1564:	5573      	strb	r3, [r6, r5]
    1566:	3501      	adds	r5, #1
    1568:	e799      	b.n	149e <_ZN26DoubleBufferedEPOutHandler4recvEPvm+0x42>
    156a:	1c5a      	adds	r2, r3, #1
    156c:	62e2      	str	r2, [r4, #44]	; 0x2c
    156e:	6aa2      	ldr	r2, [r4, #40]	; 0x28
    1570:	18d3      	adds	r3, r2, r3
    1572:	781b      	ldrb	r3, [r3, #0]
    1574:	5573      	strb	r3, [r6, r5]
    1576:	3501      	adds	r5, #1
    1578:	e7ca      	b.n	1510 <_ZN26DoubleBufferedEPOutHandler4recvEPvm+0xb4>

0000157a <_ZN26DoubleBufferedEPOutHandler14handleEndpointEv>:
    157a:	b5f7      	push	{r0, r1, r2, r4, r5, r6, r7, lr}
    157c:	7a02      	ldrb	r2, [r0, #8]
    157e:	6843      	ldr	r3, [r0, #4]
    1580:	0011      	movs	r1, r2
    1582:	0004      	movs	r4, r0
    1584:	3108      	adds	r1, #8
    1586:	6818      	ldr	r0, [r3, #0]
    1588:	0149      	lsls	r1, r1, #5
    158a:	1841      	adds	r1, r0, r1
    158c:	79c8      	ldrb	r0, [r1, #7]
    158e:	07c0      	lsls	r0, r0, #31
    1590:	d527      	bpl.n	15e2 <_ZN26DoubleBufferedEPOutHandler14handleEndpointEv+0x68>
    1592:	2501      	movs	r5, #1
    1594:	0152      	lsls	r2, r2, #5
    1596:	71cd      	strb	r5, [r1, #7]
    1598:	189b      	adds	r3, r3, r2
    159a:	689a      	ldr	r2, [r3, #8]
    159c:	6961      	ldr	r1, [r4, #20]
    159e:	0492      	lsls	r2, r2, #18
    15a0:	0c92      	lsrs	r2, r2, #18
    15a2:	2900      	cmp	r1, #0
    15a4:	d121      	bne.n	15ea <_ZN26DoubleBufferedEPOutHandler14handleEndpointEv+0x70>
    15a6:	6222      	str	r2, [r4, #32]
    15a8:	6a22      	ldr	r2, [r4, #32]
    15aa:	2a00      	cmp	r2, #0
    15ac:	d03e      	beq.n	162c <_ZN26DoubleBufferedEPOutHandler14handleEndpointEv+0xb2>
    15ae:	6aa2      	ldr	r2, [r4, #40]	; 0x28
    15b0:	6165      	str	r5, [r4, #20]
    15b2:	4668      	mov	r0, sp
    15b4:	605a      	str	r2, [r3, #4]
    15b6:	f7ff fef1 	bl	139c <_ZN7__GuardC1Ev>
    15ba:	0027      	movs	r7, r4
    15bc:	0021      	movs	r1, r4
    15be:	9b01      	ldr	r3, [sp, #4]
    15c0:	1d66      	adds	r6, r4, #5
    15c2:	3b01      	subs	r3, #1
    15c4:	3734      	adds	r7, #52	; 0x34
    15c6:	3135      	adds	r1, #53	; 0x35
    15c8:	1c5a      	adds	r2, r3, #1
    15ca:	d02b      	beq.n	1624 <_ZN26DoubleBufferedEPOutHandler14handleEndpointEv+0xaa>
    15cc:	77f5      	strb	r5, [r6, #31]
    15ce:	783a      	ldrb	r2, [r7, #0]
    15d0:	1e58      	subs	r0, r3, #1
    15d2:	b2d2      	uxtb	r2, r2
    15d4:	2a00      	cmp	r2, #0
    15d6:	d005      	beq.n	15e4 <_ZN26DoubleBufferedEPOutHandler14handleEndpointEv+0x6a>
    15d8:	9301      	str	r3, [sp, #4]
    15da:	4668      	mov	r0, sp
    15dc:	700d      	strb	r5, [r1, #0]
    15de:	f7ff fee4 	bl	13aa <_ZN7__GuardD1Ev>
    15e2:	bdf7      	pop	{r0, r1, r2, r4, r5, r6, r7, pc}
    15e4:	700a      	strb	r2, [r1, #0]
    15e6:	0003      	movs	r3, r0
    15e8:	e7ee      	b.n	15c8 <_ZN26DoubleBufferedEPOutHandler14handleEndpointEv+0x4e>
    15ea:	6322      	str	r2, [r4, #48]	; 0x30
    15ec:	6b22      	ldr	r2, [r4, #48]	; 0x30
    15ee:	2a00      	cmp	r2, #0
    15f0:	d01c      	beq.n	162c <_ZN26DoubleBufferedEPOutHandler14handleEndpointEv+0xb2>
    15f2:	2200      	movs	r2, #0
    15f4:	6162      	str	r2, [r4, #20]
    15f6:	69a2      	ldr	r2, [r4, #24]
    15f8:	4668      	mov	r0, sp
    15fa:	605a      	str	r2, [r3, #4]
    15fc:	f7ff fece 	bl	139c <_ZN7__GuardC1Ev>
    1600:	0026      	movs	r6, r4
    1602:	0021      	movs	r1, r4
    1604:	9b01      	ldr	r3, [sp, #4]
    1606:	3634      	adds	r6, #52	; 0x34
    1608:	3b01      	subs	r3, #1
    160a:	1d67      	adds	r7, r4, #5
    160c:	3135      	adds	r1, #53	; 0x35
    160e:	1c5a      	adds	r2, r3, #1
    1610:	d008      	beq.n	1624 <_ZN26DoubleBufferedEPOutHandler14handleEndpointEv+0xaa>
    1612:	7035      	strb	r5, [r6, #0]
    1614:	7ffa      	ldrb	r2, [r7, #31]
    1616:	1e58      	subs	r0, r3, #1
    1618:	b2d2      	uxtb	r2, r2
    161a:	2a00      	cmp	r2, #0
    161c:	d1dc      	bne.n	15d8 <_ZN26DoubleBufferedEPOutHandler14handleEndpointEv+0x5e>
    161e:	700a      	strb	r2, [r1, #0]
    1620:	0003      	movs	r3, r0
    1622:	e7f4      	b.n	160e <_ZN26DoubleBufferedEPOutHandler14handleEndpointEv+0x94>
    1624:	4668      	mov	r0, sp
    1626:	9301      	str	r3, [sp, #4]
    1628:	f7ff febf 	bl	13aa <_ZN7__GuardD1Ev>
    162c:	0020      	movs	r0, r4
    162e:	f7ff fef3 	bl	1418 <_ZN26DoubleBufferedEPOutHandler7releaseEv>
    1632:	e7d6      	b.n	15e2 <_ZN26DoubleBufferedEPOutHandler14handleEndpointEv+0x68>

00001634 <_ZN14USBDeviceClass14SendInterfacesEPm>:
    1634:	b537      	push	{r0, r1, r2, r4, r5, lr}
    1636:	466b      	mov	r3, sp
    1638:	1ddc      	adds	r4, r3, #7
    163a:	2300      	movs	r3, #0
    163c:	000d      	movs	r5, r1
    163e:	0020      	movs	r0, r4
    1640:	7023      	strb	r3, [r4, #0]
    1642:	f004 f877 	bl	5734 <_Z16CDC_GetInterfacePh>
    1646:	682b      	ldr	r3, [r5, #0]
    1648:	1818      	adds	r0, r3, r0
    164a:	6028      	str	r0, [r5, #0]
    164c:	f004 f916 	bl	587c <_Z12PluggableUSBv>
    1650:	0021      	movs	r1, r4
    1652:	f004 f8cf 	bl	57f4 <_ZN13PluggableUSB_12getInterfaceEPh>
    1656:	682b      	ldr	r3, [r5, #0]
    1658:	1818      	adds	r0, r3, r0
    165a:	6028      	str	r0, [r5, #0]
    165c:	7820      	ldrb	r0, [r4, #0]
    165e:	bd3e      	pop	{r1, r2, r3, r4, r5, pc}

00001660 <_ZN14USBDeviceClass14handleEndpointEh>:
    1660:	2903      	cmp	r1, #3
    1662:	d10e      	bne.n	1682 <_ZN14USBDeviceClass14handleEndpointEh+0x22>
    1664:	2280      	movs	r2, #128	; 0x80
    1666:	4b0e      	ldr	r3, [pc, #56]	; (16a0 <_ZN14USBDeviceClass14handleEndpointEh+0x40>)
    1668:	3162      	adds	r1, #98	; 0x62
    166a:	681b      	ldr	r3, [r3, #0]
    166c:	31ff      	adds	r1, #255	; 0xff
    166e:	5c58      	ldrb	r0, [r3, r1]
    1670:	4252      	negs	r2, r2
    1672:	4302      	orrs	r2, r0
    1674:	545a      	strb	r2, [r3, r1]
    1676:	2268      	movs	r2, #104	; 0x68
    1678:	3963      	subs	r1, #99	; 0x63
    167a:	39ff      	subs	r1, #255	; 0xff
    167c:	32ff      	adds	r2, #255	; 0xff
    167e:	5499      	strb	r1, [r3, r2]
    1680:	4770      	bx	lr
    1682:	2901      	cmp	r1, #1
    1684:	d1fc      	bne.n	1680 <_ZN14USBDeviceClass14handleEndpointEh+0x20>
    1686:	2280      	movs	r2, #128	; 0x80
    1688:	4b05      	ldr	r3, [pc, #20]	; (16a0 <_ZN14USBDeviceClass14handleEndpointEh+0x40>)
    168a:	3124      	adds	r1, #36	; 0x24
    168c:	681b      	ldr	r3, [r3, #0]
    168e:	31ff      	adds	r1, #255	; 0xff
    1690:	5c58      	ldrb	r0, [r3, r1]
    1692:	4252      	negs	r2, r2
    1694:	4302      	orrs	r2, r0
    1696:	545a      	strb	r2, [r3, r1]
    1698:	3923      	subs	r1, #35	; 0x23
    169a:	39ff      	subs	r1, #255	; 0xff
    169c:	2228      	movs	r2, #40	; 0x28
    169e:	e7ed      	b.n	167c <_ZN14USBDeviceClass14handleEndpointEh+0x1c>
    16a0:	20000680 	.word	0x20000680

000016a4 <_ZN14USBDeviceClass4initEv>:
    16a4:	b570      	push	{r4, r5, r6, lr}
    16a6:	2500      	movs	r5, #0
    16a8:	4b2f      	ldr	r3, [pc, #188]	; (1768 <_ZN14USBDeviceClass4initEv+0xc4>)
    16aa:	2101      	movs	r1, #1
    16ac:	0004      	movs	r4, r0
    16ae:	201f      	movs	r0, #31
    16b0:	701d      	strb	r5, [r3, #0]
    16b2:	f000 fe11 	bl	22d8 <pinMode>
    16b6:	2101      	movs	r1, #1
    16b8:	201f      	movs	r0, #31
    16ba:	f000 fe59 	bl	2370 <digitalWrite>
    16be:	4b2b      	ldr	r3, [pc, #172]	; (176c <_ZN14USBDeviceClass4initEv+0xc8>)
    16c0:	2101      	movs	r1, #1
    16c2:	201e      	movs	r0, #30
    16c4:	701d      	strb	r5, [r3, #0]
    16c6:	f000 fe07 	bl	22d8 <pinMode>
    16ca:	2101      	movs	r1, #1
    16cc:	201e      	movs	r0, #30
    16ce:	f000 fe4f 	bl	2370 <digitalWrite>
    16d2:	2320      	movs	r3, #32
    16d4:	4a26      	ldr	r2, [pc, #152]	; (1770 <_ZN14USBDeviceClass4initEv+0xcc>)
    16d6:	200f      	movs	r0, #15
    16d8:	69d1      	ldr	r1, [r2, #28]
    16da:	430b      	orrs	r3, r1
    16dc:	61d3      	str	r3, [r2, #28]
    16de:	2201      	movs	r2, #1
    16e0:	4924      	ldr	r1, [pc, #144]	; (1774 <_ZN14USBDeviceClass4initEv+0xd0>)
    16e2:	780b      	ldrb	r3, [r1, #0]
    16e4:	4313      	orrs	r3, r2
    16e6:	700b      	strb	r3, [r1, #0]
    16e8:	4b23      	ldr	r3, [pc, #140]	; (1778 <_ZN14USBDeviceClass4initEv+0xd4>)
    16ea:	7819      	ldrb	r1, [r3, #0]
    16ec:	4381      	bics	r1, r0
    16ee:	7019      	strb	r1, [r3, #0]
    16f0:	2106      	movs	r1, #6
    16f2:	781d      	ldrb	r5, [r3, #0]
    16f4:	4329      	orrs	r1, r5
    16f6:	7019      	strb	r1, [r3, #0]
    16f8:	4920      	ldr	r1, [pc, #128]	; (177c <_ZN14USBDeviceClass4initEv+0xd8>)
    16fa:	780d      	ldrb	r5, [r1, #0]
    16fc:	432a      	orrs	r2, r5
    16fe:	700a      	strb	r2, [r1, #0]
    1700:	781a      	ldrb	r2, [r3, #0]
    1702:	4002      	ands	r2, r0
    1704:	701a      	strb	r2, [r3, #0]
    1706:	2260      	movs	r2, #96	; 0x60
    1708:	7819      	ldrb	r1, [r3, #0]
    170a:	430a      	orrs	r2, r1
    170c:	701a      	strb	r2, [r3, #0]
    170e:	4b1c      	ldr	r3, [pc, #112]	; (1780 <_ZN14USBDeviceClass4initEv+0xdc>)
    1710:	4a1c      	ldr	r2, [pc, #112]	; (1784 <_ZN14USBDeviceClass4initEv+0xe0>)
    1712:	805a      	strh	r2, [r3, #2]
    1714:	785a      	ldrb	r2, [r3, #1]
    1716:	09d2      	lsrs	r2, r2, #7
    1718:	d1fc      	bne.n	1714 <_ZN14USBDeviceClass4initEv+0x70>
    171a:	481b      	ldr	r0, [pc, #108]	; (1788 <_ZN14USBDeviceClass4initEv+0xe4>)
    171c:	f7ff f97c 	bl	a18 <USB_SetHandler>
    1720:	4d1a      	ldr	r5, [pc, #104]	; (178c <_ZN14USBDeviceClass4initEv+0xe8>)
    1722:	0028      	movs	r0, r5
    1724:	f7ff fdf8 	bl	1318 <_ZN20USBDevice_SAMD21G18x5resetEv>
    1728:	0028      	movs	r0, r5
    172a:	f7ff fe07 	bl	133c <_ZN20USBDevice_SAMD21G18x9calibrateEv>
    172e:	217f      	movs	r1, #127	; 0x7f
    1730:	682b      	ldr	r3, [r5, #0]
    NVIC->IP[_IP_IDX(IRQn)]  = ((uint32_t)(NVIC->IP[_IP_IDX(IRQn)]  & ~(0xFFUL << _BIT_SHIFT(IRQn))) |
    1732:	20c1      	movs	r0, #193	; 0xc1
    1734:	781a      	ldrb	r2, [r3, #0]
    1736:	0080      	lsls	r0, r0, #2
    1738:	400a      	ands	r2, r1
    173a:	701a      	strb	r2, [r3, #0]
    173c:	2204      	movs	r2, #4
    173e:	7819      	ldrb	r1, [r3, #0]
    1740:	430a      	orrs	r2, r1
    1742:	210c      	movs	r1, #12
    1744:	701a      	strb	r2, [r3, #0]
    1746:	891a      	ldrh	r2, [r3, #8]
    1748:	438a      	bics	r2, r1
    174a:	4911      	ldr	r1, [pc, #68]	; (1790 <_ZN14USBDeviceClass4initEv+0xec>)
    174c:	811a      	strh	r2, [r3, #8]
    174e:	580a      	ldr	r2, [r1, r0]
    1750:	0212      	lsls	r2, r2, #8
    1752:	0a12      	lsrs	r2, r2, #8
    1754:	500a      	str	r2, [r1, r0]
    NVIC->ISER[0U] = (uint32_t)(1UL << (((uint32_t)(int32_t)IRQn) & 0x1FUL));
    1756:	2280      	movs	r2, #128	; 0x80
    1758:	600a      	str	r2, [r1, #0]
    175a:	7819      	ldrb	r1, [r3, #0]
    175c:	3a7e      	subs	r2, #126	; 0x7e
    175e:	430a      	orrs	r2, r1
    1760:	701a      	strb	r2, [r3, #0]
    1762:	2301      	movs	r3, #1
    1764:	7023      	strb	r3, [r4, #0]
    1766:	bd70      	pop	{r4, r5, r6, pc}
    1768:	200001e9 	.word	0x200001e9
    176c:	200001e8 	.word	0x200001e8
    1770:	40000400 	.word	0x40000400
    1774:	41004458 	.word	0x41004458
    1778:	4100443c 	.word	0x4100443c
    177c:	41004459 	.word	0x41004459
    1780:	40000c00 	.word	0x40000c00
    1784:	00004006 	.word	0x00004006
    1788:	00002165 	.word	0x00002165
    178c:	20000680 	.word	0x20000680
    1790:	e000e100 	.word	0xe000e100

00001794 <_ZN14USBDeviceClass6attachEv>:
    1794:	7800      	ldrb	r0, [r0, #0]
    1796:	2800      	cmp	r0, #0
    1798:	d010      	beq.n	17bc <_ZN14USBDeviceClass6attachEv+0x28>
    179a:	2101      	movs	r1, #1
    179c:	4b08      	ldr	r3, [pc, #32]	; (17c0 <_ZN14USBDeviceClass6attachEv+0x2c>)
    179e:	681b      	ldr	r3, [r3, #0]
    17a0:	891a      	ldrh	r2, [r3, #8]
    17a2:	438a      	bics	r2, r1
    17a4:	811a      	strh	r2, [r3, #8]
    17a6:	2208      	movs	r2, #8
    17a8:	8b19      	ldrh	r1, [r3, #24]
    17aa:	430a      	orrs	r2, r1
    17ac:	831a      	strh	r2, [r3, #24]
    17ae:	2204      	movs	r2, #4
    17b0:	8b19      	ldrh	r1, [r3, #24]
    17b2:	430a      	orrs	r2, r1
    17b4:	831a      	strh	r2, [r3, #24]
    17b6:	2200      	movs	r2, #0
    17b8:	4b02      	ldr	r3, [pc, #8]	; (17c4 <_ZN14USBDeviceClass6attachEv+0x30>)
    17ba:	601a      	str	r2, [r3, #0]
    17bc:	4770      	bx	lr
    17be:	46c0      	nop			; (mov r8, r8)
    17c0:	20000680 	.word	0x20000680
    17c4:	20000678 	.word	0x20000678

000017c8 <_ZN14USBDeviceClass10setAddressEm>:
    17c8:	b510      	push	{r4, lr}
    17ca:	4a0f      	ldr	r2, [pc, #60]	; (1808 <_ZN14USBDeviceClass10setAddressEm+0x40>)
    17cc:	6993      	ldr	r3, [r2, #24]
    17ce:	0b9b      	lsrs	r3, r3, #14
    17d0:	039b      	lsls	r3, r3, #14
    17d2:	6193      	str	r3, [r2, #24]
    17d4:	6813      	ldr	r3, [r2, #0]
    17d6:	2202      	movs	r2, #2
    17d8:	33ff      	adds	r3, #255	; 0xff
    17da:	721a      	strb	r2, [r3, #8]
    17dc:	7998      	ldrb	r0, [r3, #6]
    17de:	3a82      	subs	r2, #130	; 0x82
    17e0:	4302      	orrs	r2, r0
    17e2:	719a      	strb	r2, [r3, #6]
    17e4:	7a1a      	ldrb	r2, [r3, #8]
    17e6:	0792      	lsls	r2, r2, #30
    17e8:	d5fc      	bpl.n	17e4 <_ZN14USBDeviceClass10setAddressEm+0x1c>
    17ea:	247f      	movs	r4, #127	; 0x7f
    17ec:	4a07      	ldr	r2, [pc, #28]	; (180c <_ZN14USBDeviceClass10setAddressEm+0x44>)
    17ee:	4021      	ands	r1, r4
    17f0:	7a93      	ldrb	r3, [r2, #10]
    17f2:	0008      	movs	r0, r1
    17f4:	43a3      	bics	r3, r4
    17f6:	0019      	movs	r1, r3
    17f8:	2380      	movs	r3, #128	; 0x80
    17fa:	4301      	orrs	r1, r0
    17fc:	7291      	strb	r1, [r2, #10]
    17fe:	7a91      	ldrb	r1, [r2, #10]
    1800:	425b      	negs	r3, r3
    1802:	430b      	orrs	r3, r1
    1804:	7293      	strb	r3, [r2, #10]
    1806:	bd10      	pop	{r4, pc}
    1808:	20000680 	.word	0x20000680
    180c:	41005000 	.word	0x41005000

00001810 <_ZN14USBDeviceClass25handleClassInterfaceSetupER8USBSetup>:
    1810:	b510      	push	{r4, lr}
    1812:	790b      	ldrb	r3, [r1, #4]
    1814:	000c      	movs	r4, r1
    1816:	2b00      	cmp	r3, #0
    1818:	d10c      	bne.n	1834 <_ZN14USBDeviceClass25handleClassInterfaceSetupER8USBSetup+0x24>
    181a:	0008      	movs	r0, r1
    181c:	f003 ff98 	bl	5750 <_Z9CDC_SetupR8USBSetup>
    1820:	2800      	cmp	r0, #0
    1822:	d001      	beq.n	1828 <_ZN14USBDeviceClass25handleClassInterfaceSetupER8USBSetup+0x18>
    1824:	2001      	movs	r0, #1
    1826:	bd10      	pop	{r4, pc}
    1828:	4a09      	ldr	r2, [pc, #36]	; (1850 <_ZN14USBDeviceClass25handleClassInterfaceSetupER8USBSetup+0x40>)
    182a:	6993      	ldr	r3, [r2, #24]
    182c:	0b9b      	lsrs	r3, r3, #14
    182e:	039b      	lsls	r3, r3, #14
    1830:	6193      	str	r3, [r2, #24]
    1832:	e7f7      	b.n	1824 <_ZN14USBDeviceClass25handleClassInterfaceSetupER8USBSetup+0x14>
    1834:	f004 f822 	bl	587c <_Z12PluggableUSBv>
    1838:	0021      	movs	r1, r4
    183a:	f004 f80e 	bl	585a <_ZN13PluggableUSB_5setupER8USBSetup>
    183e:	2800      	cmp	r0, #0
    1840:	d1f0      	bne.n	1824 <_ZN14USBDeviceClass25handleClassInterfaceSetupER8USBSetup+0x14>
    1842:	4a03      	ldr	r2, [pc, #12]	; (1850 <_ZN14USBDeviceClass25handleClassInterfaceSetupER8USBSetup+0x40>)
    1844:	6993      	ldr	r3, [r2, #24]
    1846:	0b9b      	lsrs	r3, r3, #14
    1848:	039b      	lsls	r3, r3, #14
    184a:	6193      	str	r3, [r2, #24]
    184c:	e7eb      	b.n	1826 <_ZN14USBDeviceClass25handleClassInterfaceSetupER8USBSetup+0x16>
    184e:	46c0      	nop			; (mov r8, r8)
    1850:	20000680 	.word	0x20000680

00001854 <_ZN14USBDeviceClass6initEPEmm>:
    1854:	b5f7      	push	{r0, r1, r2, r4, r5, r6, r7, lr}
    1856:	000d      	movs	r5, r1
    1858:	2a83      	cmp	r2, #131	; 0x83
    185a:	d119      	bne.n	1890 <_ZN14USBDeviceClass6initEPEmm+0x3c>
    185c:	b2cb      	uxtb	r3, r1
    185e:	4c32      	ldr	r4, [pc, #200]	; (1928 <_ZN14USBDeviceClass6initEPEmm+0xd4>)
    1860:	015a      	lsls	r2, r3, #5
    1862:	18a2      	adds	r2, r4, r2
    1864:	6991      	ldr	r1, [r2, #24]
    1866:	4831      	ldr	r0, [pc, #196]	; (192c <_ZN14USBDeviceClass6initEPEmm+0xd8>)
    1868:	01ad      	lsls	r5, r5, #6
    186a:	4008      	ands	r0, r1
    186c:	21c0      	movs	r1, #192	; 0xc0
    186e:	0589      	lsls	r1, r1, #22
    1870:	4301      	orrs	r1, r0
    1872:	6191      	str	r1, [r2, #24]
    1874:	492e      	ldr	r1, [pc, #184]	; (1930 <_ZN14USBDeviceClass6initEPEmm+0xdc>)
    1876:	6820      	ldr	r0, [r4, #0]
    1878:	194d      	adds	r5, r1, r5
    187a:	2170      	movs	r1, #112	; 0x70
    187c:	3308      	adds	r3, #8
    187e:	6155      	str	r5, [r2, #20]
    1880:	015b      	lsls	r3, r3, #5
    1882:	5c1a      	ldrb	r2, [r3, r0]
    1884:	438a      	bics	r2, r1
    1886:	0011      	movs	r1, r2
    1888:	2240      	movs	r2, #64	; 0x40
    188a:	430a      	orrs	r2, r1
    188c:	541a      	strb	r2, [r3, r0]
    188e:	bdf7      	pop	{r0, r1, r2, r4, r5, r6, r7, pc}
    1890:	2a02      	cmp	r2, #2
    1892:	d144      	bne.n	191e <_ZN14USBDeviceClass6initEPEmm+0xca>
    1894:	008b      	lsls	r3, r1, #2
    1896:	9301      	str	r3, [sp, #4]
    1898:	4b26      	ldr	r3, [pc, #152]	; (1934 <_ZN14USBDeviceClass6initEPEmm+0xe0>)
    189a:	008a      	lsls	r2, r1, #2
    189c:	58d6      	ldr	r6, [r2, r3]
    189e:	2e00      	cmp	r6, #0
    18a0:	d1f5      	bne.n	188e <_ZN14USBDeviceClass6initEPEmm+0x3a>
    18a2:	2038      	movs	r0, #56	; 0x38
    18a4:	f003 fca5 	bl	51f2 <_Znwj>
    18a8:	4b23      	ldr	r3, [pc, #140]	; (1938 <_ZN14USBDeviceClass6initEPEmm+0xe4>)
    18aa:	4f1f      	ldr	r7, [pc, #124]	; (1928 <_ZN14USBDeviceClass6initEPEmm+0xd4>)
    18ac:	6003      	str	r3, [r0, #0]
    18ae:	2380      	movs	r3, #128	; 0x80
    18b0:	005b      	lsls	r3, r3, #1
    18b2:	60c3      	str	r3, [r0, #12]
    18b4:	1d43      	adds	r3, r0, #5
    18b6:	6206      	str	r6, [r0, #32]
    18b8:	6085      	str	r5, [r0, #8]
    18ba:	6106      	str	r6, [r0, #16]
    18bc:	6146      	str	r6, [r0, #20]
    18be:	61c6      	str	r6, [r0, #28]
    18c0:	0004      	movs	r4, r0
    18c2:	6047      	str	r7, [r0, #4]
    18c4:	77de      	strb	r6, [r3, #31]
    18c6:	62c6      	str	r6, [r0, #44]	; 0x2c
    18c8:	6306      	str	r6, [r0, #48]	; 0x30
    18ca:	2080      	movs	r0, #128	; 0x80
    18cc:	332f      	adds	r3, #47	; 0x2f
    18ce:	701e      	strb	r6, [r3, #0]
    18d0:	0040      	lsls	r0, r0, #1
    18d2:	705e      	strb	r6, [r3, #1]
    18d4:	f004 f988 	bl	5be8 <malloc>
    18d8:	0006      	movs	r6, r0
    18da:	61a0      	str	r0, [r4, #24]
    18dc:	2080      	movs	r0, #128	; 0x80
    18de:	0040      	lsls	r0, r0, #1
    18e0:	f004 f982 	bl	5be8 <malloc>
    18e4:	b2ed      	uxtb	r5, r5
    18e6:	016b      	lsls	r3, r5, #5
    18e8:	62a0      	str	r0, [r4, #40]	; 0x28
    18ea:	18fb      	adds	r3, r7, r3
    18ec:	689a      	ldr	r2, [r3, #8]
    18ee:	490f      	ldr	r1, [pc, #60]	; (192c <_ZN14USBDeviceClass6initEPEmm+0xd8>)
    18f0:	2007      	movs	r0, #7
    18f2:	4011      	ands	r1, r2
    18f4:	22c0      	movs	r2, #192	; 0xc0
    18f6:	0592      	lsls	r2, r2, #22
    18f8:	430a      	orrs	r2, r1
    18fa:	609a      	str	r2, [r3, #8]
    18fc:	683a      	ldr	r2, [r7, #0]
    18fe:	3508      	adds	r5, #8
    1900:	016d      	lsls	r5, r5, #5
    1902:	5ca9      	ldrb	r1, [r5, r2]
    1904:	4381      	bics	r1, r0
    1906:	0008      	movs	r0, r1
    1908:	2103      	movs	r1, #3
    190a:	4301      	orrs	r1, r0
    190c:	54a9      	strb	r1, [r5, r2]
    190e:	0020      	movs	r0, r4
    1910:	605e      	str	r6, [r3, #4]
    1912:	f7ff fd81 	bl	1418 <_ZN26DoubleBufferedEPOutHandler7releaseEv>
    1916:	4b07      	ldr	r3, [pc, #28]	; (1934 <_ZN14USBDeviceClass6initEPEmm+0xe0>)
    1918:	9a01      	ldr	r2, [sp, #4]
    191a:	50d4      	str	r4, [r2, r3]
    191c:	e7b7      	b.n	188e <_ZN14USBDeviceClass6initEPEmm+0x3a>
    191e:	0011      	movs	r1, r2
    1920:	0028      	movs	r0, r5
    1922:	f7ff fc91 	bl	1248 <_ZN14USBDeviceClass6initEPEmm.part.5>
    1926:	e7b2      	b.n	188e <_ZN14USBDeviceClass6initEPEmm+0x3a>
    1928:	20000680 	.word	0x20000680
    192c:	8fffffff 	.word	0x8fffffff
    1930:	200001f4 	.word	0x200001f4
    1934:	200001cc 	.word	0x200001cc
    1938:	00006074 	.word	0x00006074

0000193c <_ZN14USBDeviceClass13initEndpointsEv>:
    193c:	b570      	push	{r4, r5, r6, lr}
    193e:	0005      	movs	r5, r0
    1940:	2401      	movs	r4, #1
    1942:	4b06      	ldr	r3, [pc, #24]	; (195c <_ZN14USBDeviceClass13initEndpointsEv+0x20>)
    1944:	00a2      	lsls	r2, r4, #2
    1946:	58d2      	ldr	r2, [r2, r3]
    1948:	2a00      	cmp	r2, #0
    194a:	d005      	beq.n	1958 <_ZN14USBDeviceClass13initEndpointsEv+0x1c>
    194c:	0021      	movs	r1, r4
    194e:	0028      	movs	r0, r5
    1950:	f7ff ff80 	bl	1854 <_ZN14USBDeviceClass6initEPEmm>
    1954:	3401      	adds	r4, #1
    1956:	e7f4      	b.n	1942 <_ZN14USBDeviceClass13initEndpointsEv+0x6>
    1958:	bd70      	pop	{r4, r5, r6, pc}
    195a:	46c0      	nop			; (mov r8, r8)
    195c:	2000001c 	.word	0x2000001c

00001960 <_ZN14USBDeviceClass9availableEm>:
    1960:	4b08      	ldr	r3, [pc, #32]	; (1984 <_ZN14USBDeviceClass9availableEm+0x24>)
    1962:	008a      	lsls	r2, r1, #2
    1964:	58d0      	ldr	r0, [r2, r3]
    1966:	b510      	push	{r4, lr}
    1968:	2800      	cmp	r0, #0
    196a:	d003      	beq.n	1974 <_ZN14USBDeviceClass9availableEm+0x14>
    196c:	6803      	ldr	r3, [r0, #0]
    196e:	689b      	ldr	r3, [r3, #8]
    1970:	4798      	blx	r3
    1972:	bd10      	pop	{r4, pc}
    1974:	b2c9      	uxtb	r1, r1
    1976:	4b04      	ldr	r3, [pc, #16]	; (1988 <_ZN14USBDeviceClass9availableEm+0x28>)
    1978:	0149      	lsls	r1, r1, #5
    197a:	1859      	adds	r1, r3, r1
    197c:	6888      	ldr	r0, [r1, #8]
    197e:	0480      	lsls	r0, r0, #18
    1980:	0c80      	lsrs	r0, r0, #18
    1982:	e7f6      	b.n	1972 <_ZN14USBDeviceClass9availableEm+0x12>
    1984:	200001cc 	.word	0x200001cc
    1988:	20000680 	.word	0x20000680

0000198c <_ZN14USBDeviceClass5flushEm>:
    198c:	b510      	push	{r4, lr}
    198e:	000c      	movs	r4, r1
    1990:	f7ff ffe6 	bl	1960 <_ZN14USBDeviceClass9availableEm>
    1994:	2800      	cmp	r0, #0
    1996:	d00c      	beq.n	19b2 <_ZN14USBDeviceClass5flushEm+0x26>
    1998:	4b06      	ldr	r3, [pc, #24]	; (19b4 <_ZN14USBDeviceClass5flushEm+0x28>)
    199a:	b2e4      	uxtb	r4, r4
    199c:	681b      	ldr	r3, [r3, #0]
    199e:	3408      	adds	r4, #8
    19a0:	0164      	lsls	r4, r4, #5
    19a2:	191c      	adds	r4, r3, r4
    19a4:	2380      	movs	r3, #128	; 0x80
    19a6:	7962      	ldrb	r2, [r4, #5]
    19a8:	425b      	negs	r3, r3
    19aa:	4313      	orrs	r3, r2
    19ac:	7163      	strb	r3, [r4, #5]
    19ae:	2302      	movs	r3, #2
    19b0:	71e3      	strb	r3, [r4, #7]
    19b2:	bd10      	pop	{r4, pc}
    19b4:	20000680 	.word	0x20000680

000019b8 <_ZN14USBDeviceClass14armRecvCtrlOUTEm>:
    19b8:	b570      	push	{r4, r5, r6, lr}
    19ba:	4b13      	ldr	r3, [pc, #76]	; (1a08 <_ZN14USBDeviceClass14armRecvCtrlOUTEm+0x50>)
    19bc:	b2cc      	uxtb	r4, r1
    19be:	4a13      	ldr	r2, [pc, #76]	; (1a0c <_ZN14USBDeviceClass14armRecvCtrlOUTEm+0x54>)
    19c0:	0160      	lsls	r0, r4, #5
    19c2:	0189      	lsls	r1, r1, #6
    19c4:	1859      	adds	r1, r3, r1
    19c6:	1813      	adds	r3, r2, r0
    19c8:	6059      	str	r1, [r3, #4]
    19ca:	6899      	ldr	r1, [r3, #8]
    19cc:	4d10      	ldr	r5, [pc, #64]	; (1a10 <_ZN14USBDeviceClass14armRecvCtrlOUTEm+0x58>)
    19ce:	3408      	adds	r4, #8
    19d0:	400d      	ands	r5, r1
    19d2:	2180      	movs	r1, #128	; 0x80
    19d4:	0289      	lsls	r1, r1, #10
    19d6:	4329      	orrs	r1, r5
    19d8:	2540      	movs	r5, #64	; 0x40
    19da:	6099      	str	r1, [r3, #8]
    19dc:	6899      	ldr	r1, [r3, #8]
    19de:	0b89      	lsrs	r1, r1, #14
    19e0:	0389      	lsls	r1, r1, #14
    19e2:	6099      	str	r1, [r3, #8]
    19e4:	6811      	ldr	r1, [r2, #0]
    19e6:	0163      	lsls	r3, r4, #5
    19e8:	18cb      	adds	r3, r1, r3
    19ea:	791e      	ldrb	r6, [r3, #4]
    19ec:	4335      	orrs	r5, r6
    19ee:	711d      	strb	r5, [r3, #4]
    19f0:	799d      	ldrb	r5, [r3, #6]
    19f2:	066d      	lsls	r5, r5, #25
    19f4:	d5fc      	bpl.n	19f0 <_ZN14USBDeviceClass14armRecvCtrlOUTEm+0x38>
    19f6:	0164      	lsls	r4, r4, #5
    19f8:	1909      	adds	r1, r1, r4
    19fa:	79cb      	ldrb	r3, [r1, #7]
    19fc:	07db      	lsls	r3, r3, #31
    19fe:	d5fc      	bpl.n	19fa <_ZN14USBDeviceClass14armRecvCtrlOUTEm+0x42>
    1a00:	1812      	adds	r2, r2, r0
    1a02:	6890      	ldr	r0, [r2, #8]
    1a04:	b2c0      	uxtb	r0, r0
    1a06:	bd70      	pop	{r4, r5, r6, pc}
    1a08:	200003b4 	.word	0x200003b4
    1a0c:	20000680 	.word	0x20000680
    1a10:	f0003fff 	.word	0xf0003fff

00001a14 <_ZN14USBDeviceClass11recvControlEPvm>:
    1a14:	b570      	push	{r4, r5, r6, lr}
    1a16:	0014      	movs	r4, r2
    1a18:	2240      	movs	r2, #64	; 0x40
    1a1a:	4b0b      	ldr	r3, [pc, #44]	; (1a48 <_ZN14USBDeviceClass11recvControlEPvm+0x34>)
    1a1c:	000d      	movs	r5, r1
    1a1e:	681b      	ldr	r3, [r3, #0]
    1a20:	33ff      	adds	r3, #255	; 0xff
    1a22:	7959      	ldrb	r1, [r3, #5]
    1a24:	430a      	orrs	r2, r1
    1a26:	715a      	strb	r2, [r3, #5]
    1a28:	2100      	movs	r1, #0
    1a2a:	f7ff ffc5 	bl	19b8 <_ZN14USBDeviceClass14armRecvCtrlOUTEm>
    1a2e:	42a0      	cmp	r0, r4
    1a30:	d900      	bls.n	1a34 <_ZN14USBDeviceClass11recvControlEPvm+0x20>
    1a32:	0020      	movs	r0, r4
    1a34:	2300      	movs	r3, #0
    1a36:	4905      	ldr	r1, [pc, #20]	; (1a4c <_ZN14USBDeviceClass11recvControlEPvm+0x38>)
    1a38:	42a3      	cmp	r3, r4
    1a3a:	d003      	beq.n	1a44 <_ZN14USBDeviceClass11recvControlEPvm+0x30>
    1a3c:	5c5a      	ldrb	r2, [r3, r1]
    1a3e:	54ea      	strb	r2, [r5, r3]
    1a40:	3301      	adds	r3, #1
    1a42:	e7f9      	b.n	1a38 <_ZN14USBDeviceClass11recvControlEPvm+0x24>
    1a44:	bd70      	pop	{r4, r5, r6, pc}
    1a46:	46c0      	nop			; (mov r8, r8)
    1a48:	20000680 	.word	0x20000680
    1a4c:	200003b4 	.word	0x200003b4

00001a50 <_ZN14USBDeviceClass7armRecvEm>:
    1a50:	b510      	push	{r4, lr}
    1a52:	b2c9      	uxtb	r1, r1
    1a54:	480b      	ldr	r0, [pc, #44]	; (1a84 <_ZN14USBDeviceClass7armRecvEm+0x34>)
    1a56:	0149      	lsls	r1, r1, #5
    1a58:	1842      	adds	r2, r0, r1
    1a5a:	6893      	ldr	r3, [r2, #8]
    1a5c:	049b      	lsls	r3, r3, #18
    1a5e:	0c9b      	lsrs	r3, r3, #18
    1a60:	2b3f      	cmp	r3, #63	; 0x3f
    1a62:	dd0b      	ble.n	1a7c <_ZN14USBDeviceClass7armRecvEm+0x2c>
    1a64:	6894      	ldr	r4, [r2, #8]
    1a66:	3b40      	subs	r3, #64	; 0x40
    1a68:	049b      	lsls	r3, r3, #18
    1a6a:	0ba4      	lsrs	r4, r4, #14
    1a6c:	0c9b      	lsrs	r3, r3, #18
    1a6e:	03a4      	lsls	r4, r4, #14
    1a70:	4323      	orrs	r3, r4
    1a72:	6093      	str	r3, [r2, #8]
    1a74:	1841      	adds	r1, r0, r1
    1a76:	6888      	ldr	r0, [r1, #8]
    1a78:	b2c0      	uxtb	r0, r0
    1a7a:	bd10      	pop	{r4, pc}
    1a7c:	6893      	ldr	r3, [r2, #8]
    1a7e:	0b9b      	lsrs	r3, r3, #14
    1a80:	039b      	lsls	r3, r3, #14
    1a82:	e7f6      	b.n	1a72 <_ZN14USBDeviceClass7armRecvEm+0x22>
    1a84:	20000680 	.word	0x20000680

00001a88 <_ZN14USBDeviceClass4recvEmPvm>:
    1a88:	b5f0      	push	{r4, r5, r6, r7, lr}
    1a8a:	001c      	movs	r4, r3
    1a8c:	4b30      	ldr	r3, [pc, #192]	; (1b50 <_ZN14USBDeviceClass4recvEmPvm+0xc8>)
    1a8e:	b085      	sub	sp, #20
    1a90:	681b      	ldr	r3, [r3, #0]
    1a92:	0006      	movs	r6, r0
    1a94:	000d      	movs	r5, r1
    1a96:	9201      	str	r2, [sp, #4]
    1a98:	2b00      	cmp	r3, #0
    1a9a:	d055      	beq.n	1b48 <_ZN14USBDeviceClass4recvEmPvm+0xc0>
    1a9c:	4f2d      	ldr	r7, [pc, #180]	; (1b54 <_ZN14USBDeviceClass4recvEmPvm+0xcc>)
    1a9e:	7839      	ldrb	r1, [r7, #0]
    1aa0:	b2c9      	uxtb	r1, r1
    1aa2:	2900      	cmp	r1, #0
    1aa4:	d102      	bne.n	1aac <_ZN14USBDeviceClass4recvEmPvm+0x24>
    1aa6:	201e      	movs	r0, #30
    1aa8:	f000 fc62 	bl	2370 <digitalWrite>
    1aac:	2364      	movs	r3, #100	; 0x64
    1aae:	703b      	strb	r3, [r7, #0]
    1ab0:	4b29      	ldr	r3, [pc, #164]	; (1b58 <_ZN14USBDeviceClass4recvEmPvm+0xd0>)
    1ab2:	00aa      	lsls	r2, r5, #2
    1ab4:	58d0      	ldr	r0, [r2, r3]
    1ab6:	2800      	cmp	r0, #0
    1ab8:	d008      	beq.n	1acc <_ZN14USBDeviceClass4recvEmPvm+0x44>
    1aba:	6803      	ldr	r3, [r0, #0]
    1abc:	0022      	movs	r2, r4
    1abe:	685b      	ldr	r3, [r3, #4]
    1ac0:	9901      	ldr	r1, [sp, #4]
    1ac2:	4798      	blx	r3
    1ac4:	0004      	movs	r4, r0
    1ac6:	0020      	movs	r0, r4
    1ac8:	b005      	add	sp, #20
    1aca:	bdf0      	pop	{r4, r5, r6, r7, pc}
    1acc:	0029      	movs	r1, r5
    1ace:	0030      	movs	r0, r6
    1ad0:	f7ff ff46 	bl	1960 <_ZN14USBDeviceClass9availableEm>
    1ad4:	4284      	cmp	r4, r0
    1ad6:	d904      	bls.n	1ae2 <_ZN14USBDeviceClass4recvEmPvm+0x5a>
    1ad8:	0029      	movs	r1, r5
    1ada:	0030      	movs	r0, r6
    1adc:	f7ff ff40 	bl	1960 <_ZN14USBDeviceClass9availableEm>
    1ae0:	0004      	movs	r4, r0
    1ae2:	0029      	movs	r1, r5
    1ae4:	0030      	movs	r0, r6
    1ae6:	f7ff ffb3 	bl	1a50 <_ZN14USBDeviceClass7armRecvEm>
    1aea:	2101      	movs	r1, #1
    1aec:	b2eb      	uxtb	r3, r5
    1aee:	4f1b      	ldr	r7, [pc, #108]	; (1b5c <_ZN14USBDeviceClass4recvEmPvm+0xd4>)
    1af0:	9303      	str	r3, [sp, #12]
    1af2:	015b      	lsls	r3, r3, #5
    1af4:	9302      	str	r3, [sp, #8]
    1af6:	9a02      	ldr	r2, [sp, #8]
    1af8:	683b      	ldr	r3, [r7, #0]
    1afa:	9801      	ldr	r0, [sp, #4]
    1afc:	189b      	adds	r3, r3, r2
    1afe:	33ff      	adds	r3, #255	; 0xff
    1b00:	7a5a      	ldrb	r2, [r3, #9]
    1b02:	430a      	orrs	r2, r1
    1b04:	4916      	ldr	r1, [pc, #88]	; (1b60 <_ZN14USBDeviceClass4recvEmPvm+0xd8>)
    1b06:	725a      	strb	r2, [r3, #9]
    1b08:	01ab      	lsls	r3, r5, #6
    1b0a:	18c9      	adds	r1, r1, r3
    1b0c:	0022      	movs	r2, r4
    1b0e:	f004 f88e 	bl	5c2e <memcpy>
    1b12:	2c00      	cmp	r4, #0
    1b14:	d0d7      	beq.n	1ac6 <_ZN14USBDeviceClass4recvEmPvm+0x3e>
    1b16:	0029      	movs	r1, r5
    1b18:	0030      	movs	r0, r6
    1b1a:	f7ff ff21 	bl	1960 <_ZN14USBDeviceClass9availableEm>
    1b1e:	2800      	cmp	r0, #0
    1b20:	d1d1      	bne.n	1ac6 <_ZN14USBDeviceClass4recvEmPvm+0x3e>
    1b22:	2140      	movs	r1, #64	; 0x40
    1b24:	9b03      	ldr	r3, [sp, #12]
    1b26:	683a      	ldr	r2, [r7, #0]
    1b28:	3308      	adds	r3, #8
    1b2a:	015b      	lsls	r3, r3, #5
    1b2c:	18d3      	adds	r3, r2, r3
    1b2e:	7918      	ldrb	r0, [r3, #4]
    1b30:	4301      	orrs	r1, r0
    1b32:	7119      	strb	r1, [r3, #4]
    1b34:	2101      	movs	r1, #1
    1b36:	71d9      	strb	r1, [r3, #7]
    1b38:	2101      	movs	r1, #1
    1b3a:	9b02      	ldr	r3, [sp, #8]
    1b3c:	18d3      	adds	r3, r2, r3
    1b3e:	33ff      	adds	r3, #255	; 0xff
    1b40:	7a9a      	ldrb	r2, [r3, #10]
    1b42:	430a      	orrs	r2, r1
    1b44:	729a      	strb	r2, [r3, #10]
    1b46:	e7be      	b.n	1ac6 <_ZN14USBDeviceClass4recvEmPvm+0x3e>
    1b48:	2401      	movs	r4, #1
    1b4a:	4264      	negs	r4, r4
    1b4c:	e7bb      	b.n	1ac6 <_ZN14USBDeviceClass4recvEmPvm+0x3e>
    1b4e:	46c0      	nop			; (mov r8, r8)
    1b50:	20000678 	.word	0x20000678
    1b54:	200001e8 	.word	0x200001e8
    1b58:	200001cc 	.word	0x200001cc
    1b5c:	20000680 	.word	0x20000680
    1b60:	200003b4 	.word	0x200003b4

00001b64 <_ZN14USBDeviceClass4recvEm>:
    1b64:	b513      	push	{r0, r1, r4, lr}
    1b66:	466b      	mov	r3, sp
    1b68:	1ddc      	adds	r4, r3, #7
    1b6a:	0022      	movs	r2, r4
    1b6c:	2301      	movs	r3, #1
    1b6e:	f7ff ff8b 	bl	1a88 <_ZN14USBDeviceClass4recvEmPvm>
    1b72:	2801      	cmp	r0, #1
    1b74:	d101      	bne.n	1b7a <_ZN14USBDeviceClass4recvEm+0x16>
    1b76:	7820      	ldrb	r0, [r4, #0]
    1b78:	bd16      	pop	{r1, r2, r4, pc}
    1b7a:	2001      	movs	r0, #1
    1b7c:	4240      	negs	r0, r0
    1b7e:	e7fb      	b.n	1b78 <_ZN14USBDeviceClass4recvEm+0x14>

00001b80 <_ZN14USBDeviceClass4sendEmPKvm>:
    1b80:	b5f0      	push	{r4, r5, r6, r7, lr}
    1b82:	001e      	movs	r6, r3
    1b84:	4b3a      	ldr	r3, [pc, #232]	; (1c70 <_ZN14USBDeviceClass4sendEmPKvm+0xf0>)
    1b86:	b085      	sub	sp, #20
    1b88:	681b      	ldr	r3, [r3, #0]
    1b8a:	000f      	movs	r7, r1
    1b8c:	9201      	str	r2, [sp, #4]
    1b8e:	2b00      	cmp	r3, #0
    1b90:	d03f      	beq.n	1c12 <_ZN14USBDeviceClass4sendEmPKvm+0x92>
    1b92:	2380      	movs	r3, #128	; 0x80
    1b94:	01db      	lsls	r3, r3, #7
    1b96:	429e      	cmp	r6, r3
    1b98:	d83b      	bhi.n	1c12 <_ZN14USBDeviceClass4sendEmPKvm+0x92>
    1b9a:	4c36      	ldr	r4, [pc, #216]	; (1c74 <_ZN14USBDeviceClass4sendEmPKvm+0xf4>)
    1b9c:	7821      	ldrb	r1, [r4, #0]
    1b9e:	b2c9      	uxtb	r1, r1
    1ba0:	2900      	cmp	r1, #0
    1ba2:	d102      	bne.n	1baa <_ZN14USBDeviceClass4sendEmPKvm+0x2a>
    1ba4:	201f      	movs	r0, #31
    1ba6:	f000 fbe3 	bl	2370 <digitalWrite>
    1baa:	2364      	movs	r3, #100	; 0x64
    1bac:	2500      	movs	r5, #0
    1bae:	4a32      	ldr	r2, [pc, #200]	; (1c78 <_ZN14USBDeviceClass4sendEmPKvm+0xf8>)
    1bb0:	7023      	strb	r3, [r4, #0]
    1bb2:	01bb      	lsls	r3, r7, #6
    1bb4:	18d3      	adds	r3, r2, r3
    1bb6:	9302      	str	r3, [sp, #8]
    1bb8:	2e00      	cmp	r6, #0
    1bba:	d02c      	beq.n	1c16 <_ZN14USBDeviceClass4sendEmPKvm+0x96>
    1bbc:	4b2f      	ldr	r3, [pc, #188]	; (1c7c <_ZN14USBDeviceClass4sendEmPKvm+0xfc>)
    1bbe:	681b      	ldr	r3, [r3, #0]
    1bc0:	9303      	str	r3, [sp, #12]
    1bc2:	23ff      	movs	r3, #255	; 0xff
    1bc4:	403b      	ands	r3, r7
    1bc6:	001c      	movs	r4, r3
    1bc8:	9300      	str	r3, [sp, #0]
    1bca:	3408      	adds	r4, #8
    1bcc:	9b03      	ldr	r3, [sp, #12]
    1bce:	0164      	lsls	r4, r4, #5
    1bd0:	191c      	adds	r4, r3, r4
    1bd2:	79a3      	ldrb	r3, [r4, #6]
    1bd4:	09db      	lsrs	r3, r3, #7
    1bd6:	d021      	beq.n	1c1c <_ZN14USBDeviceClass4sendEmPKvm+0x9c>
    1bd8:	4b29      	ldr	r3, [pc, #164]	; (1c80 <_ZN14USBDeviceClass4sendEmPKvm+0x100>)
    1bda:	492a      	ldr	r1, [pc, #168]	; (1c84 <_ZN14USBDeviceClass4sendEmPKvm+0x104>)
    1bdc:	6818      	ldr	r0, [r3, #0]
    1bde:	f003 fe69 	bl	58b4 <__udivsi3>
    1be2:	4b29      	ldr	r3, [pc, #164]	; (1c88 <_ZN14USBDeviceClass4sendEmPKvm+0x108>)
    1be4:	2117      	movs	r1, #23
    1be6:	4358      	muls	r0, r3
    1be8:	f003 fe64 	bl	58b4 <__udivsi3>
    1bec:	4b27      	ldr	r3, [pc, #156]	; (1c8c <_ZN14USBDeviceClass4sendEmPKvm+0x10c>)
    1bee:	79e2      	ldrb	r2, [r4, #7]
    1bf0:	0792      	lsls	r2, r2, #30
    1bf2:	d413      	bmi.n	1c1c <_ZN14USBDeviceClass4sendEmPKvm+0x9c>
    1bf4:	5dda      	ldrb	r2, [r3, r7]
    1bf6:	2a00      	cmp	r2, #0
    1bf8:	d101      	bne.n	1bfe <_ZN14USBDeviceClass4sendEmPKvm+0x7e>
    1bfa:	3801      	subs	r0, #1
    1bfc:	d2f7      	bcs.n	1bee <_ZN14USBDeviceClass4sendEmPKvm+0x6e>
    1bfe:	2201      	movs	r2, #1
    1c00:	55da      	strb	r2, [r3, r7]
    1c02:	9b00      	ldr	r3, [sp, #0]
    1c04:	015a      	lsls	r2, r3, #5
    1c06:	4b1d      	ldr	r3, [pc, #116]	; (1c7c <_ZN14USBDeviceClass4sendEmPKvm+0xfc>)
    1c08:	189b      	adds	r3, r3, r2
    1c0a:	699a      	ldr	r2, [r3, #24]
    1c0c:	0b92      	lsrs	r2, r2, #14
    1c0e:	0392      	lsls	r2, r2, #14
    1c10:	619a      	str	r2, [r3, #24]
    1c12:	2501      	movs	r5, #1
    1c14:	426d      	negs	r5, r5
    1c16:	0028      	movs	r0, r5
    1c18:	b005      	add	sp, #20
    1c1a:	bdf0      	pop	{r4, r5, r6, r7, pc}
    1c1c:	2200      	movs	r2, #0
    1c1e:	4b1b      	ldr	r3, [pc, #108]	; (1c8c <_ZN14USBDeviceClass4sendEmPKvm+0x10c>)
    1c20:	0034      	movs	r4, r6
    1c22:	55da      	strb	r2, [r3, r7]
    1c24:	2e3f      	cmp	r6, #63	; 0x3f
    1c26:	d900      	bls.n	1c2a <_ZN14USBDeviceClass4sendEmPKvm+0xaa>
    1c28:	243f      	movs	r4, #63	; 0x3f
    1c2a:	0022      	movs	r2, r4
    1c2c:	9901      	ldr	r1, [sp, #4]
    1c2e:	9802      	ldr	r0, [sp, #8]
    1c30:	f003 fffd 	bl	5c2e <memcpy>
    1c34:	9b00      	ldr	r3, [sp, #0]
    1c36:	04a1      	lsls	r1, r4, #18
    1c38:	015a      	lsls	r2, r3, #5
    1c3a:	4b10      	ldr	r3, [pc, #64]	; (1c7c <_ZN14USBDeviceClass4sendEmPKvm+0xfc>)
    1c3c:	0c89      	lsrs	r1, r1, #18
    1c3e:	189b      	adds	r3, r3, r2
    1c40:	9a02      	ldr	r2, [sp, #8]
    1c42:	192d      	adds	r5, r5, r4
    1c44:	615a      	str	r2, [r3, #20]
    1c46:	699a      	ldr	r2, [r3, #24]
    1c48:	1b36      	subs	r6, r6, r4
    1c4a:	0b92      	lsrs	r2, r2, #14
    1c4c:	0392      	lsls	r2, r2, #14
    1c4e:	430a      	orrs	r2, r1
    1c50:	619a      	str	r2, [r3, #24]
    1c52:	9b00      	ldr	r3, [sp, #0]
    1c54:	9a03      	ldr	r2, [sp, #12]
    1c56:	3308      	adds	r3, #8
    1c58:	015b      	lsls	r3, r3, #5
    1c5a:	18d3      	adds	r3, r2, r3
    1c5c:	2202      	movs	r2, #2
    1c5e:	71da      	strb	r2, [r3, #7]
    1c60:	7959      	ldrb	r1, [r3, #5]
    1c62:	3a82      	subs	r2, #130	; 0x82
    1c64:	430a      	orrs	r2, r1
    1c66:	715a      	strb	r2, [r3, #5]
    1c68:	9b01      	ldr	r3, [sp, #4]
    1c6a:	191b      	adds	r3, r3, r4
    1c6c:	9301      	str	r3, [sp, #4]
    1c6e:	e7a3      	b.n	1bb8 <_ZN14USBDeviceClass4sendEmPKvm+0x38>
    1c70:	20000678 	.word	0x20000678
    1c74:	200001e9 	.word	0x200001e9
    1c78:	200001f4 	.word	0x200001f4
    1c7c:	20000680 	.word	0x20000680
    1c80:	20000044 	.word	0x20000044
    1c84:	000f4240 	.word	0x000f4240
    1c88:	00011170 	.word	0x00011170
    1c8c:	200001eb 	.word	0x200001eb

00001c90 <_ZN14USBDeviceClass7armSendEmPKvm>:
    1c90:	b570      	push	{r4, r5, r6, lr}
    1c92:	000d      	movs	r5, r1
    1c94:	001c      	movs	r4, r3
    1c96:	4e0d      	ldr	r6, [pc, #52]	; (1ccc <_ZN14USBDeviceClass7armSendEmPKvm+0x3c>)
    1c98:	01ab      	lsls	r3, r5, #6
    1c9a:	18f6      	adds	r6, r6, r3
    1c9c:	0011      	movs	r1, r2
    1c9e:	0030      	movs	r0, r6
    1ca0:	0022      	movs	r2, r4
    1ca2:	f003 ffc4 	bl	5c2e <memcpy>
    1ca6:	b2ed      	uxtb	r5, r5
    1ca8:	4909      	ldr	r1, [pc, #36]	; (1cd0 <_ZN14USBDeviceClass7armSendEmPKvm+0x40>)
    1caa:	016d      	lsls	r5, r5, #5
    1cac:	194d      	adds	r5, r1, r5
    1cae:	616e      	str	r6, [r5, #20]
    1cb0:	69ab      	ldr	r3, [r5, #24]
    1cb2:	4a08      	ldr	r2, [pc, #32]	; (1cd4 <_ZN14USBDeviceClass7armSendEmPKvm+0x44>)
    1cb4:	0020      	movs	r0, r4
    1cb6:	4013      	ands	r3, r2
    1cb8:	61ab      	str	r3, [r5, #24]
    1cba:	69ab      	ldr	r3, [r5, #24]
    1cbc:	04a2      	lsls	r2, r4, #18
    1cbe:	0b9b      	lsrs	r3, r3, #14
    1cc0:	0c92      	lsrs	r2, r2, #18
    1cc2:	039b      	lsls	r3, r3, #14
    1cc4:	4313      	orrs	r3, r2
    1cc6:	61ab      	str	r3, [r5, #24]
    1cc8:	bd70      	pop	{r4, r5, r6, pc}
    1cca:	46c0      	nop			; (mov r8, r8)
    1ccc:	200001f4 	.word	0x200001f4
    1cd0:	20000680 	.word	0x20000680
    1cd4:	f0003fff 	.word	0xf0003fff

00001cd8 <_ZN14USBDeviceClass11sendControlEPKvm>:
    1cd8:	b5f7      	push	{r0, r1, r2, r4, r5, r6, r7, lr}
    1cda:	4b10      	ldr	r3, [pc, #64]	; (1d1c <_ZN14USBDeviceClass11sendControlEPKvm+0x44>)
    1cdc:	9001      	str	r0, [sp, #4]
    1cde:	781b      	ldrb	r3, [r3, #0]
    1ce0:	000f      	movs	r7, r1
    1ce2:	0015      	movs	r5, r2
    1ce4:	2b00      	cmp	r3, #0
    1ce6:	d10c      	bne.n	1d02 <_ZN14USBDeviceClass11sendControlEPKvm+0x2a>
    1ce8:	4b0d      	ldr	r3, [pc, #52]	; (1d20 <_ZN14USBDeviceClass11sendControlEPKvm+0x48>)
    1cea:	0016      	movs	r6, r2
    1cec:	781c      	ldrb	r4, [r3, #0]
    1cee:	2c00      	cmp	r4, #0
    1cf0:	d009      	beq.n	1d06 <_ZN14USBDeviceClass11sendControlEPKvm+0x2e>
    1cf2:	4e0c      	ldr	r6, [pc, #48]	; (1d24 <_ZN14USBDeviceClass11sendControlEPKvm+0x4c>)
    1cf4:	480c      	ldr	r0, [pc, #48]	; (1d28 <_ZN14USBDeviceClass11sendControlEPKvm+0x50>)
    1cf6:	8834      	ldrh	r4, [r6, #0]
    1cf8:	1900      	adds	r0, r0, r4
    1cfa:	1964      	adds	r4, r4, r5
    1cfc:	f003 ff97 	bl	5c2e <memcpy>
    1d00:	8034      	strh	r4, [r6, #0]
    1d02:	0028      	movs	r0, r5
    1d04:	bdfe      	pop	{r1, r2, r3, r4, r5, r6, r7, pc}
    1d06:	2e00      	cmp	r6, #0
    1d08:	d0fb      	beq.n	1d02 <_ZN14USBDeviceClass11sendControlEPKvm+0x2a>
    1d0a:	193a      	adds	r2, r7, r4
    1d0c:	0033      	movs	r3, r6
    1d0e:	2100      	movs	r1, #0
    1d10:	9801      	ldr	r0, [sp, #4]
    1d12:	f7ff ffbd 	bl	1c90 <_ZN14USBDeviceClass7armSendEmPKvm>
    1d16:	1824      	adds	r4, r4, r0
    1d18:	1a36      	subs	r6, r6, r0
    1d1a:	e7f4      	b.n	1d06 <_ZN14USBDeviceClass11sendControlEPKvm+0x2e>
    1d1c:	20000574 	.word	0x20000574
    1d20:	20000675 	.word	0x20000675
    1d24:	20000676 	.word	0x20000676
    1d28:	20000575 	.word	0x20000575

00001d2c <_ZN14USBDeviceClass20sendStringDescriptorEPKhh>:
    1d2c:	b5f8      	push	{r3, r4, r5, r6, r7, lr}
    1d2e:	2000      	movs	r0, #0
    1d30:	af00      	add	r7, sp, #0
    1d32:	000e      	movs	r6, r1
    1d34:	0015      	movs	r5, r2
    1d36:	2a01      	cmp	r2, #1
    1d38:	dd26      	ble.n	1d88 <_ZN14USBDeviceClass20sendStringDescriptorEPKhh+0x5c>
    1d3a:	1dd3      	adds	r3, r2, #7
    1d3c:	466a      	mov	r2, sp
    1d3e:	08db      	lsrs	r3, r3, #3
    1d40:	00db      	lsls	r3, r3, #3
    1d42:	1ad3      	subs	r3, r2, r3
    1d44:	469d      	mov	sp, r3
    1d46:	0008      	movs	r0, r1
    1d48:	f004 f85c 	bl	5e04 <strlen>
    1d4c:	466c      	mov	r4, sp
    1d4e:	2303      	movs	r3, #3
    1d50:	2100      	movs	r1, #0
    1d52:	3001      	adds	r0, #1
    1d54:	0040      	lsls	r0, r0, #1
    1d56:	7020      	strb	r0, [r4, #0]
    1d58:	7063      	strb	r3, [r4, #1]
    1d5a:	1e5a      	subs	r2, r3, #1
    1d5c:	b2d2      	uxtb	r2, r2
    1d5e:	4295      	cmp	r5, r2
    1d60:	dd0b      	ble.n	1d7a <_ZN14USBDeviceClass20sendStringDescriptorEPKhh+0x4e>
    1d62:	7830      	ldrb	r0, [r6, #0]
    1d64:	2800      	cmp	r0, #0
    1d66:	d008      	beq.n	1d7a <_ZN14USBDeviceClass20sendStringDescriptorEPKhh+0x4e>
    1d68:	3601      	adds	r6, #1
    1d6a:	54a0      	strb	r0, [r4, r2]
    1d6c:	429d      	cmp	r5, r3
    1d6e:	d003      	beq.n	1d78 <_ZN14USBDeviceClass20sendStringDescriptorEPKhh+0x4c>
    1d70:	54e1      	strb	r1, [r4, r3]
    1d72:	3302      	adds	r3, #2
    1d74:	b2db      	uxtb	r3, r3
    1d76:	e7f0      	b.n	1d5a <_ZN14USBDeviceClass20sendStringDescriptorEPKhh+0x2e>
    1d78:	002a      	movs	r2, r5
    1d7a:	0021      	movs	r1, r4
    1d7c:	4803      	ldr	r0, [pc, #12]	; (1d8c <_ZN14USBDeviceClass20sendStringDescriptorEPKhh+0x60>)
    1d7e:	f7ff ffab 	bl	1cd8 <_ZN14USBDeviceClass11sendControlEPKvm>
    1d82:	1e43      	subs	r3, r0, #1
    1d84:	4198      	sbcs	r0, r3
    1d86:	b2c0      	uxtb	r0, r0
    1d88:	46bd      	mov	sp, r7
    1d8a:	bdf8      	pop	{r3, r4, r5, r6, r7, pc}
    1d8c:	200001c8 	.word	0x200001c8

00001d90 <_ZN14USBDeviceClass17sendConfigurationEm>:
    1d90:	b5f0      	push	{r4, r5, r6, r7, lr}
    1d92:	2700      	movs	r7, #0
    1d94:	2601      	movs	r6, #1
    1d96:	b087      	sub	sp, #28
    1d98:	4b1e      	ldr	r3, [pc, #120]	; (1e14 <_ZN14USBDeviceClass17sendConfigurationEm+0x84>)
    1d9a:	9100      	str	r1, [sp, #0]
    1d9c:	a902      	add	r1, sp, #8
    1d9e:	701e      	strb	r6, [r3, #0]
    1da0:	0005      	movs	r5, r0
    1da2:	9702      	str	r7, [sp, #8]
    1da4:	f7ff fc46 	bl	1634 <_ZN14USBDeviceClass14SendInterfacesEPm>
    1da8:	ac03      	add	r4, sp, #12
    1daa:	9001      	str	r0, [sp, #4]
    1dac:	2209      	movs	r2, #9
    1dae:	0039      	movs	r1, r7
    1db0:	0020      	movs	r0, r4
    1db2:	f003 ff45 	bl	5c40 <memset>
    1db6:	2309      	movs	r3, #9
    1db8:	7023      	strb	r3, [r4, #0]
    1dba:	2302      	movs	r3, #2
    1dbc:	7063      	strb	r3, [r4, #1]
    1dbe:	339e      	adds	r3, #158	; 0x9e
    1dc0:	71e3      	strb	r3, [r4, #7]
    1dc2:	335a      	adds	r3, #90	; 0x5a
    1dc4:	7223      	strb	r3, [r4, #8]
    1dc6:	9b02      	ldr	r3, [sp, #8]
    1dc8:	7166      	strb	r6, [r4, #5]
    1dca:	3309      	adds	r3, #9
    1dcc:	8063      	strh	r3, [r4, #2]
    1dce:	466b      	mov	r3, sp
    1dd0:	791b      	ldrb	r3, [r3, #4]
    1dd2:	7123      	strb	r3, [r4, #4]
    1dd4:	4b0f      	ldr	r3, [pc, #60]	; (1e14 <_ZN14USBDeviceClass17sendConfigurationEm+0x84>)
    1dd6:	701f      	strb	r7, [r3, #0]
    1dd8:	9b00      	ldr	r3, [sp, #0]
    1dda:	2b09      	cmp	r3, #9
    1ddc:	d107      	bne.n	1dee <_ZN14USBDeviceClass17sendConfigurationEm+0x5e>
    1dde:	001a      	movs	r2, r3
    1de0:	0021      	movs	r1, r4
    1de2:	0028      	movs	r0, r5
    1de4:	f7ff ff78 	bl	1cd8 <_ZN14USBDeviceClass11sendControlEPKvm>
    1de8:	2001      	movs	r0, #1
    1dea:	b007      	add	sp, #28
    1dec:	bdf0      	pop	{r4, r5, r6, r7, pc}
    1dee:	4b0a      	ldr	r3, [pc, #40]	; (1e18 <_ZN14USBDeviceClass17sendConfigurationEm+0x88>)
    1df0:	2209      	movs	r2, #9
    1df2:	701e      	strb	r6, [r3, #0]
    1df4:	4e09      	ldr	r6, [pc, #36]	; (1e1c <_ZN14USBDeviceClass17sendConfigurationEm+0x8c>)
    1df6:	0021      	movs	r1, r4
    1df8:	0028      	movs	r0, r5
    1dfa:	9702      	str	r7, [sp, #8]
    1dfc:	8037      	strh	r7, [r6, #0]
    1dfe:	f7ff ff6b 	bl	1cd8 <_ZN14USBDeviceClass11sendControlEPKvm>
    1e02:	a902      	add	r1, sp, #8
    1e04:	0028      	movs	r0, r5
    1e06:	f7ff fc15 	bl	1634 <_ZN14USBDeviceClass14SendInterfacesEPm>
    1e0a:	4b03      	ldr	r3, [pc, #12]	; (1e18 <_ZN14USBDeviceClass17sendConfigurationEm+0x88>)
    1e0c:	8832      	ldrh	r2, [r6, #0]
    1e0e:	701f      	strb	r7, [r3, #0]
    1e10:	4903      	ldr	r1, [pc, #12]	; (1e20 <_ZN14USBDeviceClass17sendConfigurationEm+0x90>)
    1e12:	e7e6      	b.n	1de2 <_ZN14USBDeviceClass17sendConfigurationEm+0x52>
    1e14:	20000574 	.word	0x20000574
    1e18:	20000675 	.word	0x20000675
    1e1c:	20000676 	.word	0x20000676
    1e20:	20000575 	.word	0x20000575

00001e24 <_ZN14USBDeviceClass14sendDescriptorER8USBSetup>:
    1e24:	b570      	push	{r4, r5, r6, lr}
    1e26:	78ce      	ldrb	r6, [r1, #3]
    1e28:	b092      	sub	sp, #72	; 0x48
    1e2a:	0005      	movs	r5, r0
    1e2c:	000c      	movs	r4, r1
    1e2e:	2e02      	cmp	r6, #2
    1e30:	d108      	bne.n	1e44 <_ZN14USBDeviceClass14sendDescriptorER8USBSetup+0x20>
    1e32:	88c9      	ldrh	r1, [r1, #6]
    1e34:	482b      	ldr	r0, [pc, #172]	; (1ee4 <_ZN14USBDeviceClass14sendDescriptorER8USBSetup+0xc0>)
    1e36:	f7ff ffab 	bl	1d90 <_ZN14USBDeviceClass17sendConfigurationEm>
    1e3a:	1e43      	subs	r3, r0, #1
    1e3c:	4198      	sbcs	r0, r3
    1e3e:	b2c0      	uxtb	r0, r0
    1e40:	b012      	add	sp, #72	; 0x48
    1e42:	bd70      	pop	{r4, r5, r6, pc}
    1e44:	f003 fd1a 	bl	587c <_Z12PluggableUSBv>
    1e48:	0021      	movs	r1, r4
    1e4a:	f003 fce7 	bl	581c <_ZN13PluggableUSB_13getDescriptorER8USBSetup>
    1e4e:	2800      	cmp	r0, #0
    1e50:	d003      	beq.n	1e5a <_ZN14USBDeviceClass14sendDescriptorER8USBSetup+0x36>
    1e52:	17c3      	asrs	r3, r0, #31
    1e54:	1a18      	subs	r0, r3, r0
    1e56:	0fc0      	lsrs	r0, r0, #31
    1e58:	e7f2      	b.n	1e40 <_ZN14USBDeviceClass14sendDescriptorER8USBSetup+0x1c>
    1e5a:	2e01      	cmp	r6, #1
    1e5c:	d10b      	bne.n	1e76 <_ZN14USBDeviceClass14sendDescriptorER8USBSetup+0x52>
    1e5e:	88e2      	ldrh	r2, [r4, #6]
    1e60:	4921      	ldr	r1, [pc, #132]	; (1ee8 <_ZN14USBDeviceClass14sendDescriptorER8USBSetup+0xc4>)
    1e62:	2a11      	cmp	r2, #17
    1e64:	dc10      	bgt.n	1e88 <_ZN14USBDeviceClass14sendDescriptorER8USBSetup+0x64>
    1e66:	b2d2      	uxtb	r2, r2
    1e68:	2a00      	cmp	r2, #0
    1e6a:	d00d      	beq.n	1e88 <_ZN14USBDeviceClass14sendDescriptorER8USBSetup+0x64>
    1e6c:	0028      	movs	r0, r5
    1e6e:	f7ff ff33 	bl	1cd8 <_ZN14USBDeviceClass11sendControlEPKvm>
    1e72:	2001      	movs	r0, #1
    1e74:	e7e4      	b.n	1e40 <_ZN14USBDeviceClass14sendDescriptorER8USBSetup+0x1c>
    1e76:	2e03      	cmp	r6, #3
    1e78:	d1e2      	bne.n	1e40 <_ZN14USBDeviceClass14sendDescriptorER8USBSetup+0x1c>
    1e7a:	78a3      	ldrb	r3, [r4, #2]
    1e7c:	2b00      	cmp	r3, #0
    1e7e:	d105      	bne.n	1e8c <_ZN14USBDeviceClass14sendDescriptorER8USBSetup+0x68>
    1e80:	88e2      	ldrh	r2, [r4, #6]
    1e82:	491a      	ldr	r1, [pc, #104]	; (1eec <_ZN14USBDeviceClass14sendDescriptorER8USBSetup+0xc8>)
    1e84:	2a03      	cmp	r2, #3
    1e86:	ddee      	ble.n	1e66 <_ZN14USBDeviceClass14sendDescriptorER8USBSetup+0x42>
    1e88:	780a      	ldrb	r2, [r1, #0]
    1e8a:	e7ef      	b.n	1e6c <_ZN14USBDeviceClass14sendDescriptorER8USBSetup+0x48>
    1e8c:	2b02      	cmp	r3, #2
    1e8e:	d105      	bne.n	1e9c <_ZN14USBDeviceClass14sendDescriptorER8USBSetup+0x78>
    1e90:	79a2      	ldrb	r2, [r4, #6]
    1e92:	4917      	ldr	r1, [pc, #92]	; (1ef0 <_ZN14USBDeviceClass14sendDescriptorER8USBSetup+0xcc>)
    1e94:	0028      	movs	r0, r5
    1e96:	f7ff ff49 	bl	1d2c <_ZN14USBDeviceClass20sendStringDescriptorEPKhh>
    1e9a:	e7d1      	b.n	1e40 <_ZN14USBDeviceClass14sendDescriptorER8USBSetup+0x1c>
    1e9c:	2b01      	cmp	r3, #1
    1e9e:	d102      	bne.n	1ea6 <_ZN14USBDeviceClass14sendDescriptorER8USBSetup+0x82>
    1ea0:	79a2      	ldrb	r2, [r4, #6]
    1ea2:	4914      	ldr	r1, [pc, #80]	; (1ef4 <_ZN14USBDeviceClass14sendDescriptorER8USBSetup+0xd0>)
    1ea4:	e7f6      	b.n	1e94 <_ZN14USBDeviceClass14sendDescriptorER8USBSetup+0x70>
    1ea6:	2b03      	cmp	r3, #3
    1ea8:	d1ca      	bne.n	1e40 <_ZN14USBDeviceClass14sendDescriptorER8USBSetup+0x1c>
    1eaa:	4b13      	ldr	r3, [pc, #76]	; (1ef8 <_ZN14USBDeviceClass14sendDescriptorER8USBSetup+0xd4>)
    1eac:	a901      	add	r1, sp, #4
    1eae:	6818      	ldr	r0, [r3, #0]
    1eb0:	f7ff f9b8 	bl	1224 <_ZL5utox8mPc>
    1eb4:	4b11      	ldr	r3, [pc, #68]	; (1efc <_ZN14USBDeviceClass14sendDescriptorER8USBSetup+0xd8>)
    1eb6:	a903      	add	r1, sp, #12
    1eb8:	6818      	ldr	r0, [r3, #0]
    1eba:	f7ff f9b3 	bl	1224 <_ZL5utox8mPc>
    1ebe:	4b10      	ldr	r3, [pc, #64]	; (1f00 <_ZN14USBDeviceClass14sendDescriptorER8USBSetup+0xdc>)
    1ec0:	a905      	add	r1, sp, #20
    1ec2:	6818      	ldr	r0, [r3, #0]
    1ec4:	f7ff f9ae 	bl	1224 <_ZL5utox8mPc>
    1ec8:	4b0e      	ldr	r3, [pc, #56]	; (1f04 <_ZN14USBDeviceClass14sendDescriptorER8USBSetup+0xe0>)
    1eca:	a907      	add	r1, sp, #28
    1ecc:	6818      	ldr	r0, [r3, #0]
    1ece:	f7ff f9a9 	bl	1224 <_ZL5utox8mPc>
    1ed2:	f003 fcd3 	bl	587c <_Z12PluggableUSBv>
    1ed6:	a909      	add	r1, sp, #36	; 0x24
    1ed8:	f003 fcb0 	bl	583c <_ZN13PluggableUSB_12getShortNameEPc>
    1edc:	79a2      	ldrb	r2, [r4, #6]
    1ede:	a901      	add	r1, sp, #4
    1ee0:	e7d8      	b.n	1e94 <_ZN14USBDeviceClass14sendDescriptorER8USBSetup+0x70>
    1ee2:	46c0      	nop			; (mov r8, r8)
    1ee4:	200001c8 	.word	0x200001c8
    1ee8:	000060a0 	.word	0x000060a0
    1eec:	00006090 	.word	0x00006090
    1ef0:	00006080 	.word	0x00006080
    1ef4:	00006094 	.word	0x00006094
    1ef8:	0080a00c 	.word	0x0080a00c
    1efc:	0080a040 	.word	0x0080a040
    1f00:	0080a044 	.word	0x0080a044
    1f04:	0080a048 	.word	0x0080a048

00001f08 <_ZN14USBDeviceClass19handleStandardSetupER8USBSetup>:
    1f08:	b573      	push	{r0, r1, r4, r5, r6, lr}
    1f0a:	0006      	movs	r6, r0
    1f0c:	7848      	ldrb	r0, [r1, #1]
    1f0e:	000d      	movs	r5, r1
    1f10:	280b      	cmp	r0, #11
    1f12:	d811      	bhi.n	1f38 <_ZN14USBDeviceClass19handleStandardSetupER8USBSetup+0x30>
    1f14:	f003 fcc4 	bl	58a0 <__gnu_thumb1_case_uqi>
    1f18:	2e101d06 	.word	0x2e101d06
    1f1c:	70484310 	.word	0x70484310
    1f20:	6c694f4c 	.word	0x6c694f4c
    1f24:	7809      	ldrb	r1, [r1, #0]
    1f26:	aa01      	add	r2, sp, #4
    1f28:	2900      	cmp	r1, #0
    1f2a:	d107      	bne.n	1f3c <_ZN14USBDeviceClass19handleStandardSetupER8USBSetup+0x34>
    1f2c:	2302      	movs	r3, #2
    1f2e:	7011      	strb	r1, [r2, #0]
    1f30:	7051      	strb	r1, [r2, #1]
    1f32:	0030      	movs	r0, r6
    1f34:	f7ff feac 	bl	1c90 <_ZN14USBDeviceClass7armSendEmPKvm>
    1f38:	2001      	movs	r0, #1
    1f3a:	bd76      	pop	{r1, r2, r4, r5, r6, pc}
    1f3c:	2300      	movs	r3, #0
    1f3e:	7013      	strb	r3, [r2, #0]
    1f40:	7053      	strb	r3, [r2, #1]
    1f42:	4b2e      	ldr	r3, [pc, #184]	; (1ffc <_ZN14USBDeviceClass19handleStandardSetupER8USBSetup+0xf4>)
    1f44:	781b      	ldrb	r3, [r3, #0]
    1f46:	2b01      	cmp	r3, #1
    1f48:	d100      	bne.n	1f4c <_ZN14USBDeviceClass19handleStandardSetupER8USBSetup+0x44>
    1f4a:	7013      	strb	r3, [r2, #0]
    1f4c:	2302      	movs	r3, #2
    1f4e:	2100      	movs	r1, #0
    1f50:	e7ef      	b.n	1f32 <_ZN14USBDeviceClass19handleStandardSetupER8USBSetup+0x2a>
    1f52:	788a      	ldrb	r2, [r1, #2]
    1f54:	2300      	movs	r3, #0
    1f56:	2a01      	cmp	r2, #1
    1f58:	d104      	bne.n	1f64 <_ZN14USBDeviceClass19handleStandardSetupER8USBSetup+0x5c>
    1f5a:	aa01      	add	r2, sp, #4
    1f5c:	7013      	strb	r3, [r2, #0]
    1f5e:	7053      	strb	r3, [r2, #1]
    1f60:	4b27      	ldr	r3, [pc, #156]	; (2000 <_ZN14USBDeviceClass19handleStandardSetupER8USBSetup+0xf8>)
    1f62:	e7ef      	b.n	1f44 <_ZN14USBDeviceClass19handleStandardSetupER8USBSetup+0x3c>
    1f64:	4a25      	ldr	r2, [pc, #148]	; (1ffc <_ZN14USBDeviceClass19handleStandardSetupER8USBSetup+0xf4>)
    1f66:	7013      	strb	r3, [r2, #0]
    1f68:	4a26      	ldr	r2, [pc, #152]	; (2004 <_ZN14USBDeviceClass19handleStandardSetupER8USBSetup+0xfc>)
    1f6a:	6993      	ldr	r3, [r2, #24]
    1f6c:	0b9b      	lsrs	r3, r3, #14
    1f6e:	039b      	lsls	r3, r3, #14
    1f70:	6193      	str	r3, [r2, #24]
    1f72:	e7e1      	b.n	1f38 <_ZN14USBDeviceClass19handleStandardSetupER8USBSetup+0x30>
    1f74:	788c      	ldrb	r4, [r1, #2]
    1f76:	2c01      	cmp	r4, #1
    1f78:	d106      	bne.n	1f88 <_ZN14USBDeviceClass19handleStandardSetupER8USBSetup+0x80>
    1f7a:	2100      	movs	r1, #0
    1f7c:	4b20      	ldr	r3, [pc, #128]	; (2000 <_ZN14USBDeviceClass19handleStandardSetupER8USBSetup+0xf8>)
    1f7e:	aa01      	add	r2, sp, #4
    1f80:	701c      	strb	r4, [r3, #0]
    1f82:	7011      	strb	r1, [r2, #0]
    1f84:	0023      	movs	r3, r4
    1f86:	e7d4      	b.n	1f32 <_ZN14USBDeviceClass19handleStandardSetupER8USBSetup+0x2a>
    1f88:	2c00      	cmp	r4, #0
    1f8a:	d108      	bne.n	1f9e <_ZN14USBDeviceClass19handleStandardSetupER8USBSetup+0x96>
    1f8c:	2001      	movs	r0, #1
    1f8e:	4b1b      	ldr	r3, [pc, #108]	; (1ffc <_ZN14USBDeviceClass19handleStandardSetupER8USBSetup+0xf4>)
    1f90:	4a1c      	ldr	r2, [pc, #112]	; (2004 <_ZN14USBDeviceClass19handleStandardSetupER8USBSetup+0xfc>)
    1f92:	7018      	strb	r0, [r3, #0]
    1f94:	6993      	ldr	r3, [r2, #24]
    1f96:	0b9b      	lsrs	r3, r3, #14
    1f98:	039b      	lsls	r3, r3, #14
    1f9a:	6193      	str	r3, [r2, #24]
    1f9c:	e7cd      	b.n	1f3a <_ZN14USBDeviceClass19handleStandardSetupER8USBSetup+0x32>
    1f9e:	78a9      	ldrb	r1, [r5, #2]
    1fa0:	0030      	movs	r0, r6
    1fa2:	f7ff fc11 	bl	17c8 <_ZN14USBDeviceClass10setAddressEm>
    1fa6:	e7c7      	b.n	1f38 <_ZN14USBDeviceClass19handleStandardSetupER8USBSetup+0x30>
    1fa8:	0030      	movs	r0, r6
    1faa:	f7ff ff3b 	bl	1e24 <_ZN14USBDeviceClass14sendDescriptorER8USBSetup>
    1fae:	e7c4      	b.n	1f3a <_ZN14USBDeviceClass19handleStandardSetupER8USBSetup+0x32>
    1fb0:	2301      	movs	r3, #1
    1fb2:	4a15      	ldr	r2, [pc, #84]	; (2008 <_ZN14USBDeviceClass19handleStandardSetupER8USBSetup+0x100>)
    1fb4:	e7cb      	b.n	1f4e <_ZN14USBDeviceClass19handleStandardSetupER8USBSetup+0x46>
    1fb6:	780b      	ldrb	r3, [r1, #0]
    1fb8:	2000      	movs	r0, #0
    1fba:	06db      	lsls	r3, r3, #27
    1fbc:	d1bd      	bne.n	1f3a <_ZN14USBDeviceClass19handleStandardSetupER8USBSetup+0x32>
    1fbe:	0030      	movs	r0, r6
    1fc0:	f7ff fcbc 	bl	193c <_ZN14USBDeviceClass13initEndpointsEv>
    1fc4:	202a      	movs	r0, #42	; 0x2a
    1fc6:	2102      	movs	r1, #2
    1fc8:	78aa      	ldrb	r2, [r5, #2]
    1fca:	4b0f      	ldr	r3, [pc, #60]	; (2008 <_ZN14USBDeviceClass19handleStandardSetupER8USBSetup+0x100>)
    1fcc:	30ff      	adds	r0, #255	; 0xff
    1fce:	601a      	str	r2, [r3, #0]
    1fd0:	4a0c      	ldr	r2, [pc, #48]	; (2004 <_ZN14USBDeviceClass19handleStandardSetupER8USBSetup+0xfc>)
    1fd2:	6813      	ldr	r3, [r2, #0]
    1fd4:	5c1c      	ldrb	r4, [r3, r0]
    1fd6:	4321      	orrs	r1, r4
    1fd8:	244a      	movs	r4, #74	; 0x4a
    1fda:	5419      	strb	r1, [r3, r0]
    1fdc:	34ff      	adds	r4, #255	; 0xff
    1fde:	5d19      	ldrb	r1, [r3, r4]
    1fe0:	3829      	subs	r0, #41	; 0x29
    1fe2:	38ff      	subs	r0, #255	; 0xff
    1fe4:	4301      	orrs	r1, r0
    1fe6:	5519      	strb	r1, [r3, r4]
    1fe8:	e7d4      	b.n	1f94 <_ZN14USBDeviceClass19handleStandardSetupER8USBSetup+0x8c>
    1fea:	2301      	movs	r3, #1
    1fec:	4a07      	ldr	r2, [pc, #28]	; (200c <_ZN14USBDeviceClass19handleStandardSetupER8USBSetup+0x104>)
    1fee:	e7ae      	b.n	1f4e <_ZN14USBDeviceClass19handleStandardSetupER8USBSetup+0x46>
    1ff0:	788a      	ldrb	r2, [r1, #2]
    1ff2:	4b06      	ldr	r3, [pc, #24]	; (200c <_ZN14USBDeviceClass19handleStandardSetupER8USBSetup+0x104>)
    1ff4:	601a      	str	r2, [r3, #0]
    1ff6:	e7b7      	b.n	1f68 <_ZN14USBDeviceClass19handleStandardSetupER8USBSetup+0x60>
    1ff8:	2000      	movs	r0, #0
    1ffa:	e79e      	b.n	1f3a <_ZN14USBDeviceClass19handleStandardSetupER8USBSetup+0x32>
    1ffc:	200001ea 	.word	0x200001ea
    2000:	200001f2 	.word	0x200001f2
    2004:	20000680 	.word	0x20000680
    2008:	20000678 	.word	0x20000678
    200c:	2000067c 	.word	0x2000067c

00002010 <_ZN14USBDeviceClass10ISRHandlerEv>:
    2010:	4b4c      	ldr	r3, [pc, #304]	; (2144 <_ZN14USBDeviceClass10ISRHandlerEv+0x134>)
    2012:	b5f7      	push	{r0, r1, r2, r4, r5, r6, r7, lr}
    2014:	781c      	ldrb	r4, [r3, #0]
    2016:	0007      	movs	r7, r0
    2018:	2c00      	cmp	r4, #0
    201a:	d000      	beq.n	201e <_ZN14USBDeviceClass10ISRHandlerEv+0xe>
    201c:	e07d      	b.n	211a <_ZN14USBDeviceClass10ISRHandlerEv+0x10a>
    201e:	4e4a      	ldr	r6, [pc, #296]	; (2148 <_ZN14USBDeviceClass10ISRHandlerEv+0x138>)
    2020:	6833      	ldr	r3, [r6, #0]
    2022:	8b9b      	ldrh	r3, [r3, #28]
    2024:	071b      	lsls	r3, r3, #28
    2026:	d50e      	bpl.n	2046 <_ZN14USBDeviceClass10ISRHandlerEv+0x36>
    2028:	0021      	movs	r1, r4
    202a:	0020      	movs	r0, r4
    202c:	f7ff f90c 	bl	1248 <_ZN14USBDeviceClass6initEPEmm.part.5>
    2030:	6832      	ldr	r2, [r6, #0]
    2032:	2310      	movs	r3, #16
    2034:	0011      	movs	r1, r2
    2036:	31ff      	adds	r1, #255	; 0xff
    2038:	7a88      	ldrb	r0, [r1, #10]
    203a:	4303      	orrs	r3, r0
    203c:	728b      	strb	r3, [r1, #10]
    203e:	4b43      	ldr	r3, [pc, #268]	; (214c <_ZN14USBDeviceClass10ISRHandlerEv+0x13c>)
    2040:	601c      	str	r4, [r3, #0]
    2042:	2308      	movs	r3, #8
    2044:	8393      	strh	r3, [r2, #28]
    2046:	6833      	ldr	r3, [r6, #0]
    2048:	8b9a      	ldrh	r2, [r3, #28]
    204a:	0752      	lsls	r2, r2, #29
    204c:	d51f      	bpl.n	208e <_ZN14USBDeviceClass10ISRHandlerEv+0x7e>
    204e:	2204      	movs	r2, #4
    2050:	839a      	strh	r2, [r3, #28]
    2052:	4a3f      	ldr	r2, [pc, #252]	; (2150 <_ZN14USBDeviceClass10ISRHandlerEv+0x140>)
    2054:	7813      	ldrb	r3, [r2, #0]
    2056:	2b00      	cmp	r3, #0
    2058:	d00a      	beq.n	2070 <_ZN14USBDeviceClass10ISRHandlerEv+0x60>
    205a:	7813      	ldrb	r3, [r2, #0]
    205c:	3b01      	subs	r3, #1
    205e:	b2db      	uxtb	r3, r3
    2060:	7013      	strb	r3, [r2, #0]
    2062:	7813      	ldrb	r3, [r2, #0]
    2064:	2b00      	cmp	r3, #0
    2066:	d103      	bne.n	2070 <_ZN14USBDeviceClass10ISRHandlerEv+0x60>
    2068:	2101      	movs	r1, #1
    206a:	201f      	movs	r0, #31
    206c:	f000 f980 	bl	2370 <digitalWrite>
    2070:	4a38      	ldr	r2, [pc, #224]	; (2154 <_ZN14USBDeviceClass10ISRHandlerEv+0x144>)
    2072:	7813      	ldrb	r3, [r2, #0]
    2074:	2b00      	cmp	r3, #0
    2076:	d00a      	beq.n	208e <_ZN14USBDeviceClass10ISRHandlerEv+0x7e>
    2078:	7813      	ldrb	r3, [r2, #0]
    207a:	3b01      	subs	r3, #1
    207c:	b2db      	uxtb	r3, r3
    207e:	7013      	strb	r3, [r2, #0]
    2080:	7813      	ldrb	r3, [r2, #0]
    2082:	2b00      	cmp	r3, #0
    2084:	d103      	bne.n	208e <_ZN14USBDeviceClass10ISRHandlerEv+0x7e>
    2086:	2101      	movs	r1, #1
    2088:	201e      	movs	r0, #30
    208a:	f000 f971 	bl	2370 <digitalWrite>
    208e:	6833      	ldr	r3, [r6, #0]
    2090:	33ff      	adds	r3, #255	; 0xff
    2092:	7a1a      	ldrb	r2, [r3, #8]
    2094:	06d2      	lsls	r2, r2, #27
    2096:	d520      	bpl.n	20da <_ZN14USBDeviceClass10ISRHandlerEv+0xca>
    2098:	2210      	movs	r2, #16
    209a:	721a      	strb	r2, [r3, #8]
    209c:	7959      	ldrb	r1, [r3, #5]
    209e:	3230      	adds	r2, #48	; 0x30
    20a0:	430a      	orrs	r2, r1
    20a2:	715a      	strb	r2, [r3, #5]
    20a4:	2360      	movs	r3, #96	; 0x60
    20a6:	492c      	ldr	r1, [pc, #176]	; (2158 <_ZN14USBDeviceClass10ISRHandlerEv+0x148>)
    20a8:	0038      	movs	r0, r7
    20aa:	780a      	ldrb	r2, [r1, #0]
    20ac:	421a      	tst	r2, r3
    20ae:	d135      	bne.n	211c <_ZN14USBDeviceClass10ISRHandlerEv+0x10c>
    20b0:	f7ff ff2a 	bl	1f08 <_ZN14USBDeviceClass19handleStandardSetupER8USBSetup>
    20b4:	2800      	cmp	r0, #0
    20b6:	d034      	beq.n	2122 <_ZN14USBDeviceClass10ISRHandlerEv+0x112>
    20b8:	2280      	movs	r2, #128	; 0x80
    20ba:	6833      	ldr	r3, [r6, #0]
    20bc:	4252      	negs	r2, r2
    20be:	33ff      	adds	r3, #255	; 0xff
    20c0:	7999      	ldrb	r1, [r3, #6]
    20c2:	430a      	orrs	r2, r1
    20c4:	719a      	strb	r2, [r3, #6]
    20c6:	6833      	ldr	r3, [r6, #0]
    20c8:	33ff      	adds	r3, #255	; 0xff
    20ca:	7a1a      	ldrb	r2, [r3, #8]
    20cc:	0652      	lsls	r2, r2, #25
    20ce:	d504      	bpl.n	20da <_ZN14USBDeviceClass10ISRHandlerEv+0xca>
    20d0:	2240      	movs	r2, #64	; 0x40
    20d2:	721a      	strb	r2, [r3, #8]
    20d4:	7a59      	ldrb	r1, [r3, #9]
    20d6:	430a      	orrs	r2, r1
    20d8:	725a      	strb	r2, [r3, #9]
    20da:	6833      	ldr	r3, [r6, #0]
    20dc:	2500      	movs	r5, #0
    20de:	8c1c      	ldrh	r4, [r3, #32]
    20e0:	2301      	movs	r3, #1
    20e2:	439c      	bics	r4, r3
    20e4:	b2e4      	uxtb	r4, r4
    20e6:	9301      	str	r3, [sp, #4]
    20e8:	b2e9      	uxtb	r1, r5
    20ea:	2c00      	cmp	r4, #0
    20ec:	d015      	beq.n	211a <_ZN14USBDeviceClass10ISRHandlerEv+0x10a>
    20ee:	0023      	movs	r3, r4
    20f0:	412b      	asrs	r3, r5
    20f2:	9a01      	ldr	r2, [sp, #4]
    20f4:	4213      	tst	r3, r2
    20f6:	d00d      	beq.n	2114 <_ZN14USBDeviceClass10ISRHandlerEv+0x104>
    20f8:	002b      	movs	r3, r5
    20fa:	6832      	ldr	r2, [r6, #0]
    20fc:	3308      	adds	r3, #8
    20fe:	015b      	lsls	r3, r3, #5
    2100:	18d3      	adds	r3, r2, r3
    2102:	79da      	ldrb	r2, [r3, #7]
    2104:	07d2      	lsls	r2, r2, #31
    2106:	d413      	bmi.n	2130 <_ZN14USBDeviceClass10ISRHandlerEv+0x120>
    2108:	79db      	ldrb	r3, [r3, #7]
    210a:	079b      	lsls	r3, r3, #30
    210c:	d410      	bmi.n	2130 <_ZN14USBDeviceClass10ISRHandlerEv+0x120>
    210e:	9b01      	ldr	r3, [sp, #4]
    2110:	40ab      	lsls	r3, r5
    2112:	439c      	bics	r4, r3
    2114:	3501      	adds	r5, #1
    2116:	2d09      	cmp	r5, #9
    2118:	d1e6      	bne.n	20e8 <_ZN14USBDeviceClass10ISRHandlerEv+0xd8>
    211a:	bdf7      	pop	{r0, r1, r2, r4, r5, r6, r7, pc}
    211c:	f7ff fb78 	bl	1810 <_ZN14USBDeviceClass25handleClassInterfaceSetupER8USBSetup>
    2120:	e7c8      	b.n	20b4 <_ZN14USBDeviceClass10ISRHandlerEv+0xa4>
    2122:	2220      	movs	r2, #32
    2124:	4b0d      	ldr	r3, [pc, #52]	; (215c <_ZN14USBDeviceClass10ISRHandlerEv+0x14c>)
    2126:	e7cd      	b.n	20c4 <_ZN14USBDeviceClass10ISRHandlerEv+0xb4>
    2128:	6803      	ldr	r3, [r0, #0]
    212a:	681b      	ldr	r3, [r3, #0]
    212c:	4798      	blx	r3
    212e:	e7ee      	b.n	210e <_ZN14USBDeviceClass10ISRHandlerEv+0xfe>
    2130:	4b0b      	ldr	r3, [pc, #44]	; (2160 <_ZN14USBDeviceClass10ISRHandlerEv+0x150>)
    2132:	00aa      	lsls	r2, r5, #2
    2134:	58d0      	ldr	r0, [r2, r3]
    2136:	2800      	cmp	r0, #0
    2138:	d1f6      	bne.n	2128 <_ZN14USBDeviceClass10ISRHandlerEv+0x118>
    213a:	0038      	movs	r0, r7
    213c:	f7ff fa90 	bl	1660 <_ZN14USBDeviceClass14handleEndpointEh>
    2140:	e7e5      	b.n	210e <_ZN14USBDeviceClass10ISRHandlerEv+0xfe>
    2142:	46c0      	nop			; (mov r8, r8)
    2144:	20000675 	.word	0x20000675
    2148:	20000680 	.word	0x20000680
    214c:	20000678 	.word	0x20000678
    2150:	200001e9 	.word	0x200001e9
    2154:	200001e8 	.word	0x200001e8
    2158:	200003b4 	.word	0x200003b4
    215c:	410050ff 	.word	0x410050ff
    2160:	200001cc 	.word	0x200001cc

00002164 <UDD_Handler>:
    2164:	b510      	push	{r4, lr}
    2166:	4802      	ldr	r0, [pc, #8]	; (2170 <UDD_Handler+0xc>)
    2168:	f7ff ff52 	bl	2010 <_ZN14USBDeviceClass10ISRHandlerEv>
    216c:	bd10      	pop	{r4, pc}
    216e:	46c0      	nop			; (mov r8, r8)
    2170:	200001c8 	.word	0x200001c8

00002174 <_GLOBAL__sub_I__ZN20USBDevice_SAMD21G18x5resetEv>:
    2174:	4a01      	ldr	r2, [pc, #4]	; (217c <_GLOBAL__sub_I__ZN20USBDevice_SAMD21G18x5resetEv+0x8>)
    2176:	4b02      	ldr	r3, [pc, #8]	; (2180 <_GLOBAL__sub_I__ZN20USBDevice_SAMD21G18x5resetEv+0xc>)
    2178:	601a      	str	r2, [r3, #0]
    217a:	4770      	bx	lr
    217c:	41005000 	.word	0x41005000
    2180:	20000680 	.word	0x20000680

00002184 <init>:
    2184:	21fa      	movs	r1, #250	; 0xfa
    2186:	4b31      	ldr	r3, [pc, #196]	; (224c <init+0xc8>)
    2188:	b510      	push	{r4, lr}
    218a:	6818      	ldr	r0, [r3, #0]
    218c:	0089      	lsls	r1, r1, #2
    218e:	f003 fb91 	bl	58b4 <__udivsi3>
           function <b>SysTick_Config</b> is not included. In this case, the file <b><i>device</i>.h</b>
           must contain a vendor-specific implementation of this function.
 */
__STATIC_INLINE uint32_t SysTick_Config(uint32_t ticks)
{
  if ((ticks - 1UL) > SysTick_LOAD_RELOAD_Msk)
    2192:	4b2f      	ldr	r3, [pc, #188]	; (2250 <init+0xcc>)
    2194:	3801      	subs	r0, #1
    2196:	4298      	cmp	r0, r3
    2198:	d856      	bhi.n	2248 <init+0xc4>
  {
    return (1UL);                                                   /* Reload value impossible */
  }

  SysTick->LOAD  = (uint32_t)(ticks - 1UL);                         /* set reload register */
    219a:	492e      	ldr	r1, [pc, #184]	; (2254 <init+0xd0>)
    SCB->SHP[_SHP_IDX(IRQn)] = ((uint32_t)(SCB->SHP[_SHP_IDX(IRQn)] & ~(0xFFUL << _BIT_SHIFT(IRQn))) |
    219c:	4a2e      	ldr	r2, [pc, #184]	; (2258 <init+0xd4>)
  SysTick->LOAD  = (uint32_t)(ticks - 1UL);                         /* set reload register */
    219e:	6048      	str	r0, [r1, #4]
    SCB->SHP[_SHP_IDX(IRQn)] = ((uint32_t)(SCB->SHP[_SHP_IDX(IRQn)] & ~(0xFFUL << _BIT_SHIFT(IRQn))) |
    21a0:	20c0      	movs	r0, #192	; 0xc0
    21a2:	6a13      	ldr	r3, [r2, #32]
    21a4:	0600      	lsls	r0, r0, #24
    21a6:	021b      	lsls	r3, r3, #8
    21a8:	0a1b      	lsrs	r3, r3, #8
    21aa:	4303      	orrs	r3, r0
    21ac:	6213      	str	r3, [r2, #32]
  NVIC_SetPriority (SysTick_IRQn, (1UL << __NVIC_PRIO_BITS) - 1UL); /* set Priority for Systick Interrupt */
  SysTick->VAL   = 0UL;                                             /* Load the SysTick Counter Value */
    21ae:	2400      	movs	r4, #0
  SysTick->CTRL  = SysTick_CTRL_CLKSOURCE_Msk |
    21b0:	2307      	movs	r3, #7
  SysTick->VAL   = 0UL;                                             /* Load the SysTick Counter Value */
    21b2:	608c      	str	r4, [r1, #8]
  SysTick->CTRL  = SysTick_CTRL_CLKSOURCE_Msk |
    21b4:	600b      	str	r3, [r1, #0]
    SCB->SHP[_SHP_IDX(IRQn)] = ((uint32_t)(SCB->SHP[_SHP_IDX(IRQn)] & ~(0xFFUL << _BIT_SHIFT(IRQn))) |
    21b6:	2180      	movs	r1, #128	; 0x80
    21b8:	6a13      	ldr	r3, [r2, #32]
    21ba:	0609      	lsls	r1, r1, #24
    21bc:	021b      	lsls	r3, r3, #8
    21be:	0a1b      	lsrs	r3, r3, #8
    21c0:	430b      	orrs	r3, r1
    21c2:	6213      	str	r3, [r2, #32]
    21c4:	22fc      	movs	r2, #252	; 0xfc
    21c6:	4b25      	ldr	r3, [pc, #148]	; (225c <init+0xd8>)
    21c8:	6a19      	ldr	r1, [r3, #32]
    21ca:	430a      	orrs	r2, r1
    21cc:	621a      	str	r2, [r3, #32]
    21ce:	22fc      	movs	r2, #252	; 0xfc
    21d0:	6a19      	ldr	r1, [r3, #32]
    21d2:	0192      	lsls	r2, r2, #6
    21d4:	430a      	orrs	r2, r1
    21d6:	621a      	str	r2, [r3, #32]
    21d8:	22a0      	movs	r2, #160	; 0xa0
    21da:	6a19      	ldr	r1, [r3, #32]
    21dc:	02d2      	lsls	r2, r2, #11
    21de:	430a      	orrs	r2, r1
    21e0:	621a      	str	r2, [r3, #32]
    21e2:	0020      	movs	r0, r4
    21e4:	2100      	movs	r1, #0
    21e6:	3401      	adds	r4, #1
    21e8:	f000 f876 	bl	22d8 <pinMode>
    21ec:	2c13      	cmp	r4, #19
    21ee:	d1f8      	bne.n	21e2 <init+0x5e>
    21f0:	4b1b      	ldr	r3, [pc, #108]	; (2260 <init+0xdc>)
    21f2:	001c      	movs	r4, r3
    21f4:	785a      	ldrb	r2, [r3, #1]
    21f6:	b252      	sxtb	r2, r2
    21f8:	2a00      	cmp	r2, #0
    21fa:	dbfb      	blt.n	21f4 <init+0x70>
    21fc:	4a19      	ldr	r2, [pc, #100]	; (2264 <init+0xe0>)
    21fe:	805a      	strh	r2, [r3, #2]
    2200:	4b19      	ldr	r3, [pc, #100]	; (2268 <init+0xe4>)
    2202:	001a      	movs	r2, r3
    2204:	7e59      	ldrb	r1, [r3, #25]
    2206:	09c9      	lsrs	r1, r1, #7
    2208:	2901      	cmp	r1, #1
    220a:	d0fb      	beq.n	2204 <init+0x80>
    220c:	21e4      	movs	r1, #228	; 0xe4
    220e:	00c9      	lsls	r1, r1, #3
    2210:	8099      	strh	r1, [r3, #4]
    2212:	213f      	movs	r1, #63	; 0x3f
    2214:	70d9      	strb	r1, [r3, #3]
    2216:	7e53      	ldrb	r3, [r2, #25]
    2218:	09db      	lsrs	r3, r3, #7
    221a:	2b01      	cmp	r3, #1
    221c:	d0fb      	beq.n	2216 <init+0x92>
    221e:	23c0      	movs	r3, #192	; 0xc0
    2220:	2000      	movs	r0, #0
    2222:	015b      	lsls	r3, r3, #5
    2224:	6113      	str	r3, [r2, #16]
    2226:	7090      	strb	r0, [r2, #2]
    2228:	f000 f824 	bl	2274 <analogReference>
    222c:	7863      	ldrb	r3, [r4, #1]
    222e:	b25b      	sxtb	r3, r3
    2230:	2b00      	cmp	r3, #0
    2232:	dbfb      	blt.n	222c <init+0xa8>
    2234:	4b0d      	ldr	r3, [pc, #52]	; (226c <init+0xe8>)
    2236:	4a0e      	ldr	r2, [pc, #56]	; (2270 <init+0xec>)
    2238:	8063      	strh	r3, [r4, #2]
    223a:	79d3      	ldrb	r3, [r2, #7]
    223c:	09db      	lsrs	r3, r3, #7
    223e:	2b01      	cmp	r3, #1
    2240:	d0fb      	beq.n	223a <init+0xb6>
    2242:	2341      	movs	r3, #65	; 0x41
    2244:	7053      	strb	r3, [r2, #1]
    2246:	bd10      	pop	{r4, pc}
    2248:	e7fe      	b.n	2248 <init+0xc4>
    224a:	46c0      	nop			; (mov r8, r8)
    224c:	20000044 	.word	0x20000044
    2250:	00ffffff 	.word	0x00ffffff
    2254:	e000e010 	.word	0xe000e010
    2258:	e000ed00 	.word	0xe000ed00
    225c:	40000400 	.word	0x40000400
    2260:	40000c00 	.word	0x40000c00
    2264:	0000401e 	.word	0x0000401e
    2268:	42004000 	.word	0x42004000
    226c:	00004021 	.word	0x00004021
    2270:	42004800 	.word	0x42004800

00002274 <analogReference>:
    2274:	4a16      	ldr	r2, [pc, #88]	; (22d0 <analogReference+0x5c>)
    2276:	b500      	push	{lr}
    2278:	0013      	movs	r3, r2
    227a:	7e51      	ldrb	r1, [r2, #25]
    227c:	09c9      	lsrs	r1, r1, #7
    227e:	2901      	cmp	r1, #1
    2280:	d0fb      	beq.n	227a <analogReference+0x6>
    2282:	3801      	subs	r0, #1
    2284:	2804      	cmp	r0, #4
    2286:	d816      	bhi.n	22b6 <analogReference+0x42>
    2288:	6919      	ldr	r1, [r3, #16]
    228a:	4a12      	ldr	r2, [pc, #72]	; (22d4 <analogReference+0x60>)
    228c:	400a      	ands	r2, r1
    228e:	210f      	movs	r1, #15
    2290:	611a      	str	r2, [r3, #16]
    2292:	785a      	ldrb	r2, [r3, #1]
    2294:	438a      	bics	r2, r1
    2296:	f003 fb03 	bl	58a0 <__gnu_thumb1_case_uqi>
    229a:	0803      	.short	0x0803
    229c:	0b06      	.short	0x0b06
    229e:	03          	.byte	0x03
    229f:	00          	.byte	0x00
    22a0:	0011      	movs	r1, r2
    22a2:	2201      	movs	r2, #1
    22a4:	430a      	orrs	r2, r1
    22a6:	705a      	strb	r2, [r3, #1]
    22a8:	bd00      	pop	{pc}
    22aa:	0011      	movs	r1, r2
    22ac:	2203      	movs	r2, #3
    22ae:	e7f9      	b.n	22a4 <analogReference+0x30>
    22b0:	0011      	movs	r1, r2
    22b2:	2202      	movs	r2, #2
    22b4:	e7f6      	b.n	22a4 <analogReference+0x30>
    22b6:	23f0      	movs	r3, #240	; 0xf0
    22b8:	6911      	ldr	r1, [r2, #16]
    22ba:	051b      	lsls	r3, r3, #20
    22bc:	430b      	orrs	r3, r1
    22be:	210f      	movs	r1, #15
    22c0:	6113      	str	r3, [r2, #16]
    22c2:	7853      	ldrb	r3, [r2, #1]
    22c4:	438b      	bics	r3, r1
    22c6:	0019      	movs	r1, r3
    22c8:	2302      	movs	r3, #2
    22ca:	430b      	orrs	r3, r1
    22cc:	7053      	strb	r3, [r2, #1]
    22ce:	e7eb      	b.n	22a8 <analogReference+0x34>
    22d0:	42004000 	.word	0x42004000
    22d4:	f0ffffff 	.word	0xf0ffffff

000022d8 <pinMode>:
    22d8:	2318      	movs	r3, #24
    22da:	b530      	push	{r4, r5, lr}
    22dc:	001d      	movs	r5, r3
    22de:	0004      	movs	r4, r0
    22e0:	4345      	muls	r5, r0
    22e2:	2008      	movs	r0, #8
    22e4:	4a20      	ldr	r2, [pc, #128]	; (2368 <pinMode+0x90>)
    22e6:	1955      	adds	r5, r2, r5
    22e8:	5628      	ldrsb	r0, [r5, r0]
    22ea:	3001      	adds	r0, #1
    22ec:	d014      	beq.n	2318 <pinMode+0x40>
    22ee:	2903      	cmp	r1, #3
    22f0:	d812      	bhi.n	2318 <pinMode+0x40>
    22f2:	0008      	movs	r0, r1
    22f4:	4363      	muls	r3, r4
    22f6:	56d1      	ldrsb	r1, [r2, r3]
    22f8:	18d3      	adds	r3, r2, r3
    22fa:	f003 fad1 	bl	58a0 <__gnu_thumb1_case_uqi>
    22fe:	2802      	.short	0x2802
    2300:	1b0e      	.short	0x1b0e
    2302:	6858      	ldr	r0, [r3, #4]
    2304:	01cb      	lsls	r3, r1, #7
    2306:	2102      	movs	r1, #2
    2308:	4a18      	ldr	r2, [pc, #96]	; (236c <pinMode+0x94>)
    230a:	189b      	adds	r3, r3, r2
    230c:	181a      	adds	r2, r3, r0
    230e:	3240      	adds	r2, #64	; 0x40
    2310:	7011      	strb	r1, [r2, #0]
    2312:	2201      	movs	r2, #1
    2314:	4082      	lsls	r2, r0
    2316:	605a      	str	r2, [r3, #4]
    2318:	bd30      	pop	{r4, r5, pc}
    231a:	6858      	ldr	r0, [r3, #4]
    231c:	01cb      	lsls	r3, r1, #7
    231e:	2106      	movs	r1, #6
    2320:	4a12      	ldr	r2, [pc, #72]	; (236c <pinMode+0x94>)
    2322:	189b      	adds	r3, r3, r2
    2324:	181a      	adds	r2, r3, r0
    2326:	3240      	adds	r2, #64	; 0x40
    2328:	7011      	strb	r1, [r2, #0]
    232a:	2201      	movs	r2, #1
    232c:	4082      	lsls	r2, r0
    232e:	605a      	str	r2, [r3, #4]
    2330:	619a      	str	r2, [r3, #24]
    2332:	e7f1      	b.n	2318 <pinMode+0x40>
    2334:	6858      	ldr	r0, [r3, #4]
    2336:	01cb      	lsls	r3, r1, #7
    2338:	2106      	movs	r1, #6
    233a:	4a0c      	ldr	r2, [pc, #48]	; (236c <pinMode+0x94>)
    233c:	189b      	adds	r3, r3, r2
    233e:	181a      	adds	r2, r3, r0
    2340:	3240      	adds	r2, #64	; 0x40
    2342:	7011      	strb	r1, [r2, #0]
    2344:	2201      	movs	r2, #1
    2346:	4082      	lsls	r2, r0
    2348:	605a      	str	r2, [r3, #4]
    234a:	615a      	str	r2, [r3, #20]
    234c:	e7e4      	b.n	2318 <pinMode+0x40>
    234e:	6858      	ldr	r0, [r3, #4]
    2350:	01cb      	lsls	r3, r1, #7
    2352:	2102      	movs	r1, #2
    2354:	4a05      	ldr	r2, [pc, #20]	; (236c <pinMode+0x94>)
    2356:	189b      	adds	r3, r3, r2
    2358:	181a      	adds	r2, r3, r0
    235a:	3240      	adds	r2, #64	; 0x40
    235c:	7011      	strb	r1, [r2, #0]
    235e:	2201      	movs	r2, #1
    2360:	4082      	lsls	r2, r0
    2362:	609a      	str	r2, [r3, #8]
    2364:	e7d8      	b.n	2318 <pinMode+0x40>
    2366:	46c0      	nop			; (mov r8, r8)
    2368:	00006180 	.word	0x00006180
    236c:	41004400 	.word	0x41004400

00002370 <digitalWrite>:
    2370:	2318      	movs	r3, #24
    2372:	b5f0      	push	{r4, r5, r6, r7, lr}
    2374:	2408      	movs	r4, #8
    2376:	4358      	muls	r0, r3
    2378:	4a11      	ldr	r2, [pc, #68]	; (23c0 <digitalWrite+0x50>)
    237a:	1813      	adds	r3, r2, r0
    237c:	571c      	ldrsb	r4, [r3, r4]
    237e:	3401      	adds	r4, #1
    2380:	d01b      	beq.n	23ba <digitalWrite+0x4a>
    2382:	2601      	movs	r6, #1
    2384:	0035      	movs	r5, r6
    2386:	685f      	ldr	r7, [r3, #4]
    2388:	5683      	ldrsb	r3, [r0, r2]
    238a:	40bd      	lsls	r5, r7
    238c:	4a0d      	ldr	r2, [pc, #52]	; (23c4 <digitalWrite+0x54>)
    238e:	01db      	lsls	r3, r3, #7
    2390:	189a      	adds	r2, r3, r2
    2392:	6890      	ldr	r0, [r2, #8]
    2394:	4228      	tst	r0, r5
    2396:	d10b      	bne.n	23b0 <digitalWrite+0x40>
    2398:	000c      	movs	r4, r1
    239a:	1e60      	subs	r0, r4, #1
    239c:	4184      	sbcs	r4, r0
    239e:	19d2      	adds	r2, r2, r7
    23a0:	3240      	adds	r2, #64	; 0x40
    23a2:	7810      	ldrb	r0, [r2, #0]
    23a4:	4034      	ands	r4, r6
    23a6:	3603      	adds	r6, #3
    23a8:	00a4      	lsls	r4, r4, #2
    23aa:	43b0      	bics	r0, r6
    23ac:	4320      	orrs	r0, r4
    23ae:	7010      	strb	r0, [r2, #0]
    23b0:	4a04      	ldr	r2, [pc, #16]	; (23c4 <digitalWrite+0x54>)
    23b2:	189b      	adds	r3, r3, r2
    23b4:	2900      	cmp	r1, #0
    23b6:	d101      	bne.n	23bc <digitalWrite+0x4c>
    23b8:	615d      	str	r5, [r3, #20]
    23ba:	bdf0      	pop	{r4, r5, r6, r7, pc}
    23bc:	619d      	str	r5, [r3, #24]
    23be:	e7fc      	b.n	23ba <digitalWrite+0x4a>
    23c0:	00006180 	.word	0x00006180
    23c4:	41004400 	.word	0x41004400

000023c8 <pinPeripheral>:
    23c8:	b5f8      	push	{r3, r4, r5, r6, r7, lr}
    23ca:	0003      	movs	r3, r0
    23cc:	2018      	movs	r0, #24
    23ce:	4358      	muls	r0, r3
    23d0:	4a2a      	ldr	r2, [pc, #168]	; (247c <pinPeripheral+0xb4>)
    23d2:	1810      	adds	r0, r2, r0
    23d4:	7a00      	ldrb	r0, [r0, #8]
    23d6:	b240      	sxtb	r0, r0
    23d8:	0004      	movs	r4, r0
    23da:	3001      	adds	r0, #1
    23dc:	d013      	beq.n	2406 <pinPeripheral+0x3e>
    23de:	1c48      	adds	r0, r1, #1
    23e0:	2400      	movs	r4, #0
    23e2:	280c      	cmp	r0, #12
    23e4:	d80f      	bhi.n	2406 <pinPeripheral+0x3e>
    23e6:	f003 fa5b 	bl	58a0 <__gnu_thumb1_case_uqi>
    23ea:	1c45      	.short	0x1c45
    23ec:	1c1c1c1c 	.word	0x1c1c1c1c
    23f0:	071c1c1c 	.word	0x071c1c1c
    23f4:	0707      	.short	0x0707
    23f6:	07          	.byte	0x07
    23f7:	00          	.byte	0x00
    23f8:	2909      	cmp	r1, #9
    23fa:	d106      	bne.n	240a <pinPeripheral+0x42>
    23fc:	2100      	movs	r1, #0
    23fe:	0018      	movs	r0, r3
    2400:	f7ff ff6a 	bl	22d8 <pinMode>
    2404:	2400      	movs	r4, #0
    2406:	0020      	movs	r0, r4
    2408:	bdf8      	pop	{r3, r4, r5, r6, r7, pc}
    240a:	290a      	cmp	r1, #10
    240c:	d101      	bne.n	2412 <pinPeripheral+0x4a>
    240e:	3908      	subs	r1, #8
    2410:	e7f5      	b.n	23fe <pinPeripheral+0x36>
    2412:	2400      	movs	r4, #0
    2414:	290b      	cmp	r1, #11
    2416:	d1f6      	bne.n	2406 <pinPeripheral+0x3e>
    2418:	390a      	subs	r1, #10
    241a:	0018      	movs	r0, r3
    241c:	f7ff ff5c 	bl	22d8 <pinMode>
    2420:	e7f1      	b.n	2406 <pinPeripheral+0x3e>
    2422:	2018      	movs	r0, #24
    2424:	4343      	muls	r3, r0
    2426:	18d0      	adds	r0, r2, r3
    2428:	6846      	ldr	r6, [r0, #4]
    242a:	2501      	movs	r5, #1
    242c:	0034      	movs	r4, r6
    242e:	56d2      	ldrsb	r2, [r2, r3]
    2430:	4813      	ldr	r0, [pc, #76]	; (2480 <pinPeripheral+0xb8>)
    2432:	01d2      	lsls	r2, r2, #7
    2434:	1812      	adds	r2, r2, r0
    2436:	0873      	lsrs	r3, r6, #1
    2438:	18d3      	adds	r3, r2, r3
    243a:	3330      	adds	r3, #48	; 0x30
    243c:	402c      	ands	r4, r5
    243e:	7818      	ldrb	r0, [r3, #0]
    2440:	2c00      	cmp	r4, #0
    2442:	d00b      	beq.n	245c <pinPeripheral+0x94>
    2444:	240f      	movs	r4, #15
    2446:	0109      	lsls	r1, r1, #4
    2448:	4020      	ands	r0, r4
    244a:	4301      	orrs	r1, r0
    244c:	b2c9      	uxtb	r1, r1
    244e:	1992      	adds	r2, r2, r6
    2450:	7019      	strb	r1, [r3, #0]
    2452:	3240      	adds	r2, #64	; 0x40
    2454:	7813      	ldrb	r3, [r2, #0]
    2456:	431d      	orrs	r5, r3
    2458:	7015      	strb	r5, [r2, #0]
    245a:	e7d3      	b.n	2404 <pinPeripheral+0x3c>
    245c:	270f      	movs	r7, #15
    245e:	43b8      	bics	r0, r7
    2460:	4301      	orrs	r1, r0
    2462:	1992      	adds	r2, r2, r6
    2464:	b2c9      	uxtb	r1, r1
    2466:	7019      	strb	r1, [r3, #0]
    2468:	0013      	movs	r3, r2
    246a:	3340      	adds	r3, #64	; 0x40
    246c:	781a      	ldrb	r2, [r3, #0]
    246e:	4315      	orrs	r5, r2
    2470:	701d      	strb	r5, [r3, #0]
    2472:	e7c8      	b.n	2406 <pinPeripheral+0x3e>
    2474:	2401      	movs	r4, #1
    2476:	4264      	negs	r4, r4
    2478:	e7c5      	b.n	2406 <pinPeripheral+0x3e>
    247a:	46c0      	nop			; (mov r8, r8)
    247c:	00006180 	.word	0x00006180
    2480:	41004400 	.word	0x41004400

00002484 <_Z3maplllll>:
    2484:	b510      	push	{r4, lr}
    2486:	001c      	movs	r4, r3
    2488:	1a43      	subs	r3, r0, r1
    248a:	9802      	ldr	r0, [sp, #8]
    248c:	1a51      	subs	r1, r2, r1
    248e:	1b00      	subs	r0, r0, r4
    2490:	4358      	muls	r0, r3
    2492:	f003 fa99 	bl	59c8 <__divsi3>
    2496:	1900      	adds	r0, r0, r4
    2498:	bd10      	pop	{r4, pc}

0000249a <_ZN6StringD1Ev>:
    249a:	b510      	push	{r4, lr}
    249c:	0004      	movs	r4, r0
    249e:	6800      	ldr	r0, [r0, #0]
    24a0:	f003 fbac 	bl	5bfc <free>
    24a4:	0020      	movs	r0, r4
    24a6:	bd10      	pop	{r4, pc}

000024a8 <_ZN6String10invalidateEv>:
    24a8:	b510      	push	{r4, lr}
    24aa:	0004      	movs	r4, r0
    24ac:	6800      	ldr	r0, [r0, #0]
    24ae:	2800      	cmp	r0, #0
    24b0:	d001      	beq.n	24b6 <_ZN6String10invalidateEv+0xe>
    24b2:	f003 fba3 	bl	5bfc <free>
    24b6:	2300      	movs	r3, #0
    24b8:	6023      	str	r3, [r4, #0]
    24ba:	60a3      	str	r3, [r4, #8]
    24bc:	6063      	str	r3, [r4, #4]
    24be:	bd10      	pop	{r4, pc}

000024c0 <_ZN6String12changeBufferEj>:
    24c0:	b570      	push	{r4, r5, r6, lr}
    24c2:	0004      	movs	r4, r0
    24c4:	000d      	movs	r5, r1
    24c6:	6800      	ldr	r0, [r0, #0]
    24c8:	3101      	adds	r1, #1
    24ca:	f003 fc69 	bl	5da0 <realloc>
    24ce:	1e03      	subs	r3, r0, #0
    24d0:	d001      	beq.n	24d6 <_ZN6String12changeBufferEj+0x16>
    24d2:	2001      	movs	r0, #1
    24d4:	c428      	stmia	r4!, {r3, r5}
    24d6:	bd70      	pop	{r4, r5, r6, pc}

000024d8 <_ZN6String7reserveEj>:
    24d8:	6803      	ldr	r3, [r0, #0]
    24da:	b510      	push	{r4, lr}
    24dc:	0004      	movs	r4, r0
    24de:	2b00      	cmp	r3, #0
    24e0:	d004      	beq.n	24ec <_ZN6String7reserveEj+0x14>
    24e2:	6843      	ldr	r3, [r0, #4]
    24e4:	428b      	cmp	r3, r1
    24e6:	d301      	bcc.n	24ec <_ZN6String7reserveEj+0x14>
    24e8:	2001      	movs	r0, #1
    24ea:	bd10      	pop	{r4, pc}
    24ec:	0020      	movs	r0, r4
    24ee:	f7ff ffe7 	bl	24c0 <_ZN6String12changeBufferEj>
    24f2:	2800      	cmp	r0, #0
    24f4:	d0f9      	beq.n	24ea <_ZN6String7reserveEj+0x12>
    24f6:	68a3      	ldr	r3, [r4, #8]
    24f8:	2b00      	cmp	r3, #0
    24fa:	d1f5      	bne.n	24e8 <_ZN6String7reserveEj+0x10>
    24fc:	6822      	ldr	r2, [r4, #0]
    24fe:	7013      	strb	r3, [r2, #0]
    2500:	e7f2      	b.n	24e8 <_ZN6String7reserveEj+0x10>

00002502 <_ZN6String4copyEPKcj>:
    2502:	b570      	push	{r4, r5, r6, lr}
    2504:	000e      	movs	r6, r1
    2506:	0011      	movs	r1, r2
    2508:	0004      	movs	r4, r0
    250a:	0015      	movs	r5, r2
    250c:	f7ff ffe4 	bl	24d8 <_ZN6String7reserveEj>
    2510:	2800      	cmp	r0, #0
    2512:	d104      	bne.n	251e <_ZN6String4copyEPKcj+0x1c>
    2514:	0020      	movs	r0, r4
    2516:	f7ff ffc7 	bl	24a8 <_ZN6String10invalidateEv>
    251a:	0020      	movs	r0, r4
    251c:	bd70      	pop	{r4, r5, r6, pc}
    251e:	60a5      	str	r5, [r4, #8]
    2520:	0031      	movs	r1, r6
    2522:	6820      	ldr	r0, [r4, #0]
    2524:	f003 fc66 	bl	5df4 <strcpy>
    2528:	e7f7      	b.n	251a <_ZN6String4copyEPKcj+0x18>

0000252a <_ZN6String4moveERS_>:
    252a:	b570      	push	{r4, r5, r6, lr}
    252c:	0005      	movs	r5, r0
    252e:	6800      	ldr	r0, [r0, #0]
    2530:	000c      	movs	r4, r1
    2532:	2800      	cmp	r0, #0
    2534:	d004      	beq.n	2540 <_ZN6String4moveERS_+0x16>
    2536:	6809      	ldr	r1, [r1, #0]
    2538:	2900      	cmp	r1, #0
    253a:	d10b      	bne.n	2554 <_ZN6String4moveERS_+0x2a>
    253c:	f003 fb5e 	bl	5bfc <free>
    2540:	6823      	ldr	r3, [r4, #0]
    2542:	602b      	str	r3, [r5, #0]
    2544:	6863      	ldr	r3, [r4, #4]
    2546:	606b      	str	r3, [r5, #4]
    2548:	68a3      	ldr	r3, [r4, #8]
    254a:	60ab      	str	r3, [r5, #8]
    254c:	2300      	movs	r3, #0
    254e:	6023      	str	r3, [r4, #0]
    2550:	6063      	str	r3, [r4, #4]
    2552:	e008      	b.n	2566 <_ZN6String4moveERS_+0x3c>
    2554:	686b      	ldr	r3, [r5, #4]
    2556:	68a2      	ldr	r2, [r4, #8]
    2558:	4293      	cmp	r3, r2
    255a:	d3ef      	bcc.n	253c <_ZN6String4moveERS_+0x12>
    255c:	f003 fc4a 	bl	5df4 <strcpy>
    2560:	68a3      	ldr	r3, [r4, #8]
    2562:	60ab      	str	r3, [r5, #8]
    2564:	2300      	movs	r3, #0
    2566:	60a3      	str	r3, [r4, #8]
    2568:	bd70      	pop	{r4, r5, r6, pc}

0000256a <_ZN6StringaSEOS_>:
    256a:	b510      	push	{r4, lr}
    256c:	0004      	movs	r4, r0
    256e:	4288      	cmp	r0, r1
    2570:	d001      	beq.n	2576 <_ZN6StringaSEOS_+0xc>
    2572:	f7ff ffda 	bl	252a <_ZN6String4moveERS_>
    2576:	0020      	movs	r0, r4
    2578:	bd10      	pop	{r4, pc}

0000257a <_ZN6StringaSEPKc>:
    257a:	b570      	push	{r4, r5, r6, lr}
    257c:	0004      	movs	r4, r0
    257e:	1e0d      	subs	r5, r1, #0
    2580:	d009      	beq.n	2596 <_ZN6StringaSEPKc+0x1c>
    2582:	0008      	movs	r0, r1
    2584:	f003 fc3e 	bl	5e04 <strlen>
    2588:	0029      	movs	r1, r5
    258a:	0002      	movs	r2, r0
    258c:	0020      	movs	r0, r4
    258e:	f7ff ffb8 	bl	2502 <_ZN6String4copyEPKcj>
    2592:	0020      	movs	r0, r4
    2594:	bd70      	pop	{r4, r5, r6, pc}
    2596:	f7ff ff87 	bl	24a8 <_ZN6String10invalidateEv>
    259a:	e7fa      	b.n	2592 <_ZN6StringaSEPKc+0x18>

0000259c <_ZN6StringC1Ehh>:
    259c:	b51f      	push	{r0, r1, r2, r3, r4, lr}
    259e:	0004      	movs	r4, r0
    25a0:	2300      	movs	r3, #0
    25a2:	0008      	movs	r0, r1
    25a4:	6023      	str	r3, [r4, #0]
    25a6:	6063      	str	r3, [r4, #4]
    25a8:	60a3      	str	r3, [r4, #8]
    25aa:	a901      	add	r1, sp, #4
    25ac:	f002 fe1d 	bl	51ea <utoa>
    25b0:	a901      	add	r1, sp, #4
    25b2:	0020      	movs	r0, r4
    25b4:	f7ff ffe1 	bl	257a <_ZN6StringaSEPKc>
    25b8:	0020      	movs	r0, r4
    25ba:	b004      	add	sp, #16
    25bc:	bd10      	pop	{r4, pc}

000025be <_ZN6StringC1Eih>:
    25be:	b510      	push	{r4, lr}
    25c0:	2300      	movs	r3, #0
    25c2:	0004      	movs	r4, r0
    25c4:	b08a      	sub	sp, #40	; 0x28
    25c6:	6023      	str	r3, [r4, #0]
    25c8:	6063      	str	r3, [r4, #4]
    25ca:	60a3      	str	r3, [r4, #8]
    25cc:	0008      	movs	r0, r1
    25ce:	a901      	add	r1, sp, #4
    25d0:	f002 fdd5 	bl	517e <itoa>
    25d4:	a901      	add	r1, sp, #4
    25d6:	0020      	movs	r0, r4
    25d8:	f7ff ffcf 	bl	257a <_ZN6StringaSEPKc>
    25dc:	0020      	movs	r0, r4
    25de:	b00a      	add	sp, #40	; 0x28
    25e0:	bd10      	pop	{r4, pc}

000025e2 <_ZNK6StringixEj>:
    25e2:	6882      	ldr	r2, [r0, #8]
    25e4:	2300      	movs	r3, #0
    25e6:	428a      	cmp	r2, r1
    25e8:	d903      	bls.n	25f2 <_ZNK6StringixEj+0x10>
    25ea:	6802      	ldr	r2, [r0, #0]
    25ec:	429a      	cmp	r2, r3
    25ee:	d000      	beq.n	25f2 <_ZNK6StringixEj+0x10>
    25f0:	5c53      	ldrb	r3, [r2, r1]
    25f2:	0018      	movs	r0, r3
    25f4:	4770      	bx	lr

000025f6 <_ZNK6String6charAtEj>:
    25f6:	b510      	push	{r4, lr}
    25f8:	f7ff fff3 	bl	25e2 <_ZNK6StringixEj>
    25fc:	bd10      	pop	{r4, pc}

000025fe <_ZN15Adafruit_FT6206C1Ev>:
    25fe:	2300      	movs	r3, #0
    2600:	7003      	strb	r3, [r0, #0]
    2602:	4770      	bx	lr

00002604 <_ZN8TS_PointC1Ev>:
    2604:	2300      	movs	r3, #0
    2606:	8043      	strh	r3, [r0, #2]
    2608:	8003      	strh	r3, [r0, #0]
    260a:	4770      	bx	lr

0000260c <_ZN15Adafruit_FT620614writeRegister8Ehh>:
    260c:	b570      	push	{r4, r5, r6, lr}
    260e:	000e      	movs	r6, r1
    2610:	0015      	movs	r5, r2
    2612:	4c08      	ldr	r4, [pc, #32]	; (2634 <_ZN15Adafruit_FT620614writeRegister8Ehh+0x28>)
    2614:	2138      	movs	r1, #56	; 0x38
    2616:	0020      	movs	r0, r4
    2618:	f002 f848 	bl	46ac <_ZN7TwoWire17beginTransmissionEh>
    261c:	0031      	movs	r1, r6
    261e:	0020      	movs	r0, r4
    2620:	f002 f892 	bl	4748 <_ZN7TwoWire5writeEh>
    2624:	0029      	movs	r1, r5
    2626:	0020      	movs	r0, r4
    2628:	f002 f88e 	bl	4748 <_ZN7TwoWire5writeEh>
    262c:	0020      	movs	r0, r4
    262e:	f002 f8e8 	bl	4802 <_ZN7TwoWire15endTransmissionEv>
    2632:	bd70      	pop	{r4, r5, r6, pc}
    2634:	20000a1c 	.word	0x20000a1c

00002638 <_ZN15Adafruit_FT62068readDataEv>:
    2638:	b57f      	push	{r0, r1, r2, r3, r4, r5, r6, lr}
    263a:	4d24      	ldr	r5, [pc, #144]	; (26cc <_ZN15Adafruit_FT62068readDataEv+0x94>)
    263c:	2138      	movs	r1, #56	; 0x38
    263e:	0004      	movs	r4, r0
    2640:	0028      	movs	r0, r5
    2642:	f002 f833 	bl	46ac <_ZN7TwoWire17beginTransmissionEh>
    2646:	2100      	movs	r1, #0
    2648:	0028      	movs	r0, r5
    264a:	f002 f87d 	bl	4748 <_ZN7TwoWire5writeEh>
    264e:	0028      	movs	r0, r5
    2650:	f002 f8d7 	bl	4802 <_ZN7TwoWire15endTransmissionEv>
    2654:	2210      	movs	r2, #16
    2656:	2138      	movs	r1, #56	; 0x38
    2658:	0028      	movs	r0, r5
    265a:	f002 f870 	bl	473e <_ZN7TwoWire11requestFromEhj>
    265e:	2600      	movs	r6, #0
    2660:	0028      	movs	r0, r5
    2662:	f002 f8d3 	bl	480c <_ZN7TwoWire4readEv>
    2666:	466b      	mov	r3, sp
    2668:	54f0      	strb	r0, [r6, r3]
    266a:	3601      	adds	r6, #1
    266c:	2e10      	cmp	r6, #16
    266e:	d1f7      	bne.n	2660 <_ZN15Adafruit_FT62068readDataEv+0x28>
    2670:	789b      	ldrb	r3, [r3, #2]
    2672:	1e5a      	subs	r2, r3, #1
    2674:	2a01      	cmp	r2, #1
    2676:	d827      	bhi.n	26c8 <_ZN15Adafruit_FT62068readDataEv+0x90>
    2678:	7023      	strb	r3, [r4, #0]
    267a:	466b      	mov	r3, sp
    267c:	4669      	mov	r1, sp
    267e:	78da      	ldrb	r2, [r3, #3]
    2680:	230f      	movs	r3, #15
    2682:	7909      	ldrb	r1, [r1, #4]
    2684:	401a      	ands	r2, r3
    2686:	0212      	lsls	r2, r2, #8
    2688:	430a      	orrs	r2, r1
    268a:	8062      	strh	r2, [r4, #2]
    268c:	466a      	mov	r2, sp
    268e:	7952      	ldrb	r2, [r2, #5]
    2690:	4669      	mov	r1, sp
    2692:	0010      	movs	r0, r2
    2694:	7989      	ldrb	r1, [r1, #6]
    2696:	4018      	ands	r0, r3
    2698:	1112      	asrs	r2, r2, #4
    269a:	8162      	strh	r2, [r4, #10]
    269c:	0200      	lsls	r0, r0, #8
    269e:	466a      	mov	r2, sp
    26a0:	4301      	orrs	r1, r0
    26a2:	80e1      	strh	r1, [r4, #6]
    26a4:	4669      	mov	r1, sp
    26a6:	7a52      	ldrb	r2, [r2, #9]
    26a8:	7a89      	ldrb	r1, [r1, #10]
    26aa:	401a      	ands	r2, r3
    26ac:	0212      	lsls	r2, r2, #8
    26ae:	430a      	orrs	r2, r1
    26b0:	80a2      	strh	r2, [r4, #4]
    26b2:	466a      	mov	r2, sp
    26b4:	4669      	mov	r1, sp
    26b6:	7ad2      	ldrb	r2, [r2, #11]
    26b8:	7b09      	ldrb	r1, [r1, #12]
    26ba:	4013      	ands	r3, r2
    26bc:	021b      	lsls	r3, r3, #8
    26be:	430b      	orrs	r3, r1
    26c0:	1112      	asrs	r2, r2, #4
    26c2:	8123      	strh	r3, [r4, #8]
    26c4:	81a2      	strh	r2, [r4, #12]
    26c6:	bd7f      	pop	{r0, r1, r2, r3, r4, r5, r6, pc}
    26c8:	2300      	movs	r3, #0
    26ca:	e7d5      	b.n	2678 <_ZN15Adafruit_FT62068readDataEv+0x40>
    26cc:	20000a1c 	.word	0x20000a1c

000026d0 <_ZN15Adafruit_FT62068getPointEh>:
    26d0:	b570      	push	{r4, r5, r6, lr}
    26d2:	000d      	movs	r5, r1
    26d4:	0004      	movs	r4, r0
    26d6:	0008      	movs	r0, r1
    26d8:	0016      	movs	r6, r2
    26da:	f7ff ffad 	bl	2638 <_ZN15Adafruit_FT62068readDataEv>
    26de:	782b      	ldrb	r3, [r5, #0]
    26e0:	2b00      	cmp	r3, #0
    26e2:	d001      	beq.n	26e8 <_ZN15Adafruit_FT62068getPointEh+0x18>
    26e4:	2e01      	cmp	r6, #1
    26e6:	dd05      	ble.n	26f4 <_ZN15Adafruit_FT62068getPointEh+0x24>
    26e8:	2300      	movs	r3, #0
    26ea:	8023      	strh	r3, [r4, #0]
    26ec:	8063      	strh	r3, [r4, #2]
    26ee:	0020      	movs	r0, r4
    26f0:	80a3      	strh	r3, [r4, #4]
    26f2:	bd70      	pop	{r4, r5, r6, pc}
    26f4:	0076      	lsls	r6, r6, #1
    26f6:	19ad      	adds	r5, r5, r6
    26f8:	2302      	movs	r3, #2
    26fa:	5eea      	ldrsh	r2, [r5, r3]
    26fc:	2106      	movs	r1, #6
    26fe:	5e6b      	ldrsh	r3, [r5, r1]
    2700:	8022      	strh	r2, [r4, #0]
    2702:	8063      	strh	r3, [r4, #2]
    2704:	2301      	movs	r3, #1
    2706:	e7f2      	b.n	26ee <_ZN15Adafruit_FT62068getPointEh+0x1e>

00002708 <_ZN15Adafruit_FT620613readRegister8Eh>:
    2708:	b570      	push	{r4, r5, r6, lr}
    270a:	000d      	movs	r5, r1
    270c:	4c0a      	ldr	r4, [pc, #40]	; (2738 <_ZN15Adafruit_FT620613readRegister8Eh+0x30>)
    270e:	2138      	movs	r1, #56	; 0x38
    2710:	0020      	movs	r0, r4
    2712:	f001 ffcb 	bl	46ac <_ZN7TwoWire17beginTransmissionEh>
    2716:	0029      	movs	r1, r5
    2718:	0020      	movs	r0, r4
    271a:	f002 f815 	bl	4748 <_ZN7TwoWire5writeEh>
    271e:	0020      	movs	r0, r4
    2720:	f002 f86f 	bl	4802 <_ZN7TwoWire15endTransmissionEv>
    2724:	2201      	movs	r2, #1
    2726:	2138      	movs	r1, #56	; 0x38
    2728:	0020      	movs	r0, r4
    272a:	f002 f808 	bl	473e <_ZN7TwoWire11requestFromEhj>
    272e:	0020      	movs	r0, r4
    2730:	f002 f86c 	bl	480c <_ZN7TwoWire4readEv>
    2734:	b2c0      	uxtb	r0, r0
    2736:	bd70      	pop	{r4, r5, r6, pc}
    2738:	20000a1c 	.word	0x20000a1c

0000273c <_ZN15Adafruit_FT62065beginEh>:
    273c:	b570      	push	{r4, r5, r6, lr}
    273e:	0004      	movs	r4, r0
    2740:	000d      	movs	r5, r1
    2742:	480e      	ldr	r0, [pc, #56]	; (277c <_ZN15Adafruit_FT62065beginEh+0x40>)
    2744:	f001 ff92 	bl	466c <_ZN7TwoWire5beginEv>
    2748:	2180      	movs	r1, #128	; 0x80
    274a:	0020      	movs	r0, r4
    274c:	002a      	movs	r2, r5
    274e:	f7ff ff5d 	bl	260c <_ZN15Adafruit_FT620614writeRegister8Ehh>
    2752:	21a8      	movs	r1, #168	; 0xa8
    2754:	0020      	movs	r0, r4
    2756:	f7ff ffd7 	bl	2708 <_ZN15Adafruit_FT620613readRegister8Eh>
    275a:	2811      	cmp	r0, #17
    275c:	d002      	beq.n	2764 <_ZN15Adafruit_FT62065beginEh+0x28>
    275e:	2300      	movs	r3, #0
    2760:	0018      	movs	r0, r3
    2762:	bd70      	pop	{r4, r5, r6, pc}
    2764:	21a3      	movs	r1, #163	; 0xa3
    2766:	0020      	movs	r0, r4
    2768:	f7ff ffce 	bl	2708 <_ZN15Adafruit_FT620613readRegister8Eh>
    276c:	2301      	movs	r3, #1
    276e:	2806      	cmp	r0, #6
    2770:	d0f6      	beq.n	2760 <_ZN15Adafruit_FT62065beginEh+0x24>
    2772:	2836      	cmp	r0, #54	; 0x36
    2774:	d0f4      	beq.n	2760 <_ZN15Adafruit_FT62065beginEh+0x24>
    2776:	2864      	cmp	r0, #100	; 0x64
    2778:	d1f1      	bne.n	275e <_ZN15Adafruit_FT62065beginEh+0x22>
    277a:	e7f1      	b.n	2760 <_ZN15Adafruit_FT62065beginEh+0x24>
    277c:	20000a1c 	.word	0x20000a1c

00002780 <_ZN15Adafruit_FT62067touchedEv>:
    2780:	b510      	push	{r4, lr}
    2782:	2102      	movs	r1, #2
    2784:	f7ff ffc0 	bl	2708 <_ZN15Adafruit_FT620613readRegister8Eh>
    2788:	2802      	cmp	r0, #2
    278a:	dd00      	ble.n	278e <_ZN15Adafruit_FT62067touchedEv+0xe>
    278c:	2000      	movs	r0, #0
    278e:	bd10      	pop	{r4, pc}

00002790 <_ZN16Adafruit_ILI934114writeFastVLineEssst>:
    int32_t len = (int32_t)w * h;
    setAddrWindow(x, y, w, h);
    writeColor(color, len);
}

void Adafruit_ILI9341::writeFastVLine(int16_t x, int16_t y, int16_t h, uint16_t color){
    2790:	b537      	push	{r0, r1, r2, r4, r5, lr}
    2792:	ac06      	add	r4, sp, #24
    2794:	8825      	ldrh	r5, [r4, #0]
    writeFillRect(x, y, 1, h, color);
    2796:	6804      	ldr	r4, [r0, #0]
    2798:	9501      	str	r5, [sp, #4]
    279a:	9300      	str	r3, [sp, #0]
    279c:	69e4      	ldr	r4, [r4, #28]
    279e:	2301      	movs	r3, #1
    27a0:	47a0      	blx	r4
}
    27a2:	bd37      	pop	{r0, r1, r2, r4, r5, pc}

000027a4 <_ZN16Adafruit_ILI934114writeFastHLineEssst>:

void Adafruit_ILI9341::writeFastHLine(int16_t x, int16_t y, int16_t w, uint16_t color){
    27a4:	b537      	push	{r0, r1, r2, r4, r5, lr}
    27a6:	ac06      	add	r4, sp, #24
    27a8:	8825      	ldrh	r5, [r4, #0]
    writeFillRect(x, y, w, 1, color);
    27aa:	6804      	ldr	r4, [r0, #0]
    27ac:	9501      	str	r5, [sp, #4]
    27ae:	2501      	movs	r5, #1
    27b0:	9500      	str	r5, [sp, #0]
    27b2:	69e4      	ldr	r4, [r4, #28]
    27b4:	47a0      	blx	r4
}
    27b6:	bd37      	pop	{r0, r1, r2, r4, r5, pc}

000027b8 <_ZN16Adafruit_ILI93419drawPixelEsst>:
    endWrite();
    _freq = freq;
    return r;
}

void Adafruit_ILI9341::drawPixel(int16_t x, int16_t y, uint16_t color){
    27b8:	b5f7      	push	{r0, r1, r2, r4, r5, r6, r7, lr}
    27ba:	0004      	movs	r4, r0
    27bc:	0016      	movs	r6, r2
    27be:	001f      	movs	r7, r3
    startWrite();
    27c0:	6803      	ldr	r3, [r0, #0]
void Adafruit_ILI9341::drawPixel(int16_t x, int16_t y, uint16_t color){
    27c2:	9101      	str	r1, [sp, #4]
    startWrite();
    27c4:	695b      	ldr	r3, [r3, #20]
    27c6:	4798      	blx	r3
    writePixel(x, y, color);
    27c8:	6823      	ldr	r3, [r4, #0]
    27ca:	0032      	movs	r2, r6
    27cc:	699d      	ldr	r5, [r3, #24]
    27ce:	9901      	ldr	r1, [sp, #4]
    27d0:	003b      	movs	r3, r7
    27d2:	0020      	movs	r0, r4
    27d4:	47a8      	blx	r5
    endWrite();
    27d6:	6823      	ldr	r3, [r4, #0]
    27d8:	0020      	movs	r0, r4
    27da:	6adb      	ldr	r3, [r3, #44]	; 0x2c
    27dc:	4798      	blx	r3
}
    27de:	bdf7      	pop	{r0, r1, r2, r4, r5, r6, r7, pc}

000027e0 <_ZN16Adafruit_ILI934113drawFastVLineEssst>:

void Adafruit_ILI9341::drawFastVLine(int16_t x, int16_t y,
        int16_t h, uint16_t color) {
    27e0:	b5f0      	push	{r4, r5, r6, r7, lr}
    27e2:	0004      	movs	r4, r0
    27e4:	0016      	movs	r6, r2
    27e6:	001f      	movs	r7, r3
    27e8:	b085      	sub	sp, #20
    27ea:	ab0a      	add	r3, sp, #40	; 0x28
    27ec:	881d      	ldrh	r5, [r3, #0]
    startWrite();
    27ee:	6803      	ldr	r3, [r0, #0]
        int16_t h, uint16_t color) {
    27f0:	9103      	str	r1, [sp, #12]
    startWrite();
    27f2:	695b      	ldr	r3, [r3, #20]
    27f4:	4798      	blx	r3
    writeFastVLine(x, y, h, color);
    27f6:	6823      	ldr	r3, [r4, #0]
    27f8:	9500      	str	r5, [sp, #0]
    27fa:	6a1d      	ldr	r5, [r3, #32]
    27fc:	0032      	movs	r2, r6
    27fe:	003b      	movs	r3, r7
    2800:	9903      	ldr	r1, [sp, #12]
    2802:	0020      	movs	r0, r4
    2804:	47a8      	blx	r5
    endWrite();
    2806:	6823      	ldr	r3, [r4, #0]
    2808:	0020      	movs	r0, r4
    280a:	6adb      	ldr	r3, [r3, #44]	; 0x2c
    280c:	4798      	blx	r3
}
    280e:	b005      	add	sp, #20
    2810:	bdf0      	pop	{r4, r5, r6, r7, pc}

00002812 <_ZN16Adafruit_ILI934113drawFastHLineEssst>:

void Adafruit_ILI9341::drawFastHLine(int16_t x, int16_t y,
        int16_t w, uint16_t color) {
    2812:	b5f0      	push	{r4, r5, r6, r7, lr}
    2814:	0004      	movs	r4, r0
    2816:	0016      	movs	r6, r2
    2818:	001f      	movs	r7, r3
    281a:	b085      	sub	sp, #20
    281c:	ab0a      	add	r3, sp, #40	; 0x28
    281e:	881d      	ldrh	r5, [r3, #0]
    startWrite();
    2820:	6803      	ldr	r3, [r0, #0]
        int16_t w, uint16_t color) {
    2822:	9103      	str	r1, [sp, #12]
    startWrite();
    2824:	695b      	ldr	r3, [r3, #20]
    2826:	4798      	blx	r3
    writeFastHLine(x, y, w, color);
    2828:	6823      	ldr	r3, [r4, #0]
    282a:	9500      	str	r5, [sp, #0]
    282c:	6a5d      	ldr	r5, [r3, #36]	; 0x24
    282e:	0032      	movs	r2, r6
    2830:	003b      	movs	r3, r7
    2832:	9903      	ldr	r1, [sp, #12]
    2834:	0020      	movs	r0, r4
    2836:	47a8      	blx	r5
    endWrite();
    2838:	6823      	ldr	r3, [r4, #0]
    283a:	0020      	movs	r0, r4
    283c:	6adb      	ldr	r3, [r3, #44]	; 0x2c
    283e:	4798      	blx	r3
}
    2840:	b005      	add	sp, #20
    2842:	bdf0      	pop	{r4, r5, r6, r7, pc}

00002844 <_ZN16Adafruit_ILI93418fillRectEsssst>:

void Adafruit_ILI9341::fillRect(int16_t x, int16_t y, int16_t w, int16_t h,
        uint16_t color) {
    2844:	b5f0      	push	{r4, r5, r6, r7, lr}
    2846:	0004      	movs	r4, r0
    2848:	001d      	movs	r5, r3
    284a:	b085      	sub	sp, #20
    284c:	ab0a      	add	r3, sp, #40	; 0x28
    284e:	2600      	movs	r6, #0
    2850:	5f9e      	ldrsh	r6, [r3, r6]
    2852:	ab0b      	add	r3, sp, #44	; 0x2c
    2854:	881f      	ldrh	r7, [r3, #0]
    startWrite();
    2856:	6803      	ldr	r3, [r0, #0]
        uint16_t color) {
    2858:	9102      	str	r1, [sp, #8]
    285a:	9203      	str	r2, [sp, #12]
    startWrite();
    285c:	695b      	ldr	r3, [r3, #20]
    285e:	4798      	blx	r3
    writeFillRect(x,y,w,h,color);
    2860:	6823      	ldr	r3, [r4, #0]
    2862:	9701      	str	r7, [sp, #4]
    2864:	9600      	str	r6, [sp, #0]
    2866:	69de      	ldr	r6, [r3, #28]
    2868:	9a03      	ldr	r2, [sp, #12]
    286a:	002b      	movs	r3, r5
    286c:	9902      	ldr	r1, [sp, #8]
    286e:	0020      	movs	r0, r4
    2870:	47b0      	blx	r6
    endWrite();
    2872:	6823      	ldr	r3, [r4, #0]
    2874:	0020      	movs	r0, r4
    2876:	6adb      	ldr	r3, [r3, #44]	; 0x2c
    2878:	4798      	blx	r3
}
    287a:	b005      	add	sp, #20
    287c:	bdf0      	pop	{r4, r5, r6, r7, pc}
	...

00002880 <_ZN16Adafruit_ILI934110startWriteEv>:
    SPI_BEGIN_TRANSACTION();
    2880:	6b03      	ldr	r3, [r0, #48]	; 0x30
void Adafruit_ILI9341::startWrite(void){
    2882:	b513      	push	{r0, r1, r4, lr}
    2884:	0004      	movs	r4, r0
    SPI_BEGIN_TRANSACTION();
    2886:	2b00      	cmp	r3, #0
    2888:	da0d      	bge.n	28a6 <_ZN16Adafruit_ILI934110startWriteEv+0x26>
  void init_MightInline(uint32_t clock, BitOrder bitOrder, uint8_t dataMode) {
    init_AlwaysInline(clock, bitOrder, dataMode);
  }

  void init_AlwaysInline(uint32_t clock, BitOrder bitOrder, uint8_t dataMode) __attribute__((__always_inline__)) {
    this->clockFreq = (clock >= (F_CPU / SPI_MIN_CLOCK_DIVIDER) ? F_CPU / SPI_MIN_CLOCK_DIVIDER : clock);
    288a:	6a01      	ldr	r1, [r0, #32]
    288c:	4b09      	ldr	r3, [pc, #36]	; (28b4 <_ZN16Adafruit_ILI934110startWriteEv+0x34>)
    288e:	4299      	cmp	r1, r3
    2890:	d900      	bls.n	2894 <_ZN16Adafruit_ILI934110startWriteEv+0x14>
    2892:	0019      	movs	r1, r3

    this->bitOrder = (bitOrder == MSBFIRST ? MSB_FIRST : LSB_FIRST);
    2894:	466a      	mov	r2, sp
    2896:	2300      	movs	r3, #0
    2898:	7153      	strb	r3, [r2, #5]

    switch (dataMode)
    {
      case SPI_MODE0:
        this->dataMode = SERCOM_SPI_MODE_0; break;
    289a:	7113      	strb	r3, [r2, #4]
    289c:	9a01      	ldr	r2, [sp, #4]
    289e:	4806      	ldr	r0, [pc, #24]	; (28b8 <_ZN16Adafruit_ILI934110startWriteEv+0x38>)
    this->clockFreq = (clock >= (F_CPU / SPI_MIN_CLOCK_DIVIDER) ? F_CPU / SPI_MIN_CLOCK_DIVIDER : clock);
    28a0:	9100      	str	r1, [sp, #0]
    28a2:	f001 fe37 	bl	4514 <_ZN8SPIClass16beginTransactionE11SPISettings>
    SPI_CS_LOW();
    28a6:	6ce2      	ldr	r2, [r4, #76]	; 0x4c
    28a8:	6de1      	ldr	r1, [r4, #92]	; 0x5c
    28aa:	6813      	ldr	r3, [r2, #0]
    28ac:	438b      	bics	r3, r1
    28ae:	6013      	str	r3, [r2, #0]
}
    28b0:	bd13      	pop	{r0, r1, r4, pc}
    28b2:	46c0      	nop			; (mov r8, r8)
    28b4:	00b71b00 	.word	0x00b71b00
    28b8:	20000a04 	.word	0x20000a04

000028bc <_ZN16Adafruit_ILI93418endWriteEv>:
    SPI_CS_HIGH();
    28bc:	6cc2      	ldr	r2, [r0, #76]	; 0x4c
    28be:	6dc1      	ldr	r1, [r0, #92]	; 0x5c
    28c0:	6813      	ldr	r3, [r2, #0]
void Adafruit_ILI9341::endWrite(void){
    28c2:	b510      	push	{r4, lr}
    SPI_CS_HIGH();
    28c4:	430b      	orrs	r3, r1
    28c6:	6013      	str	r3, [r2, #0]
    SPI_END_TRANSACTION();
    28c8:	6b03      	ldr	r3, [r0, #48]	; 0x30
    28ca:	2b00      	cmp	r3, #0
    28cc:	da02      	bge.n	28d4 <_ZN16Adafruit_ILI93418endWriteEv+0x18>
    28ce:	4802      	ldr	r0, [pc, #8]	; (28d8 <_ZN16Adafruit_ILI93418endWriteEv+0x1c>)
    28d0:	f001 fe3c 	bl	454c <_ZN8SPIClass14endTransactionEv>
}
    28d4:	bd10      	pop	{r4, pc}
    28d6:	46c0      	nop			; (mov r8, r8)
    28d8:	20000a04 	.word	0x20000a04

000028dc <_ZN16Adafruit_ILI93418color565Ehhh>:
    return ((r & 0xF8) << 8) | ((g & 0xFC) << 3) | ((b & 0xF8) >> 3);
    28dc:	20fc      	movs	r0, #252	; 0xfc
    28de:	00d2      	lsls	r2, r2, #3
    28e0:	00c0      	lsls	r0, r0, #3
    28e2:	4002      	ands	r2, r0
    28e4:	08c9      	lsrs	r1, r1, #3
    28e6:	08d8      	lsrs	r0, r3, #3
    28e8:	4310      	orrs	r0, r2
    28ea:	02c9      	lsls	r1, r1, #11
    28ec:	4308      	orrs	r0, r1
}
    28ee:	4770      	bx	lr

000028f0 <_ZN16Adafruit_ILI9341C1Eaaa>:
Adafruit_ILI9341::Adafruit_ILI9341(int8_t cs, int8_t dc, int8_t rst) : Adafruit_GFX(ILI9341_TFTWIDTH, ILI9341_TFTHEIGHT) {
    28f0:	b5f8      	push	{r3, r4, r5, r6, r7, lr}
    28f2:	0016      	movs	r6, r2
    28f4:	22a0      	movs	r2, #160	; 0xa0
    28f6:	000d      	movs	r5, r1
    28f8:	0052      	lsls	r2, r2, #1
    28fa:	21f0      	movs	r1, #240	; 0xf0
    28fc:	0004      	movs	r4, r0
    28fe:	001f      	movs	r7, r3
    2900:	f002 fa0c 	bl	4d1c <_ZN12Adafruit_GFXC1Ess>
    csport    = portOutputRegister(digitalPinToPort(_cs));
    2904:	2118      	movs	r1, #24
    _cs   = cs;
    2906:	6265      	str	r5, [r4, #36]	; 0x24
    csport    = portOutputRegister(digitalPinToPort(_cs));
    2908:	434d      	muls	r5, r1
Adafruit_ILI9341::Adafruit_ILI9341(int8_t cs, int8_t dc, int8_t rst) : Adafruit_GFX(ILI9341_TFTWIDTH, ILI9341_TFTHEIGHT) {
    290a:	4b15      	ldr	r3, [pc, #84]	; (2960 <_ZN16Adafruit_ILI9341C1Eaaa+0x70>)
    csport    = portOutputRegister(digitalPinToPort(_cs));
    290c:	4a15      	ldr	r2, [pc, #84]	; (2964 <_ZN16Adafruit_ILI9341C1Eaaa+0x74>)
Adafruit_ILI9341::Adafruit_ILI9341(int8_t cs, int8_t dc, int8_t rst) : Adafruit_GFX(ILI9341_TFTWIDTH, ILI9341_TFTHEIGHT) {
    290e:	3308      	adds	r3, #8
    csport    = portOutputRegister(digitalPinToPort(_cs));
    2910:	56a8      	ldrsb	r0, [r5, r2]
Adafruit_ILI9341::Adafruit_ILI9341(int8_t cs, int8_t dc, int8_t rst) : Adafruit_GFX(ILI9341_TFTWIDTH, ILI9341_TFTHEIGHT) {
    2912:	6023      	str	r3, [r4, #0]
    _sclk  = -1;
    2914:	2301      	movs	r3, #1
    _rst  = rst;
    2916:	62e7      	str	r7, [r4, #44]	; 0x2c
    csport    = portOutputRegister(digitalPinToPort(_cs));
    2918:	4f13      	ldr	r7, [pc, #76]	; (2968 <_ZN16Adafruit_ILI9341C1Eaaa+0x78>)
    291a:	01c0      	lsls	r0, r0, #7
    291c:	19c0      	adds	r0, r0, r7
    291e:	64e0      	str	r0, [r4, #76]	; 0x4c
    cspinmask = digitalPinToBitMask(_cs);
    2920:	2001      	movs	r0, #1
    _sclk  = -1;
    2922:	425b      	negs	r3, r3
    2924:	6323      	str	r3, [r4, #48]	; 0x30
    _mosi  = -1;
    2926:	6363      	str	r3, [r4, #52]	; 0x34
    _miso  = -1;
    2928:	63a3      	str	r3, [r4, #56]	; 0x38
    _freq = 0;
    292a:	2300      	movs	r3, #0
    cspinmask = digitalPinToBitMask(_cs);
    292c:	0007      	movs	r7, r0
    _dc   = dc;
    292e:	62a6      	str	r6, [r4, #40]	; 0x28
    _freq = 0;
    2930:	6223      	str	r3, [r4, #32]
    cspinmask = digitalPinToBitMask(_cs);
    2932:	1955      	adds	r5, r2, r5
    2934:	686d      	ldr	r5, [r5, #4]
    dcport    = portOutputRegister(digitalPinToPort(_dc));
    2936:	434e      	muls	r6, r1
    cspinmask = digitalPinToBitMask(_cs);
    2938:	40af      	lsls	r7, r5
    dcport    = portOutputRegister(digitalPinToPort(_dc));
    293a:	56b1      	ldrsb	r1, [r6, r2]
    cspinmask = digitalPinToBitMask(_cs);
    293c:	65e7      	str	r7, [r4, #92]	; 0x5c
    dcpinmask = digitalPinToBitMask(_dc);
    293e:	1992      	adds	r2, r2, r6
    2940:	6852      	ldr	r2, [r2, #4]
    dcport    = portOutputRegister(digitalPinToPort(_dc));
    2942:	4d09      	ldr	r5, [pc, #36]	; (2968 <_ZN16Adafruit_ILI9341C1Eaaa+0x78>)
    dcpinmask = digitalPinToBitMask(_dc);
    2944:	4090      	lsls	r0, r2
    dcport    = portOutputRegister(digitalPinToPort(_dc));
    2946:	01c9      	lsls	r1, r1, #7
    2948:	1949      	adds	r1, r1, r5
    dcpinmask = digitalPinToBitMask(_dc);
    294a:	6620      	str	r0, [r4, #96]	; 0x60
    dcport    = portOutputRegister(digitalPinToPort(_dc));
    294c:	64a1      	str	r1, [r4, #72]	; 0x48
}
    294e:	0020      	movs	r0, r4
    clkport     = 0;
    2950:	6463      	str	r3, [r4, #68]	; 0x44
    clkpinmask  = 0;
    2952:	65a3      	str	r3, [r4, #88]	; 0x58
    mosiport    = 0;
    2954:	63e3      	str	r3, [r4, #60]	; 0x3c
    mosipinmask = 0;
    2956:	6523      	str	r3, [r4, #80]	; 0x50
    misoport    = 0;
    2958:	6423      	str	r3, [r4, #64]	; 0x40
    misopinmask = 0;
    295a:	6563      	str	r3, [r4, #84]	; 0x54
}
    295c:	bdf8      	pop	{r3, r4, r5, r6, r7, pc}
    295e:	46c0      	nop			; (mov r8, r8)
    2960:	000060b4 	.word	0x000060b4
    2964:	00006180 	.word	0x00006180
    2968:	41004410 	.word	0x41004410

0000296c <_ZN16Adafruit_ILI93418spiWriteEh>:
void Adafruit_ILI9341::spiWrite(uint8_t b) {
    296c:	b5f8      	push	{r3, r4, r5, r6, r7, lr}
    if(_sclk < 0){
    296e:	6b03      	ldr	r3, [r0, #48]	; 0x30
    2970:	2b00      	cmp	r3, #0
    2972:	da03      	bge.n	297c <_ZN16Adafruit_ILI93418spiWriteEh+0x10>
        HSPI_WRITE(b);
    2974:	480e      	ldr	r0, [pc, #56]	; (29b0 <_ZN16Adafruit_ILI93418spiWriteEh+0x44>)
    2976:	f001 fdfd 	bl	4574 <_ZN8SPIClass8transferEh>
}
    297a:	bdf8      	pop	{r3, r4, r5, r6, r7, pc}
        SSPI_SCK_LOW();
    297c:	2408      	movs	r4, #8
    297e:	2580      	movs	r5, #128	; 0x80
    2980:	6c43      	ldr	r3, [r0, #68]	; 0x44
    2982:	6bc2      	ldr	r2, [r0, #60]	; 0x3c
    2984:	6d07      	ldr	r7, [r0, #80]	; 0x50
            SSPI_MOSI_HIGH();
    2986:	6816      	ldr	r6, [r2, #0]
        if((b) & bit){
    2988:	420d      	tst	r5, r1
    298a:	d00e      	beq.n	29aa <_ZN16Adafruit_ILI93418spiWriteEh+0x3e>
            SSPI_MOSI_HIGH();
    298c:	433e      	orrs	r6, r7
            SSPI_MOSI_LOW();
    298e:	6016      	str	r6, [r2, #0]
        SSPI_SCK_LOW();
    2990:	681a      	ldr	r2, [r3, #0]
    2992:	6d86      	ldr	r6, [r0, #88]	; 0x58
    2994:	3c01      	subs	r4, #1
    2996:	43b2      	bics	r2, r6
    2998:	601a      	str	r2, [r3, #0]
        SSPI_SCK_HIGH();
    299a:	681a      	ldr	r2, [r3, #0]
    299c:	6d86      	ldr	r6, [r0, #88]	; 0x58
    for(uint8_t bit = 0x80; bit; bit >>= 1){
    299e:	086d      	lsrs	r5, r5, #1
        SSPI_SCK_HIGH();
    29a0:	4332      	orrs	r2, r6
    29a2:	601a      	str	r2, [r3, #0]
    for(uint8_t bit = 0x80; bit; bit >>= 1){
    29a4:	2c00      	cmp	r4, #0
    29a6:	d1ec      	bne.n	2982 <_ZN16Adafruit_ILI93418spiWriteEh+0x16>
    29a8:	e7e7      	b.n	297a <_ZN16Adafruit_ILI93418spiWriteEh+0xe>
            SSPI_MOSI_LOW();
    29aa:	43be      	bics	r6, r7
    29ac:	e7ef      	b.n	298e <_ZN16Adafruit_ILI93418spiWriteEh+0x22>
    29ae:	46c0      	nop			; (mov r8, r8)
    29b0:	20000a04 	.word	0x20000a04

000029b4 <_ZN16Adafruit_ILI934112writeCommandEh>:
void Adafruit_ILI9341::writeCommand(uint8_t cmd){
    29b4:	b510      	push	{r4, lr}
    29b6:	0004      	movs	r4, r0
    SPI_DC_LOW();
    29b8:	6c82      	ldr	r2, [r0, #72]	; 0x48
    29ba:	6e00      	ldr	r0, [r0, #96]	; 0x60
    29bc:	6813      	ldr	r3, [r2, #0]
    29be:	4383      	bics	r3, r0
    29c0:	6013      	str	r3, [r2, #0]
    spiWrite(cmd);
    29c2:	0020      	movs	r0, r4
    29c4:	f7ff ffd2 	bl	296c <_ZN16Adafruit_ILI93418spiWriteEh>
    SPI_DC_HIGH();
    29c8:	6ca2      	ldr	r2, [r4, #72]	; 0x48
    29ca:	6e21      	ldr	r1, [r4, #96]	; 0x60
    29cc:	6813      	ldr	r3, [r2, #0]
    29ce:	430b      	orrs	r3, r1
    29d0:	6013      	str	r3, [r2, #0]
}
    29d2:	bd10      	pop	{r4, pc}

000029d4 <_ZN16Adafruit_ILI93415beginEm>:
{
    29d4:	b570      	push	{r4, r5, r6, lr}
    29d6:	0004      	movs	r4, r0
    if(!freq){
    29d8:	2900      	cmp	r1, #0
    29da:	d100      	bne.n	29de <_ZN16Adafruit_ILI93415beginEm+0xa>
        freq = SPI_DEFAULT_FREQ;
    29dc:	49e8      	ldr	r1, [pc, #928]	; (2d80 <_ZN16Adafruit_ILI93415beginEm+0x3ac>)
    _freq = freq;
    29de:	6221      	str	r1, [r4, #32]
    pinMode(_dc, OUTPUT);
    29e0:	6aa0      	ldr	r0, [r4, #40]	; 0x28
    29e2:	2101      	movs	r1, #1
    29e4:	f7ff fc78 	bl	22d8 <pinMode>
    digitalWrite(_dc, LOW);
    29e8:	2100      	movs	r1, #0
    29ea:	6aa0      	ldr	r0, [r4, #40]	; 0x28
    29ec:	f7ff fcc0 	bl	2370 <digitalWrite>
    pinMode(_cs, OUTPUT);
    29f0:	2101      	movs	r1, #1
    29f2:	6a60      	ldr	r0, [r4, #36]	; 0x24
    29f4:	f7ff fc70 	bl	22d8 <pinMode>
    digitalWrite(_cs, HIGH);
    29f8:	2101      	movs	r1, #1
    29fa:	6a60      	ldr	r0, [r4, #36]	; 0x24
    29fc:	f7ff fcb8 	bl	2370 <digitalWrite>
    if(_sclk >= 0){
    2a00:	6b23      	ldr	r3, [r4, #48]	; 0x30
    2a02:	2b00      	cmp	r3, #0
    2a04:	db18      	blt.n	2a38 <_ZN16Adafruit_ILI93415beginEm+0x64>
        pinMode(_mosi, OUTPUT);
    2a06:	2101      	movs	r1, #1
    2a08:	6b60      	ldr	r0, [r4, #52]	; 0x34
    2a0a:	f7ff fc65 	bl	22d8 <pinMode>
        digitalWrite(_mosi, LOW);
    2a0e:	2100      	movs	r1, #0
    2a10:	6b60      	ldr	r0, [r4, #52]	; 0x34
    2a12:	f7ff fcad 	bl	2370 <digitalWrite>
        pinMode(_sclk, OUTPUT);
    2a16:	2101      	movs	r1, #1
    2a18:	6b20      	ldr	r0, [r4, #48]	; 0x30
    2a1a:	f7ff fc5d 	bl	22d8 <pinMode>
        digitalWrite(_sclk, HIGH);
    2a1e:	6b20      	ldr	r0, [r4, #48]	; 0x30
    2a20:	2101      	movs	r1, #1
    2a22:	f7ff fca5 	bl	2370 <digitalWrite>
        if(_miso >= 0){
    2a26:	6ba0      	ldr	r0, [r4, #56]	; 0x38
    2a28:	2800      	cmp	r0, #0
    2a2a:	db02      	blt.n	2a32 <_ZN16Adafruit_ILI93415beginEm+0x5e>
            pinMode(_miso, INPUT);
    2a2c:	2100      	movs	r1, #0
    2a2e:	f7ff fc53 	bl	22d8 <pinMode>
    SPI_BEGIN();
    2a32:	6b23      	ldr	r3, [r4, #48]	; 0x30
    2a34:	2b00      	cmp	r3, #0
    2a36:	da02      	bge.n	2a3e <_ZN16Adafruit_ILI93415beginEm+0x6a>
    2a38:	48d2      	ldr	r0, [pc, #840]	; (2d84 <_ZN16Adafruit_ILI93415beginEm+0x3b0>)
    2a3a:	f001 fd43 	bl	44c4 <_ZN8SPIClass5beginEv>
    if (_rst >= 0) {
    2a3e:	6ae0      	ldr	r0, [r4, #44]	; 0x2c
    2a40:	2800      	cmp	r0, #0
    2a42:	db17      	blt.n	2a74 <_ZN16Adafruit_ILI93415beginEm+0xa0>
        pinMode(_rst, OUTPUT);
    2a44:	2101      	movs	r1, #1
    2a46:	f7ff fc47 	bl	22d8 <pinMode>
        digitalWrite(_rst, HIGH);
    2a4a:	2101      	movs	r1, #1
    2a4c:	6ae0      	ldr	r0, [r4, #44]	; 0x2c
    2a4e:	f7ff fc8f 	bl	2370 <digitalWrite>
        delay(100);
    2a52:	2064      	movs	r0, #100	; 0x64
    2a54:	f7fd ffec 	bl	a30 <delay>
        digitalWrite(_rst, LOW);
    2a58:	2100      	movs	r1, #0
    2a5a:	6ae0      	ldr	r0, [r4, #44]	; 0x2c
    2a5c:	f7ff fc88 	bl	2370 <digitalWrite>
        delay(100);
    2a60:	2064      	movs	r0, #100	; 0x64
    2a62:	f7fd ffe5 	bl	a30 <delay>
        digitalWrite(_rst, HIGH);
    2a66:	6ae0      	ldr	r0, [r4, #44]	; 0x2c
    2a68:	2101      	movs	r1, #1
    2a6a:	f7ff fc81 	bl	2370 <digitalWrite>
        delay(200);
    2a6e:	20c8      	movs	r0, #200	; 0xc8
    2a70:	f7fd ffde 	bl	a30 <delay>
    startWrite();
    2a74:	6823      	ldr	r3, [r4, #0]
    2a76:	0020      	movs	r0, r4
    2a78:	695b      	ldr	r3, [r3, #20]
    2a7a:	4798      	blx	r3
    writeCommand(0xEF);
    2a7c:	21ef      	movs	r1, #239	; 0xef
    2a7e:	0020      	movs	r0, r4
    2a80:	f7ff ff98 	bl	29b4 <_ZN16Adafruit_ILI934112writeCommandEh>
    spiWrite(0x03);
    2a84:	2103      	movs	r1, #3
    2a86:	0020      	movs	r0, r4
    2a88:	f7ff ff70 	bl	296c <_ZN16Adafruit_ILI93418spiWriteEh>
    spiWrite(0x80);
    2a8c:	2180      	movs	r1, #128	; 0x80
    2a8e:	0020      	movs	r0, r4
    2a90:	f7ff ff6c 	bl	296c <_ZN16Adafruit_ILI93418spiWriteEh>
    spiWrite(0x02);
    2a94:	2102      	movs	r1, #2
    2a96:	0020      	movs	r0, r4
    2a98:	f7ff ff68 	bl	296c <_ZN16Adafruit_ILI93418spiWriteEh>
    writeCommand(0xCF);
    2a9c:	21cf      	movs	r1, #207	; 0xcf
    2a9e:	0020      	movs	r0, r4
    2aa0:	f7ff ff88 	bl	29b4 <_ZN16Adafruit_ILI934112writeCommandEh>
    spiWrite(0x00);
    2aa4:	2100      	movs	r1, #0
    2aa6:	0020      	movs	r0, r4
    2aa8:	f7ff ff60 	bl	296c <_ZN16Adafruit_ILI93418spiWriteEh>
    spiWrite(0XC1);
    2aac:	21c1      	movs	r1, #193	; 0xc1
    2aae:	0020      	movs	r0, r4
    2ab0:	f7ff ff5c 	bl	296c <_ZN16Adafruit_ILI93418spiWriteEh>
    spiWrite(0X30);
    2ab4:	2130      	movs	r1, #48	; 0x30
    2ab6:	0020      	movs	r0, r4
    2ab8:	f7ff ff58 	bl	296c <_ZN16Adafruit_ILI93418spiWriteEh>
    writeCommand(0xED);
    2abc:	21ed      	movs	r1, #237	; 0xed
    2abe:	0020      	movs	r0, r4
    2ac0:	f7ff ff78 	bl	29b4 <_ZN16Adafruit_ILI934112writeCommandEh>
    spiWrite(0x64);
    2ac4:	2164      	movs	r1, #100	; 0x64
    2ac6:	0020      	movs	r0, r4
    2ac8:	f7ff ff50 	bl	296c <_ZN16Adafruit_ILI93418spiWriteEh>
    spiWrite(0x03);
    2acc:	2103      	movs	r1, #3
    2ace:	0020      	movs	r0, r4
    2ad0:	f7ff ff4c 	bl	296c <_ZN16Adafruit_ILI93418spiWriteEh>
    spiWrite(0X12);
    2ad4:	2112      	movs	r1, #18
    2ad6:	0020      	movs	r0, r4
    2ad8:	f7ff ff48 	bl	296c <_ZN16Adafruit_ILI93418spiWriteEh>
    spiWrite(0X81);
    2adc:	2181      	movs	r1, #129	; 0x81
    2ade:	0020      	movs	r0, r4
    2ae0:	f7ff ff44 	bl	296c <_ZN16Adafruit_ILI93418spiWriteEh>
    writeCommand(0xE8);
    2ae4:	21e8      	movs	r1, #232	; 0xe8
    2ae6:	0020      	movs	r0, r4
    2ae8:	f7ff ff64 	bl	29b4 <_ZN16Adafruit_ILI934112writeCommandEh>
    spiWrite(0x85);
    2aec:	2185      	movs	r1, #133	; 0x85
    2aee:	0020      	movs	r0, r4
    2af0:	f7ff ff3c 	bl	296c <_ZN16Adafruit_ILI93418spiWriteEh>
    spiWrite(0x00);
    2af4:	2100      	movs	r1, #0
    2af6:	0020      	movs	r0, r4
    2af8:	f7ff ff38 	bl	296c <_ZN16Adafruit_ILI93418spiWriteEh>
    spiWrite(0x78);
    2afc:	2178      	movs	r1, #120	; 0x78
    2afe:	0020      	movs	r0, r4
    2b00:	f7ff ff34 	bl	296c <_ZN16Adafruit_ILI93418spiWriteEh>
    writeCommand(0xCB);
    2b04:	21cb      	movs	r1, #203	; 0xcb
    2b06:	0020      	movs	r0, r4
    2b08:	f7ff ff54 	bl	29b4 <_ZN16Adafruit_ILI934112writeCommandEh>
    spiWrite(0x39);
    2b0c:	2139      	movs	r1, #57	; 0x39
    2b0e:	0020      	movs	r0, r4
    2b10:	f7ff ff2c 	bl	296c <_ZN16Adafruit_ILI93418spiWriteEh>
    spiWrite(0x2C);
    2b14:	212c      	movs	r1, #44	; 0x2c
    2b16:	0020      	movs	r0, r4
    2b18:	f7ff ff28 	bl	296c <_ZN16Adafruit_ILI93418spiWriteEh>
    spiWrite(0x00);
    2b1c:	2100      	movs	r1, #0
    2b1e:	0020      	movs	r0, r4
    2b20:	f7ff ff24 	bl	296c <_ZN16Adafruit_ILI93418spiWriteEh>
    spiWrite(0x34);
    2b24:	2134      	movs	r1, #52	; 0x34
    2b26:	0020      	movs	r0, r4
    2b28:	f7ff ff20 	bl	296c <_ZN16Adafruit_ILI93418spiWriteEh>
    spiWrite(0x02);
    2b2c:	2102      	movs	r1, #2
    2b2e:	0020      	movs	r0, r4
    2b30:	f7ff ff1c 	bl	296c <_ZN16Adafruit_ILI93418spiWriteEh>
    writeCommand(0xF7);
    2b34:	21f7      	movs	r1, #247	; 0xf7
    2b36:	0020      	movs	r0, r4
    2b38:	f7ff ff3c 	bl	29b4 <_ZN16Adafruit_ILI934112writeCommandEh>
    spiWrite(0x20);
    2b3c:	2120      	movs	r1, #32
    2b3e:	0020      	movs	r0, r4
    2b40:	f7ff ff14 	bl	296c <_ZN16Adafruit_ILI93418spiWriteEh>
    writeCommand(0xEA);
    2b44:	21ea      	movs	r1, #234	; 0xea
    2b46:	0020      	movs	r0, r4
    2b48:	f7ff ff34 	bl	29b4 <_ZN16Adafruit_ILI934112writeCommandEh>
    spiWrite(0x00);
    2b4c:	2100      	movs	r1, #0
    2b4e:	0020      	movs	r0, r4
    2b50:	f7ff ff0c 	bl	296c <_ZN16Adafruit_ILI93418spiWriteEh>
    spiWrite(0x00);
    2b54:	2100      	movs	r1, #0
    2b56:	0020      	movs	r0, r4
    2b58:	f7ff ff08 	bl	296c <_ZN16Adafruit_ILI93418spiWriteEh>
    writeCommand(ILI9341_PWCTR1);    //Power control
    2b5c:	21c0      	movs	r1, #192	; 0xc0
    2b5e:	0020      	movs	r0, r4
    2b60:	f7ff ff28 	bl	29b4 <_ZN16Adafruit_ILI934112writeCommandEh>
    spiWrite(0x23);   //VRH[5:0]
    2b64:	2123      	movs	r1, #35	; 0x23
    2b66:	0020      	movs	r0, r4
    2b68:	f7ff ff00 	bl	296c <_ZN16Adafruit_ILI93418spiWriteEh>
    writeCommand(ILI9341_PWCTR2);    //Power control
    2b6c:	21c1      	movs	r1, #193	; 0xc1
    2b6e:	0020      	movs	r0, r4
    2b70:	f7ff ff20 	bl	29b4 <_ZN16Adafruit_ILI934112writeCommandEh>
    spiWrite(0x10);   //SAP[2:0];BT[3:0]
    2b74:	2110      	movs	r1, #16
    2b76:	0020      	movs	r0, r4
    2b78:	f7ff fef8 	bl	296c <_ZN16Adafruit_ILI93418spiWriteEh>
    writeCommand(ILI9341_VMCTR1);    //VCM control
    2b7c:	21c5      	movs	r1, #197	; 0xc5
    2b7e:	0020      	movs	r0, r4
    2b80:	f7ff ff18 	bl	29b4 <_ZN16Adafruit_ILI934112writeCommandEh>
    spiWrite(0x3e);
    2b84:	213e      	movs	r1, #62	; 0x3e
    2b86:	0020      	movs	r0, r4
    2b88:	f7ff fef0 	bl	296c <_ZN16Adafruit_ILI93418spiWriteEh>
    spiWrite(0x28);
    2b8c:	2128      	movs	r1, #40	; 0x28
    2b8e:	0020      	movs	r0, r4
    2b90:	f7ff feec 	bl	296c <_ZN16Adafruit_ILI93418spiWriteEh>
    writeCommand(ILI9341_VMCTR2);    //VCM control2
    2b94:	21c7      	movs	r1, #199	; 0xc7
    2b96:	0020      	movs	r0, r4
    2b98:	f7ff ff0c 	bl	29b4 <_ZN16Adafruit_ILI934112writeCommandEh>
    spiWrite(0x86);  //--
    2b9c:	2186      	movs	r1, #134	; 0x86
    2b9e:	0020      	movs	r0, r4
    2ba0:	f7ff fee4 	bl	296c <_ZN16Adafruit_ILI93418spiWriteEh>
    writeCommand(ILI9341_MADCTL);    // Memory Access Control
    2ba4:	2136      	movs	r1, #54	; 0x36
    2ba6:	0020      	movs	r0, r4
    2ba8:	f7ff ff04 	bl	29b4 <_ZN16Adafruit_ILI934112writeCommandEh>
    spiWrite(0x48);
    2bac:	2148      	movs	r1, #72	; 0x48
    2bae:	0020      	movs	r0, r4
    2bb0:	f7ff fedc 	bl	296c <_ZN16Adafruit_ILI93418spiWriteEh>
    writeCommand(ILI9341_VSCRSADD); // Vertical scroll
    2bb4:	2137      	movs	r1, #55	; 0x37
    2bb6:	0020      	movs	r0, r4
    2bb8:	f7ff fefc 	bl	29b4 <_ZN16Adafruit_ILI934112writeCommandEh>
    SPI_WRITE16(0);                 // Zero
    2bbc:	6b23      	ldr	r3, [r4, #48]	; 0x30
    2bbe:	2b00      	cmp	r3, #0
    2bc0:	db00      	blt.n	2bc4 <_ZN16Adafruit_ILI93415beginEm+0x1f0>
    2bc2:	e0d3      	b.n	2d6c <_ZN16Adafruit_ILI93415beginEm+0x398>
    2bc4:	4d6f      	ldr	r5, [pc, #444]	; (2d84 <_ZN16Adafruit_ILI93415beginEm+0x3b0>)
    2bc6:	2100      	movs	r1, #0
    2bc8:	0028      	movs	r0, r5
    2bca:	f001 fcd3 	bl	4574 <_ZN8SPIClass8transferEh>
    2bce:	2100      	movs	r1, #0
    2bd0:	0028      	movs	r0, r5
    2bd2:	f001 fccf 	bl	4574 <_ZN8SPIClass8transferEh>
    writeCommand(ILI9341_PIXFMT);
    2bd6:	213a      	movs	r1, #58	; 0x3a
    2bd8:	0020      	movs	r0, r4
    2bda:	f7ff feeb 	bl	29b4 <_ZN16Adafruit_ILI934112writeCommandEh>
    spiWrite(0x55);
    2bde:	2155      	movs	r1, #85	; 0x55
    2be0:	0020      	movs	r0, r4
    2be2:	f7ff fec3 	bl	296c <_ZN16Adafruit_ILI93418spiWriteEh>
    writeCommand(ILI9341_FRMCTR1);
    2be6:	21b1      	movs	r1, #177	; 0xb1
    2be8:	0020      	movs	r0, r4
    2bea:	f7ff fee3 	bl	29b4 <_ZN16Adafruit_ILI934112writeCommandEh>
    spiWrite(0x00);
    2bee:	2100      	movs	r1, #0
    2bf0:	0020      	movs	r0, r4
    2bf2:	f7ff febb 	bl	296c <_ZN16Adafruit_ILI93418spiWriteEh>
    spiWrite(0x18);
    2bf6:	2118      	movs	r1, #24
    2bf8:	0020      	movs	r0, r4
    2bfa:	f7ff feb7 	bl	296c <_ZN16Adafruit_ILI93418spiWriteEh>
    writeCommand(ILI9341_DFUNCTR);    // Display Function Control
    2bfe:	21b6      	movs	r1, #182	; 0xb6
    2c00:	0020      	movs	r0, r4
    2c02:	f7ff fed7 	bl	29b4 <_ZN16Adafruit_ILI934112writeCommandEh>
    spiWrite(0x08);
    2c06:	2108      	movs	r1, #8
    2c08:	0020      	movs	r0, r4
    2c0a:	f7ff feaf 	bl	296c <_ZN16Adafruit_ILI93418spiWriteEh>
    spiWrite(0x82);
    2c0e:	2182      	movs	r1, #130	; 0x82
    2c10:	0020      	movs	r0, r4
    2c12:	f7ff feab 	bl	296c <_ZN16Adafruit_ILI93418spiWriteEh>
    spiWrite(0x27);
    2c16:	2127      	movs	r1, #39	; 0x27
    2c18:	0020      	movs	r0, r4
    2c1a:	f7ff fea7 	bl	296c <_ZN16Adafruit_ILI93418spiWriteEh>
    writeCommand(0xF2);    // 3Gamma Function Disable
    2c1e:	21f2      	movs	r1, #242	; 0xf2
    2c20:	0020      	movs	r0, r4
    2c22:	f7ff fec7 	bl	29b4 <_ZN16Adafruit_ILI934112writeCommandEh>
    spiWrite(0x00);
    2c26:	2100      	movs	r1, #0
    2c28:	0020      	movs	r0, r4
    2c2a:	f7ff fe9f 	bl	296c <_ZN16Adafruit_ILI93418spiWriteEh>
    writeCommand(ILI9341_GAMMASET);    //Gamma curve selected
    2c2e:	2126      	movs	r1, #38	; 0x26
    2c30:	0020      	movs	r0, r4
    2c32:	f7ff febf 	bl	29b4 <_ZN16Adafruit_ILI934112writeCommandEh>
    spiWrite(0x01);
    2c36:	2101      	movs	r1, #1
    2c38:	0020      	movs	r0, r4
    2c3a:	f7ff fe97 	bl	296c <_ZN16Adafruit_ILI93418spiWriteEh>
    writeCommand(ILI9341_GMCTRP1);    //Set Gamma
    2c3e:	21e0      	movs	r1, #224	; 0xe0
    2c40:	0020      	movs	r0, r4
    2c42:	f7ff feb7 	bl	29b4 <_ZN16Adafruit_ILI934112writeCommandEh>
    spiWrite(0x0F);
    2c46:	210f      	movs	r1, #15
    2c48:	0020      	movs	r0, r4
    2c4a:	f7ff fe8f 	bl	296c <_ZN16Adafruit_ILI93418spiWriteEh>
    spiWrite(0x31);
    2c4e:	2131      	movs	r1, #49	; 0x31
    2c50:	0020      	movs	r0, r4
    2c52:	f7ff fe8b 	bl	296c <_ZN16Adafruit_ILI93418spiWriteEh>
    spiWrite(0x2B);
    2c56:	212b      	movs	r1, #43	; 0x2b
    2c58:	0020      	movs	r0, r4
    2c5a:	f7ff fe87 	bl	296c <_ZN16Adafruit_ILI93418spiWriteEh>
    spiWrite(0x0C);
    2c5e:	210c      	movs	r1, #12
    2c60:	0020      	movs	r0, r4
    2c62:	f7ff fe83 	bl	296c <_ZN16Adafruit_ILI93418spiWriteEh>
    spiWrite(0x0E);
    2c66:	210e      	movs	r1, #14
    2c68:	0020      	movs	r0, r4
    2c6a:	f7ff fe7f 	bl	296c <_ZN16Adafruit_ILI93418spiWriteEh>
    spiWrite(0x08);
    2c6e:	2108      	movs	r1, #8
    2c70:	0020      	movs	r0, r4
    2c72:	f7ff fe7b 	bl	296c <_ZN16Adafruit_ILI93418spiWriteEh>
    spiWrite(0x4E);
    2c76:	214e      	movs	r1, #78	; 0x4e
    2c78:	0020      	movs	r0, r4
    2c7a:	f7ff fe77 	bl	296c <_ZN16Adafruit_ILI93418spiWriteEh>
    spiWrite(0xF1);
    2c7e:	21f1      	movs	r1, #241	; 0xf1
    2c80:	0020      	movs	r0, r4
    2c82:	f7ff fe73 	bl	296c <_ZN16Adafruit_ILI93418spiWriteEh>
    spiWrite(0x37);
    2c86:	2137      	movs	r1, #55	; 0x37
    2c88:	0020      	movs	r0, r4
    2c8a:	f7ff fe6f 	bl	296c <_ZN16Adafruit_ILI93418spiWriteEh>
    spiWrite(0x07);
    2c8e:	2107      	movs	r1, #7
    2c90:	0020      	movs	r0, r4
    2c92:	f7ff fe6b 	bl	296c <_ZN16Adafruit_ILI93418spiWriteEh>
    spiWrite(0x10);
    2c96:	2110      	movs	r1, #16
    2c98:	0020      	movs	r0, r4
    2c9a:	f7ff fe67 	bl	296c <_ZN16Adafruit_ILI93418spiWriteEh>
    spiWrite(0x03);
    2c9e:	2103      	movs	r1, #3
    2ca0:	0020      	movs	r0, r4
    2ca2:	f7ff fe63 	bl	296c <_ZN16Adafruit_ILI93418spiWriteEh>
    spiWrite(0x0E);
    2ca6:	210e      	movs	r1, #14
    2ca8:	0020      	movs	r0, r4
    2caa:	f7ff fe5f 	bl	296c <_ZN16Adafruit_ILI93418spiWriteEh>
    spiWrite(0x09);
    2cae:	2109      	movs	r1, #9
    2cb0:	0020      	movs	r0, r4
    2cb2:	f7ff fe5b 	bl	296c <_ZN16Adafruit_ILI93418spiWriteEh>
    spiWrite(0x00);
    2cb6:	2100      	movs	r1, #0
    2cb8:	0020      	movs	r0, r4
    2cba:	f7ff fe57 	bl	296c <_ZN16Adafruit_ILI93418spiWriteEh>
    writeCommand(ILI9341_GMCTRN1);    //Set Gamma
    2cbe:	21e1      	movs	r1, #225	; 0xe1
    2cc0:	0020      	movs	r0, r4
    2cc2:	f7ff fe77 	bl	29b4 <_ZN16Adafruit_ILI934112writeCommandEh>
    spiWrite(0x00);
    2cc6:	2100      	movs	r1, #0
    2cc8:	0020      	movs	r0, r4
    2cca:	f7ff fe4f 	bl	296c <_ZN16Adafruit_ILI93418spiWriteEh>
    spiWrite(0x0E);
    2cce:	210e      	movs	r1, #14
    2cd0:	0020      	movs	r0, r4
    2cd2:	f7ff fe4b 	bl	296c <_ZN16Adafruit_ILI93418spiWriteEh>
    spiWrite(0x14);
    2cd6:	2114      	movs	r1, #20
    2cd8:	0020      	movs	r0, r4
    2cda:	f7ff fe47 	bl	296c <_ZN16Adafruit_ILI93418spiWriteEh>
    spiWrite(0x03);
    2cde:	2103      	movs	r1, #3
    2ce0:	0020      	movs	r0, r4
    2ce2:	f7ff fe43 	bl	296c <_ZN16Adafruit_ILI93418spiWriteEh>
    spiWrite(0x11);
    2ce6:	2111      	movs	r1, #17
    2ce8:	0020      	movs	r0, r4
    2cea:	f7ff fe3f 	bl	296c <_ZN16Adafruit_ILI93418spiWriteEh>
    spiWrite(0x07);
    2cee:	2107      	movs	r1, #7
    2cf0:	0020      	movs	r0, r4
    2cf2:	f7ff fe3b 	bl	296c <_ZN16Adafruit_ILI93418spiWriteEh>
    spiWrite(0x31);
    2cf6:	2131      	movs	r1, #49	; 0x31
    2cf8:	0020      	movs	r0, r4
    2cfa:	f7ff fe37 	bl	296c <_ZN16Adafruit_ILI93418spiWriteEh>
    spiWrite(0xC1);
    2cfe:	21c1      	movs	r1, #193	; 0xc1
    2d00:	0020      	movs	r0, r4
    2d02:	f7ff fe33 	bl	296c <_ZN16Adafruit_ILI93418spiWriteEh>
    spiWrite(0x48);
    2d06:	2148      	movs	r1, #72	; 0x48
    2d08:	0020      	movs	r0, r4
    2d0a:	f7ff fe2f 	bl	296c <_ZN16Adafruit_ILI93418spiWriteEh>
    spiWrite(0x08);
    2d0e:	2108      	movs	r1, #8
    2d10:	0020      	movs	r0, r4
    2d12:	f7ff fe2b 	bl	296c <_ZN16Adafruit_ILI93418spiWriteEh>
    spiWrite(0x0F);
    2d16:	210f      	movs	r1, #15
    2d18:	0020      	movs	r0, r4
    2d1a:	f7ff fe27 	bl	296c <_ZN16Adafruit_ILI93418spiWriteEh>
    spiWrite(0x0C);
    2d1e:	210c      	movs	r1, #12
    2d20:	0020      	movs	r0, r4
    2d22:	f7ff fe23 	bl	296c <_ZN16Adafruit_ILI93418spiWriteEh>
    spiWrite(0x31);
    2d26:	2131      	movs	r1, #49	; 0x31
    2d28:	0020      	movs	r0, r4
    2d2a:	f7ff fe1f 	bl	296c <_ZN16Adafruit_ILI93418spiWriteEh>
    spiWrite(0x36);
    2d2e:	2136      	movs	r1, #54	; 0x36
    2d30:	0020      	movs	r0, r4
    2d32:	f7ff fe1b 	bl	296c <_ZN16Adafruit_ILI93418spiWriteEh>
    spiWrite(0x0F);
    2d36:	210f      	movs	r1, #15
    2d38:	0020      	movs	r0, r4
    2d3a:	f7ff fe17 	bl	296c <_ZN16Adafruit_ILI93418spiWriteEh>
    writeCommand(ILI9341_SLPOUT);    //Exit Sleep
    2d3e:	2111      	movs	r1, #17
    2d40:	0020      	movs	r0, r4
    2d42:	f7ff fe37 	bl	29b4 <_ZN16Adafruit_ILI934112writeCommandEh>
    delay(120);
    2d46:	2078      	movs	r0, #120	; 0x78
    2d48:	f7fd fe72 	bl	a30 <delay>
    writeCommand(ILI9341_DISPON);    //Display on
    2d4c:	2129      	movs	r1, #41	; 0x29
    2d4e:	0020      	movs	r0, r4
    2d50:	f7ff fe30 	bl	29b4 <_ZN16Adafruit_ILI934112writeCommandEh>
    delay(120);
    2d54:	2078      	movs	r0, #120	; 0x78
    2d56:	f7fd fe6b 	bl	a30 <delay>
    endWrite();
    2d5a:	6823      	ldr	r3, [r4, #0]
    2d5c:	0020      	movs	r0, r4
    2d5e:	6adb      	ldr	r3, [r3, #44]	; 0x2c
    2d60:	4798      	blx	r3
    _width  = ILI9341_TFTWIDTH;
    2d62:	23f0      	movs	r3, #240	; 0xf0
    2d64:	81a3      	strh	r3, [r4, #12]
    _height = ILI9341_TFTHEIGHT;
    2d66:	3350      	adds	r3, #80	; 0x50
    2d68:	81e3      	strh	r3, [r4, #14]
}
    2d6a:	bd70      	pop	{r4, r5, r6, pc}
    SPI_WRITE16(0);                 // Zero
    2d6c:	0020      	movs	r0, r4
    2d6e:	2100      	movs	r1, #0
    2d70:	f7ff fdfc 	bl	296c <_ZN16Adafruit_ILI93418spiWriteEh>
    2d74:	2100      	movs	r1, #0
    2d76:	0020      	movs	r0, r4
    2d78:	f7ff fdf8 	bl	296c <_ZN16Adafruit_ILI93418spiWriteEh>
    2d7c:	e72b      	b.n	2bd6 <_ZN16Adafruit_ILI93415beginEm+0x202>
    2d7e:	46c0      	nop			; (mov r8, r8)
    2d80:	016e3600 	.word	0x016e3600
    2d84:	20000a04 	.word	0x20000a04

00002d88 <_ZN16Adafruit_ILI934111setRotationEh>:
    rotation = m % 4; // can't be higher than 3
    2d88:	2303      	movs	r3, #3
    2d8a:	22a0      	movs	r2, #160	; 0xa0
    2d8c:	4019      	ands	r1, r3
void Adafruit_ILI9341::setRotation(uint8_t m) {
    2d8e:	b570      	push	{r4, r5, r6, lr}
    2d90:	33ed      	adds	r3, #237	; 0xed
    2d92:	0004      	movs	r4, r0
    rotation = m % 4; // can't be higher than 3
    2d94:	7641      	strb	r1, [r0, #25]
    2d96:	0052      	lsls	r2, r2, #1
    switch (rotation) {
    2d98:	2902      	cmp	r1, #2
    2d9a:	d01b      	beq.n	2dd4 <_ZN16Adafruit_ILI934111setRotationEh+0x4c>
    2d9c:	2903      	cmp	r1, #3
    2d9e:	d01d      	beq.n	2ddc <_ZN16Adafruit_ILI934111setRotationEh+0x54>
    2da0:	2901      	cmp	r1, #1
    2da2:	d013      	beq.n	2dcc <_ZN16Adafruit_ILI934111setRotationEh+0x44>
            m = (MADCTL_MX | MADCTL_BGR);
    2da4:	2548      	movs	r5, #72	; 0x48
            _width  = ILI9341_TFTWIDTH;
    2da6:	8183      	strh	r3, [r0, #12]
            _height = ILI9341_TFTHEIGHT;
    2da8:	81c2      	strh	r2, [r0, #14]
    startWrite();
    2daa:	6823      	ldr	r3, [r4, #0]
    2dac:	0020      	movs	r0, r4
    2dae:	695b      	ldr	r3, [r3, #20]
    2db0:	4798      	blx	r3
    writeCommand(ILI9341_MADCTL);
    2db2:	0020      	movs	r0, r4
    2db4:	2136      	movs	r1, #54	; 0x36
    2db6:	f7ff fdfd 	bl	29b4 <_ZN16Adafruit_ILI934112writeCommandEh>
    spiWrite(m);
    2dba:	0029      	movs	r1, r5
    2dbc:	0020      	movs	r0, r4
    2dbe:	f7ff fdd5 	bl	296c <_ZN16Adafruit_ILI93418spiWriteEh>
    endWrite();
    2dc2:	6823      	ldr	r3, [r4, #0]
    2dc4:	0020      	movs	r0, r4
    2dc6:	6adb      	ldr	r3, [r3, #44]	; 0x2c
    2dc8:	4798      	blx	r3
}
    2dca:	bd70      	pop	{r4, r5, r6, pc}
            _width  = ILI9341_TFTHEIGHT;
    2dcc:	8182      	strh	r2, [r0, #12]
            _height = ILI9341_TFTWIDTH;
    2dce:	81c3      	strh	r3, [r0, #14]
            m = (MADCTL_MV | MADCTL_BGR);
    2dd0:	2528      	movs	r5, #40	; 0x28
            break;
    2dd2:	e7ea      	b.n	2daa <_ZN16Adafruit_ILI934111setRotationEh+0x22>
            _width  = ILI9341_TFTWIDTH;
    2dd4:	8183      	strh	r3, [r0, #12]
            _height = ILI9341_TFTHEIGHT;
    2dd6:	81c2      	strh	r2, [r0, #14]
            m = (MADCTL_MY | MADCTL_BGR);
    2dd8:	2588      	movs	r5, #136	; 0x88
            break;
    2dda:	e7e6      	b.n	2daa <_ZN16Adafruit_ILI934111setRotationEh+0x22>
            _width  = ILI9341_TFTHEIGHT;
    2ddc:	8182      	strh	r2, [r0, #12]
            _height = ILI9341_TFTWIDTH;
    2dde:	81c3      	strh	r3, [r0, #14]
            m = (MADCTL_MX | MADCTL_MY | MADCTL_MV | MADCTL_BGR);
    2de0:	25e8      	movs	r5, #232	; 0xe8
            break;
    2de2:	e7e2      	b.n	2daa <_ZN16Adafruit_ILI934111setRotationEh+0x22>

00002de4 <_ZN16Adafruit_ILI934113invertDisplayEb>:
void Adafruit_ILI9341::invertDisplay(boolean i) {
    2de4:	b570      	push	{r4, r5, r6, lr}
    2de6:	000d      	movs	r5, r1
    writeCommand(i ? ILI9341_INVON : ILI9341_INVOFF);
    2de8:	1e69      	subs	r1, r5, #1
    2dea:	418d      	sbcs	r5, r1
    startWrite();
    2dec:	6803      	ldr	r3, [r0, #0]
void Adafruit_ILI9341::invertDisplay(boolean i) {
    2dee:	0004      	movs	r4, r0
    startWrite();
    2df0:	695b      	ldr	r3, [r3, #20]
    2df2:	4798      	blx	r3
    writeCommand(i ? ILI9341_INVON : ILI9341_INVOFF);
    2df4:	0029      	movs	r1, r5
    2df6:	0020      	movs	r0, r4
    2df8:	3120      	adds	r1, #32
    2dfa:	f7ff fddb 	bl	29b4 <_ZN16Adafruit_ILI934112writeCommandEh>
    endWrite();
    2dfe:	6823      	ldr	r3, [r4, #0]
    2e00:	0020      	movs	r0, r4
    2e02:	6adb      	ldr	r3, [r3, #44]	; 0x2c
    2e04:	4798      	blx	r3
}
    2e06:	bd70      	pop	{r4, r5, r6, pc}

00002e08 <_ZN16Adafruit_ILI934113setAddrWindowEtttt>:
void Adafruit_ILI9341::setAddrWindow(uint16_t x, uint16_t y, uint16_t w, uint16_t h) {
    2e08:	b5f7      	push	{r0, r1, r2, r4, r5, r6, r7, lr}
    2e0a:	001e      	movs	r6, r3
    2e0c:	0004      	movs	r4, r0
    2e0e:	ab08      	add	r3, sp, #32
    2e10:	881d      	ldrh	r5, [r3, #0]
    uint32_t xa = ((uint32_t)x << 16) | (x+w-1);
    2e12:	198e      	adds	r6, r1, r6
    uint32_t ya = ((uint32_t)y << 16) | (y+h-1);
    2e14:	1955      	adds	r5, r2, r5
    uint32_t xa = ((uint32_t)x << 16) | (x+w-1);
    2e16:	0409      	lsls	r1, r1, #16
    2e18:	3e01      	subs	r6, #1
    2e1a:	430e      	orrs	r6, r1
    uint32_t ya = ((uint32_t)y << 16) | (y+h-1);
    2e1c:	0412      	lsls	r2, r2, #16
    writeCommand(ILI9341_CASET); // Column addr set
    2e1e:	212a      	movs	r1, #42	; 0x2a
    uint32_t ya = ((uint32_t)y << 16) | (y+h-1);
    2e20:	3d01      	subs	r5, #1
    2e22:	4315      	orrs	r5, r2
    writeCommand(ILI9341_CASET); // Column addr set
    2e24:	f7ff fdc6 	bl	29b4 <_ZN16Adafruit_ILI934112writeCommandEh>
    2e28:	0c33      	lsrs	r3, r6, #16
    2e2a:	9300      	str	r3, [sp, #0]
    2e2c:	0a33      	lsrs	r3, r6, #8
    2e2e:	9301      	str	r3, [sp, #4]
    SPI_WRITE32(xa);
    2e30:	6b23      	ldr	r3, [r4, #48]	; 0x30
    2e32:	0e31      	lsrs	r1, r6, #24
    2e34:	b2c9      	uxtb	r1, r1
    2e36:	b2f6      	uxtb	r6, r6
    2e38:	2b00      	cmp	r3, #0
    2e3a:	da34      	bge.n	2ea6 <_ZN16Adafruit_ILI934113setAddrWindowEtttt+0x9e>
    2e3c:	4f2b      	ldr	r7, [pc, #172]	; (2eec <_ZN16Adafruit_ILI934113setAddrWindowEtttt+0xe4>)
    2e3e:	0038      	movs	r0, r7
    2e40:	f001 fb98 	bl	4574 <_ZN8SPIClass8transferEh>
    2e44:	466b      	mov	r3, sp
    2e46:	0038      	movs	r0, r7
    2e48:	7819      	ldrb	r1, [r3, #0]
    2e4a:	f001 fb93 	bl	4574 <_ZN8SPIClass8transferEh>
    2e4e:	466b      	mov	r3, sp
    2e50:	0038      	movs	r0, r7
    2e52:	7919      	ldrb	r1, [r3, #4]
    2e54:	f001 fb8e 	bl	4574 <_ZN8SPIClass8transferEh>
    2e58:	0031      	movs	r1, r6
    2e5a:	0038      	movs	r0, r7
    2e5c:	f001 fb8a 	bl	4574 <_ZN8SPIClass8transferEh>
    writeCommand(ILI9341_PASET); // Row addr set
    2e60:	212b      	movs	r1, #43	; 0x2b
    2e62:	0020      	movs	r0, r4
    2e64:	f7ff fda6 	bl	29b4 <_ZN16Adafruit_ILI934112writeCommandEh>
    2e68:	0a2b      	lsrs	r3, r5, #8
    2e6a:	9300      	str	r3, [sp, #0]
    SPI_WRITE32(ya);
    2e6c:	6b23      	ldr	r3, [r4, #48]	; 0x30
    2e6e:	0e29      	lsrs	r1, r5, #24
    2e70:	0c2e      	lsrs	r6, r5, #16
    2e72:	b2c9      	uxtb	r1, r1
    2e74:	b2ed      	uxtb	r5, r5
    2e76:	2b00      	cmp	r3, #0
    2e78:	da27      	bge.n	2eca <_ZN16Adafruit_ILI934113setAddrWindowEtttt+0xc2>
    2e7a:	4f1c      	ldr	r7, [pc, #112]	; (2eec <_ZN16Adafruit_ILI934113setAddrWindowEtttt+0xe4>)
    2e7c:	0038      	movs	r0, r7
    2e7e:	f001 fb79 	bl	4574 <_ZN8SPIClass8transferEh>
    2e82:	b2f1      	uxtb	r1, r6
    2e84:	0038      	movs	r0, r7
    2e86:	f001 fb75 	bl	4574 <_ZN8SPIClass8transferEh>
    2e8a:	466b      	mov	r3, sp
    2e8c:	0038      	movs	r0, r7
    2e8e:	7819      	ldrb	r1, [r3, #0]
    2e90:	f001 fb70 	bl	4574 <_ZN8SPIClass8transferEh>
    2e94:	0029      	movs	r1, r5
    2e96:	0038      	movs	r0, r7
    2e98:	f001 fb6c 	bl	4574 <_ZN8SPIClass8transferEh>
    writeCommand(ILI9341_RAMWR); // write to RAM
    2e9c:	212c      	movs	r1, #44	; 0x2c
    2e9e:	0020      	movs	r0, r4
    2ea0:	f7ff fd88 	bl	29b4 <_ZN16Adafruit_ILI934112writeCommandEh>
}
    2ea4:	bdf7      	pop	{r0, r1, r2, r4, r5, r6, r7, pc}
    SPI_WRITE32(xa);
    2ea6:	0020      	movs	r0, r4
    2ea8:	f7ff fd60 	bl	296c <_ZN16Adafruit_ILI93418spiWriteEh>
    2eac:	466b      	mov	r3, sp
    2eae:	0020      	movs	r0, r4
    2eb0:	7819      	ldrb	r1, [r3, #0]
    2eb2:	f7ff fd5b 	bl	296c <_ZN16Adafruit_ILI93418spiWriteEh>
    2eb6:	466b      	mov	r3, sp
    2eb8:	0020      	movs	r0, r4
    2eba:	7919      	ldrb	r1, [r3, #4]
    2ebc:	f7ff fd56 	bl	296c <_ZN16Adafruit_ILI93418spiWriteEh>
    2ec0:	0031      	movs	r1, r6
    2ec2:	0020      	movs	r0, r4
    2ec4:	f7ff fd52 	bl	296c <_ZN16Adafruit_ILI93418spiWriteEh>
    2ec8:	e7ca      	b.n	2e60 <_ZN16Adafruit_ILI934113setAddrWindowEtttt+0x58>
    SPI_WRITE32(ya);
    2eca:	0020      	movs	r0, r4
    2ecc:	f7ff fd4e 	bl	296c <_ZN16Adafruit_ILI93418spiWriteEh>
    2ed0:	b2f1      	uxtb	r1, r6
    2ed2:	0020      	movs	r0, r4
    2ed4:	f7ff fd4a 	bl	296c <_ZN16Adafruit_ILI93418spiWriteEh>
    2ed8:	466b      	mov	r3, sp
    2eda:	0020      	movs	r0, r4
    2edc:	7819      	ldrb	r1, [r3, #0]
    2ede:	f7ff fd45 	bl	296c <_ZN16Adafruit_ILI93418spiWriteEh>
    2ee2:	0029      	movs	r1, r5
    2ee4:	0020      	movs	r0, r4
    2ee6:	f7ff fd41 	bl	296c <_ZN16Adafruit_ILI93418spiWriteEh>
    2eea:	e7d7      	b.n	2e9c <_ZN16Adafruit_ILI934113setAddrWindowEtttt+0x94>
    2eec:	20000a04 	.word	0x20000a04

00002ef0 <_ZN16Adafruit_ILI934110writePixelEt>:
    SPI_WRITE16(color);
    2ef0:	6b02      	ldr	r2, [r0, #48]	; 0x30
    2ef2:	120b      	asrs	r3, r1, #8
void Adafruit_ILI9341::writePixel(uint16_t color){
    2ef4:	b570      	push	{r4, r5, r6, lr}
    2ef6:	b2cc      	uxtb	r4, r1
    2ef8:	0005      	movs	r5, r0
    SPI_WRITE16(color);
    2efa:	b2d9      	uxtb	r1, r3
    2efc:	2a00      	cmp	r2, #0
    2efe:	da08      	bge.n	2f12 <_ZN16Adafruit_ILI934110writePixelEt+0x22>
    2f00:	4d07      	ldr	r5, [pc, #28]	; (2f20 <_ZN16Adafruit_ILI934110writePixelEt+0x30>)
    2f02:	0028      	movs	r0, r5
    2f04:	f001 fb36 	bl	4574 <_ZN8SPIClass8transferEh>
    2f08:	0021      	movs	r1, r4
    2f0a:	0028      	movs	r0, r5
    2f0c:	f001 fb32 	bl	4574 <_ZN8SPIClass8transferEh>
}
    2f10:	bd70      	pop	{r4, r5, r6, pc}
    SPI_WRITE16(color);
    2f12:	f7ff fd2b 	bl	296c <_ZN16Adafruit_ILI93418spiWriteEh>
    2f16:	0021      	movs	r1, r4
    2f18:	0028      	movs	r0, r5
    2f1a:	f7ff fd27 	bl	296c <_ZN16Adafruit_ILI93418spiWriteEh>
}
    2f1e:	e7f7      	b.n	2f10 <_ZN16Adafruit_ILI934110writePixelEt+0x20>
    2f20:	20000a04 	.word	0x20000a04

00002f24 <_ZN16Adafruit_ILI934110writePixelEsst>:
void Adafruit_ILI9341::writePixel(int16_t x, int16_t y, uint16_t color) {
    2f24:	b537      	push	{r0, r1, r2, r4, r5, lr}
    2f26:	0004      	movs	r4, r0
    2f28:	001d      	movs	r5, r3
    if((x < 0) ||(x >= _width) || (y < 0) || (y >= _height)) return;
    2f2a:	2900      	cmp	r1, #0
    2f2c:	db14      	blt.n	2f58 <_ZN16Adafruit_ILI934110writePixelEsst+0x34>
    2f2e:	200c      	movs	r0, #12
    2f30:	5e23      	ldrsh	r3, [r4, r0]
    2f32:	428b      	cmp	r3, r1
    2f34:	dd10      	ble.n	2f58 <_ZN16Adafruit_ILI934110writePixelEsst+0x34>
    2f36:	2a00      	cmp	r2, #0
    2f38:	db0e      	blt.n	2f58 <_ZN16Adafruit_ILI934110writePixelEsst+0x34>
    2f3a:	200e      	movs	r0, #14
    2f3c:	5e23      	ldrsh	r3, [r4, r0]
    2f3e:	4293      	cmp	r3, r2
    2f40:	dd0a      	ble.n	2f58 <_ZN16Adafruit_ILI934110writePixelEsst+0x34>
    setAddrWindow(x,y,1,1);
    2f42:	2301      	movs	r3, #1
    2f44:	b289      	uxth	r1, r1
    2f46:	0020      	movs	r0, r4
    2f48:	b292      	uxth	r2, r2
    2f4a:	9300      	str	r3, [sp, #0]
    2f4c:	f7ff ff5c 	bl	2e08 <_ZN16Adafruit_ILI934113setAddrWindowEtttt>
    writePixel(color);
    2f50:	0029      	movs	r1, r5
    2f52:	0020      	movs	r0, r4
    2f54:	f7ff ffcc 	bl	2ef0 <_ZN16Adafruit_ILI934110writePixelEt>
}
    2f58:	bd37      	pop	{r0, r1, r2, r4, r5, pc}
	...

00002f5c <_ZN16Adafruit_ILI934110writeColorEtm>:
void Adafruit_ILI9341::writeColor(uint16_t color, uint32_t len){
    2f5c:	b5f8      	push	{r3, r4, r5, r6, r7, lr}
    if(_sclk < 0){ //AVR Optimization
    2f5e:	6b03      	ldr	r3, [r0, #48]	; 0x30
void Adafruit_ILI9341::writeColor(uint16_t color, uint32_t len){
    2f60:	0006      	movs	r6, r0
    2f62:	0014      	movs	r4, r2
    uint8_t hi = color >> 8, lo = color;
    2f64:	0a0f      	lsrs	r7, r1, #8
    2f66:	b2cd      	uxtb	r5, r1
    if(_sclk < 0){ //AVR Optimization
    2f68:	2b00      	cmp	r3, #0
    2f6a:	da0c      	bge.n	2f86 <_ZN16Adafruit_ILI934110writeColorEtm+0x2a>
        for (uint32_t t=len; t; t--){
    2f6c:	2c00      	cmp	r4, #0
    2f6e:	d016      	beq.n	2f9e <_ZN16Adafruit_ILI934110writeColorEtm+0x42>
            HSPI_WRITE(hi);
    2f70:	4e0b      	ldr	r6, [pc, #44]	; (2fa0 <_ZN16Adafruit_ILI934110writeColorEtm+0x44>)
    2f72:	0039      	movs	r1, r7
    2f74:	0030      	movs	r0, r6
    2f76:	f001 fafd 	bl	4574 <_ZN8SPIClass8transferEh>
            HSPI_WRITE(lo);
    2f7a:	0029      	movs	r1, r5
    2f7c:	0030      	movs	r0, r6
    2f7e:	f001 faf9 	bl	4574 <_ZN8SPIClass8transferEh>
        for (uint32_t t=len; t; t--){
    2f82:	3c01      	subs	r4, #1
    2f84:	e7f2      	b.n	2f6c <_ZN16Adafruit_ILI934110writeColorEtm+0x10>
    for (uint32_t t=len; t; t--){
    2f86:	2c00      	cmp	r4, #0
    2f88:	d009      	beq.n	2f9e <_ZN16Adafruit_ILI934110writeColorEtm+0x42>
        spiWrite(hi);
    2f8a:	0039      	movs	r1, r7
    2f8c:	0030      	movs	r0, r6
    2f8e:	f7ff fced 	bl	296c <_ZN16Adafruit_ILI93418spiWriteEh>
        spiWrite(lo);
    2f92:	0029      	movs	r1, r5
    2f94:	0030      	movs	r0, r6
    2f96:	f7ff fce9 	bl	296c <_ZN16Adafruit_ILI93418spiWriteEh>
    for (uint32_t t=len; t; t--){
    2f9a:	3c01      	subs	r4, #1
    2f9c:	e7f3      	b.n	2f86 <_ZN16Adafruit_ILI934110writeColorEtm+0x2a>
}
    2f9e:	bdf8      	pop	{r3, r4, r5, r6, r7, pc}
    2fa0:	20000a04 	.word	0x20000a04

00002fa4 <_ZN16Adafruit_ILI934113writeFillRectEsssst>:
void Adafruit_ILI9341::writeFillRect(int16_t x, int16_t y, int16_t w, int16_t h, uint16_t color){
    2fa4:	b5f0      	push	{r4, r5, r6, r7, lr}
    2fa6:	0004      	movs	r4, r0
    2fa8:	b087      	sub	sp, #28
    2faa:	a80c      	add	r0, sp, #48	; 0x30
    2fac:	2500      	movs	r5, #0
    2fae:	5f40      	ldrsh	r0, [r0, r5]
    2fb0:	ad0d      	add	r5, sp, #52	; 0x34
    2fb2:	882d      	ldrh	r5, [r5, #0]
    2fb4:	9505      	str	r5, [sp, #20]
    if((x >= _width) || (y >= _height)) return;
    2fb6:	260c      	movs	r6, #12
    2fb8:	5fa5      	ldrsh	r5, [r4, r6]
    2fba:	428d      	cmp	r5, r1
    2fbc:	dd39      	ble.n	3032 <_ZN16Adafruit_ILI934113writeFillRectEsssst+0x8e>
    2fbe:	270e      	movs	r7, #14
    2fc0:	5fe6      	ldrsh	r6, [r4, r7]
    2fc2:	46b4      	mov	ip, r6
    2fc4:	4296      	cmp	r6, r2
    2fc6:	dd34      	ble.n	3032 <_ZN16Adafruit_ILI934113writeFillRectEsssst+0x8e>
    int16_t x2 = x + w - 1, y2 = y + h - 1;
    2fc8:	18ce      	adds	r6, r1, r3
    2fca:	b2b6      	uxth	r6, r6
    2fcc:	9602      	str	r6, [sp, #8]
    2fce:	1817      	adds	r7, r2, r0
    2fd0:	3e01      	subs	r6, #1
    2fd2:	b236      	sxth	r6, r6
    2fd4:	b2bf      	uxth	r7, r7
    2fd6:	9603      	str	r6, [sp, #12]
    2fd8:	1e7e      	subs	r6, r7, #1
    2fda:	b236      	sxth	r6, r6
    2fdc:	9604      	str	r6, [sp, #16]
    if((x2 < 0) || (y2 < 0)) return;
    2fde:	9e03      	ldr	r6, [sp, #12]
    2fe0:	2e00      	cmp	r6, #0
    2fe2:	db26      	blt.n	3032 <_ZN16Adafruit_ILI934113writeFillRectEsssst+0x8e>
    2fe4:	9e04      	ldr	r6, [sp, #16]
    2fe6:	2e00      	cmp	r6, #0
    2fe8:	db23      	blt.n	3032 <_ZN16Adafruit_ILI934113writeFillRectEsssst+0x8e>
    if(x < 0) {
    2fea:	2900      	cmp	r1, #0
    2fec:	da03      	bge.n	2ff6 <_ZN16Adafruit_ILI934113writeFillRectEsssst+0x52>
        w = x2 + 1;
    2fee:	466b      	mov	r3, sp
    2ff0:	2108      	movs	r1, #8
    2ff2:	5e5b      	ldrsh	r3, [r3, r1]
        x = 0;
    2ff4:	2100      	movs	r1, #0
    if(y < 0) {
    2ff6:	2a00      	cmp	r2, #0
    2ff8:	da01      	bge.n	2ffe <_ZN16Adafruit_ILI934113writeFillRectEsssst+0x5a>
        y = 0;
    2ffa:	2200      	movs	r2, #0
        h = y2 + 1;
    2ffc:	b238      	sxth	r0, r7
    if(x2 >= _width)  w = _width  - x;
    2ffe:	9e03      	ldr	r6, [sp, #12]
    3000:	42b5      	cmp	r5, r6
    3002:	dc01      	bgt.n	3008 <_ZN16Adafruit_ILI934113writeFillRectEsssst+0x64>
    3004:	1a6b      	subs	r3, r5, r1
    3006:	b21b      	sxth	r3, r3
    if(y2 >= _height) h = _height - y;
    3008:	9d04      	ldr	r5, [sp, #16]
    300a:	45ac      	cmp	ip, r5
    300c:	dc02      	bgt.n	3014 <_ZN16Adafruit_ILI934113writeFillRectEsssst+0x70>
    300e:	4660      	mov	r0, ip
    3010:	1a80      	subs	r0, r0, r2
    3012:	b200      	sxth	r0, r0
    int32_t len = (int32_t)w * h;
    3014:	0005      	movs	r5, r0
    3016:	435d      	muls	r5, r3
    setAddrWindow(x, y, w, h);
    3018:	b280      	uxth	r0, r0
    301a:	b292      	uxth	r2, r2
    301c:	b289      	uxth	r1, r1
    301e:	9000      	str	r0, [sp, #0]
    3020:	b29b      	uxth	r3, r3
    3022:	0020      	movs	r0, r4
    3024:	f7ff fef0 	bl	2e08 <_ZN16Adafruit_ILI934113setAddrWindowEtttt>
    writeColor(color, len);
    3028:	002a      	movs	r2, r5
    302a:	9905      	ldr	r1, [sp, #20]
    302c:	0020      	movs	r0, r4
    302e:	f7ff ff95 	bl	2f5c <_ZN16Adafruit_ILI934110writeColorEtm>
}
    3032:	b007      	add	sp, #28
    3034:	bdf0      	pop	{r4, r5, r6, r7, pc}

00003036 <_ZN5SDLib4File5writeEh>:
    3036:	b513      	push	{r0, r1, r4, lr}
    3038:	466b      	mov	r3, sp
    303a:	6802      	ldr	r2, [r0, #0]
    303c:	71d9      	strb	r1, [r3, #7]
    303e:	3307      	adds	r3, #7
    3040:	6854      	ldr	r4, [r2, #4]
    3042:	0019      	movs	r1, r3
    3044:	2201      	movs	r2, #1
    3046:	47a0      	blx	r4
    3048:	bd16      	pop	{r1, r2, r4, pc}

0000304a <_ZN5SDLib4File5writeEPKhj>:
    304a:	b510      	push	{r4, lr}
    304c:	0004      	movs	r4, r0
    304e:	6a00      	ldr	r0, [r0, #32]
    3050:	2800      	cmp	r0, #0
    3052:	d103      	bne.n	305c <_ZN5SDLib4File5writeEPKhj+0x12>
    3054:	2301      	movs	r3, #1
    3056:	2000      	movs	r0, #0
    3058:	6063      	str	r3, [r4, #4]
    305a:	bd10      	pop	{r4, pc}
    305c:	2300      	movs	r3, #0
    305e:	b292      	uxth	r2, r2
    3060:	6043      	str	r3, [r0, #4]
    3062:	f000 ff13 	bl	3e8c <_ZN6SdFile5writeEPKvt>
    3066:	6a23      	ldr	r3, [r4, #32]
    3068:	685b      	ldr	r3, [r3, #4]
    306a:	2b00      	cmp	r3, #0
    306c:	d1f2      	bne.n	3054 <_ZN5SDLib4File5writeEPKhj+0xa>
    306e:	e7f4      	b.n	305a <_ZN5SDLib4File5writeEPKhj+0x10>

00003070 <_ZN5SDLib4File5flushEv>:
    3070:	6a00      	ldr	r0, [r0, #32]
    3072:	b510      	push	{r4, lr}
    3074:	2800      	cmp	r0, #0
    3076:	d001      	beq.n	307c <_ZN5SDLib4File5flushEv+0xc>
    3078:	f000 fd92 	bl	3ba0 <_ZN6SdFile4syncEv>
    307c:	bd10      	pop	{r4, pc}

0000307e <_ZN6SdFile4readEv>:
    307e:	b513      	push	{r0, r1, r4, lr}
    3080:	466b      	mov	r3, sp
    3082:	1ddc      	adds	r4, r3, #7
    3084:	2201      	movs	r2, #1
    3086:	0021      	movs	r1, r4
    3088:	f000 fcb6 	bl	39f8 <_ZN6SdFile4readEPvt>
    308c:	2801      	cmp	r0, #1
    308e:	d101      	bne.n	3094 <_ZN6SdFile4readEv+0x16>
    3090:	7820      	ldrb	r0, [r4, #0]
    3092:	bd16      	pop	{r1, r2, r4, pc}
    3094:	2001      	movs	r0, #1
    3096:	4240      	negs	r0, r0
    3098:	e7fb      	b.n	3092 <_ZN6SdFile4readEv+0x14>

0000309a <_ZN5SDLib4File4readEv>:
    309a:	6a00      	ldr	r0, [r0, #32]
    309c:	b510      	push	{r4, lr}
    309e:	2800      	cmp	r0, #0
    30a0:	d002      	beq.n	30a8 <_ZN5SDLib4File4readEv+0xe>
    30a2:	f7ff ffec 	bl	307e <_ZN6SdFile4readEv>
    30a6:	bd10      	pop	{r4, pc}
    30a8:	2001      	movs	r0, #1
    30aa:	4240      	negs	r0, r0
    30ac:	e7fb      	b.n	30a6 <_ZN5SDLib4File4readEv+0xc>

000030ae <_ZN5SDLib4File4peekEv>:
    30ae:	b570      	push	{r4, r5, r6, lr}
    30b0:	0005      	movs	r5, r0
    30b2:	6a00      	ldr	r0, [r0, #32]
    30b4:	1e04      	subs	r4, r0, #0
    30b6:	d009      	beq.n	30cc <_ZN5SDLib4File4peekEv+0x1e>
    30b8:	f7ff ffe1 	bl	307e <_ZN6SdFile4readEv>
    30bc:	0004      	movs	r4, r0
    30be:	1c43      	adds	r3, r0, #1
    30c0:	d004      	beq.n	30cc <_ZN5SDLib4File4peekEv+0x1e>
    30c2:	6a28      	ldr	r0, [r5, #32]
    30c4:	6903      	ldr	r3, [r0, #16]
    30c6:	1e59      	subs	r1, r3, #1
    30c8:	f000 fd3a 	bl	3b40 <_ZN6SdFile7seekSetEm>
    30cc:	0020      	movs	r0, r4
    30ce:	bd70      	pop	{r4, r5, r6, pc}

000030d0 <_ZN5SDLib4FileC1E6SdFilePKc>:
    30d0:	b5f8      	push	{r3, r4, r5, r6, r7, lr}
    30d2:	23fa      	movs	r3, #250	; 0xfa
    30d4:	2500      	movs	r5, #0
    30d6:	009b      	lsls	r3, r3, #2
    30d8:	6083      	str	r3, [r0, #8]
    30da:	4b0d      	ldr	r3, [pc, #52]	; (3110 <_ZN5SDLib4FileC1E6SdFilePKc+0x40>)
    30dc:	0004      	movs	r4, r0
    30de:	3308      	adds	r3, #8
    30e0:	6045      	str	r5, [r0, #4]
    30e2:	6003      	str	r3, [r0, #0]
    30e4:	2028      	movs	r0, #40	; 0x28
    30e6:	000f      	movs	r7, r1
    30e8:	0016      	movs	r6, r2
    30ea:	f002 fd7d 	bl	5be8 <malloc>
    30ee:	6220      	str	r0, [r4, #32]
    30f0:	42a8      	cmp	r0, r5
    30f2:	d00a      	beq.n	310a <_ZN5SDLib4FileC1E6SdFilePKc+0x3a>
    30f4:	2228      	movs	r2, #40	; 0x28
    30f6:	0039      	movs	r1, r7
    30f8:	f002 fd99 	bl	5c2e <memcpy>
    30fc:	0020      	movs	r0, r4
    30fe:	220c      	movs	r2, #12
    3100:	0031      	movs	r1, r6
    3102:	3010      	adds	r0, #16
    3104:	f002 fe85 	bl	5e12 <strncpy>
    3108:	7725      	strb	r5, [r4, #28]
    310a:	0020      	movs	r0, r4
    310c:	bdf8      	pop	{r3, r4, r5, r6, r7, pc}
    310e:	46c0      	nop			; (mov r8, r8)
    3110:	0000610c 	.word	0x0000610c

00003114 <_ZN5SDLib4FileC1Ev>:
    3114:	22fa      	movs	r2, #250	; 0xfa
    3116:	2300      	movs	r3, #0
    3118:	0092      	lsls	r2, r2, #2
    311a:	6082      	str	r2, [r0, #8]
    311c:	4a03      	ldr	r2, [pc, #12]	; (312c <_ZN5SDLib4FileC1Ev+0x18>)
    311e:	6043      	str	r3, [r0, #4]
    3120:	3208      	adds	r2, #8
    3122:	6002      	str	r2, [r0, #0]
    3124:	6203      	str	r3, [r0, #32]
    3126:	7403      	strb	r3, [r0, #16]
    3128:	4770      	bx	lr
    312a:	46c0      	nop			; (mov r8, r8)
    312c:	0000610c 	.word	0x0000610c

00003130 <_ZN5SDLib4File4readEPvt>:
    3130:	6a03      	ldr	r3, [r0, #32]
    3132:	b510      	push	{r4, lr}
    3134:	1e18      	subs	r0, r3, #0
    3136:	d001      	beq.n	313c <_ZN5SDLib4File4readEPvt+0xc>
    3138:	f000 fc5e 	bl	39f8 <_ZN6SdFile4readEPvt>
    313c:	bd10      	pop	{r4, pc}

0000313e <_ZN5SDLib4File4seekEm>:
    313e:	6a03      	ldr	r3, [r0, #32]
    3140:	b510      	push	{r4, lr}
    3142:	1e18      	subs	r0, r3, #0
    3144:	d004      	beq.n	3150 <_ZN5SDLib4File4seekEm+0x12>
    3146:	f000 fcfb 	bl	3b40 <_ZN6SdFile7seekSetEm>
    314a:	1e43      	subs	r3, r0, #1
    314c:	4198      	sbcs	r0, r3
    314e:	b2c0      	uxtb	r0, r0
    3150:	bd10      	pop	{r4, pc}

00003152 <_ZN5SDLib4File8positionEv>:
    3152:	6a03      	ldr	r3, [r0, #32]
    3154:	2b00      	cmp	r3, #0
    3156:	d001      	beq.n	315c <_ZN5SDLib4File8positionEv+0xa>
    3158:	6918      	ldr	r0, [r3, #16]
    315a:	4770      	bx	lr
    315c:	2001      	movs	r0, #1
    315e:	4240      	negs	r0, r0
    3160:	e7fb      	b.n	315a <_ZN5SDLib4File8positionEv+0x8>

00003162 <_ZN5SDLib4File4sizeEv>:
    3162:	6a03      	ldr	r3, [r0, #32]
    3164:	1e18      	subs	r0, r3, #0
    3166:	d000      	beq.n	316a <_ZN5SDLib4File4sizeEv+0x8>
    3168:	69d8      	ldr	r0, [r3, #28]
    316a:	4770      	bx	lr

0000316c <_ZN5SDLib4File9availableEv>:
    316c:	b570      	push	{r4, r5, r6, lr}
    316e:	0005      	movs	r5, r0
    3170:	6a00      	ldr	r0, [r0, #32]
    3172:	2800      	cmp	r0, #0
    3174:	d00b      	beq.n	318e <_ZN5SDLib4File9availableEv+0x22>
    3176:	0028      	movs	r0, r5
    3178:	f7ff fff3 	bl	3162 <_ZN5SDLib4File4sizeEv>
    317c:	0004      	movs	r4, r0
    317e:	0028      	movs	r0, r5
    3180:	f7ff ffe7 	bl	3152 <_ZN5SDLib4File8positionEv>
    3184:	4b02      	ldr	r3, [pc, #8]	; (3190 <_ZN5SDLib4File9availableEv+0x24>)
    3186:	1a20      	subs	r0, r4, r0
    3188:	4298      	cmp	r0, r3
    318a:	d900      	bls.n	318e <_ZN5SDLib4File9availableEv+0x22>
    318c:	0018      	movs	r0, r3
    318e:	bd70      	pop	{r4, r5, r6, pc}
    3190:	00007fff 	.word	0x00007fff

00003194 <_ZN5SDLib4File5closeEv>:
    3194:	b510      	push	{r4, lr}
    3196:	0004      	movs	r4, r0
    3198:	6a00      	ldr	r0, [r0, #32]
    319a:	2800      	cmp	r0, #0
    319c:	d006      	beq.n	31ac <_ZN5SDLib4File5closeEv+0x18>
    319e:	f000 fd3b 	bl	3c18 <_ZN6SdFile5closeEv>
    31a2:	6a20      	ldr	r0, [r4, #32]
    31a4:	f002 fd2a 	bl	5bfc <free>
    31a8:	2300      	movs	r3, #0
    31aa:	6223      	str	r3, [r4, #32]
    31ac:	bd10      	pop	{r4, pc}

000031ae <_ZN5SDLib4FilecvbEv>:
    31ae:	6a03      	ldr	r3, [r0, #32]
    31b0:	1e18      	subs	r0, r3, #0
    31b2:	d003      	beq.n	31bc <_ZN5SDLib4FilecvbEv+0xe>
    31b4:	7a58      	ldrb	r0, [r3, #9]
    31b6:	1e43      	subs	r3, r0, #1
    31b8:	4198      	sbcs	r0, r3
    31ba:	b2c0      	uxtb	r0, r0
    31bc:	4770      	bx	lr

000031be <_ZN8SdVolume4initEP7Sd2Card>:
    31be:	b570      	push	{r4, r5, r6, lr}
    31c0:	2201      	movs	r2, #1
    31c2:	0004      	movs	r4, r0
    31c4:	000d      	movs	r5, r1
    31c6:	f001 f8cd 	bl	4364 <_ZN8SdVolume4initEP7Sd2Cardh>
    31ca:	0002      	movs	r2, r0
    31cc:	2001      	movs	r0, #1
    31ce:	2a00      	cmp	r2, #0
    31d0:	d103      	bne.n	31da <_ZN8SdVolume4initEP7Sd2Card+0x1c>
    31d2:	0029      	movs	r1, r5
    31d4:	0020      	movs	r0, r4
    31d6:	f001 f8c5 	bl	4364 <_ZN8SdVolume4initEP7Sd2Cardh>
    31da:	bd70      	pop	{r4, r5, r6, pc}

000031dc <_ZN5SDLib7SDClass5beginEh>:
    31dc:	0003      	movs	r3, r0
    31de:	b570      	push	{r4, r5, r6, lr}
    31e0:	3341      	adds	r3, #65	; 0x41
    31e2:	781b      	ldrb	r3, [r3, #0]
    31e4:	0004      	movs	r4, r0
    31e6:	000d      	movs	r5, r1
    31e8:	2b00      	cmp	r3, #0
    31ea:	d002      	beq.n	31f2 <_ZN5SDLib7SDClass5beginEh+0x16>
    31ec:	3038      	adds	r0, #56	; 0x38
    31ee:	f000 fd13 	bl	3c18 <_ZN6SdFile5closeEv>
    31f2:	002a      	movs	r2, r5
    31f4:	2101      	movs	r1, #1
    31f6:	0020      	movs	r0, r4
    31f8:	f000 f9b6 	bl	3568 <_ZN7Sd2Card4initEhh>
    31fc:	2800      	cmp	r0, #0
    31fe:	d101      	bne.n	3204 <_ZN5SDLib7SDClass5beginEh+0x28>
    3200:	2000      	movs	r0, #0
    3202:	bd70      	pop	{r4, r5, r6, pc}
    3204:	0025      	movs	r5, r4
    3206:	3510      	adds	r5, #16
    3208:	0021      	movs	r1, r4
    320a:	0028      	movs	r0, r5
    320c:	f7ff ffd7 	bl	31be <_ZN8SdVolume4initEP7Sd2Card>
    3210:	2800      	cmp	r0, #0
    3212:	d0f5      	beq.n	3200 <_ZN5SDLib7SDClass5beginEh+0x24>
    3214:	0020      	movs	r0, r4
    3216:	0029      	movs	r1, r5
    3218:	3038      	adds	r0, #56	; 0x38
    321a:	f000 fbc3 	bl	39a4 <_ZN6SdFile8openRootEP8SdVolume>
    321e:	1e43      	subs	r3, r0, #1
    3220:	4198      	sbcs	r0, r3
    3222:	b2c0      	uxtb	r0, r0
    3224:	e7ed      	b.n	3202 <_ZN5SDLib7SDClass5beginEh+0x26>
	...

00003228 <_ZN6SdFileC1ERKS_>:
    3228:	684b      	ldr	r3, [r1, #4]
    322a:	6043      	str	r3, [r0, #4]
    322c:	4b0a      	ldr	r3, [pc, #40]	; (3258 <_ZN6SdFileC1ERKS_+0x30>)
    322e:	6003      	str	r3, [r0, #0]
    3230:	7a0b      	ldrb	r3, [r1, #8]
    3232:	7203      	strb	r3, [r0, #8]
    3234:	7a4b      	ldrb	r3, [r1, #9]
    3236:	7243      	strb	r3, [r0, #9]
    3238:	68cb      	ldr	r3, [r1, #12]
    323a:	60c3      	str	r3, [r0, #12]
    323c:	690b      	ldr	r3, [r1, #16]
    323e:	6103      	str	r3, [r0, #16]
    3240:	694b      	ldr	r3, [r1, #20]
    3242:	6143      	str	r3, [r0, #20]
    3244:	7e0b      	ldrb	r3, [r1, #24]
    3246:	7603      	strb	r3, [r0, #24]
    3248:	69cb      	ldr	r3, [r1, #28]
    324a:	61c3      	str	r3, [r0, #28]
    324c:	6a0b      	ldr	r3, [r1, #32]
    324e:	6203      	str	r3, [r0, #32]
    3250:	6a4b      	ldr	r3, [r1, #36]	; 0x24
    3252:	6243      	str	r3, [r0, #36]	; 0x24
    3254:	4770      	bx	lr
    3256:	46c0      	nop			; (mov r8, r8)
    3258:	0000614c 	.word	0x0000614c

0000325c <_ZN5SDLib7SDClass12getParentDirEPKcPi>:
    325c:	b5f0      	push	{r4, r5, r6, r7, lr}
    325e:	b09d      	sub	sp, #116	; 0x74
    3260:	9303      	str	r3, [sp, #12]
    3262:	2300      	movs	r3, #0
    3264:	ac08      	add	r4, sp, #32
    3266:	9202      	str	r2, [sp, #8]
    3268:	ae12      	add	r6, sp, #72	; 0x48
    326a:	4a28      	ldr	r2, [pc, #160]	; (330c <_ZN5SDLib7SDClass12getParentDirEPKcPi+0xb0>)
    326c:	0007      	movs	r7, r0
    326e:	6063      	str	r3, [r4, #4]
    3270:	6073      	str	r3, [r6, #4]
    3272:	3110      	adds	r1, #16
    3274:	0020      	movs	r0, r4
    3276:	9208      	str	r2, [sp, #32]
    3278:	7263      	strb	r3, [r4, #9]
    327a:	9212      	str	r2, [sp, #72]	; 0x48
    327c:	7273      	strb	r3, [r6, #9]
    327e:	f000 fb91 	bl	39a4 <_ZN6SdFile8openRootEP8SdVolume>
    3282:	9d02      	ldr	r5, [sp, #8]
    3284:	212f      	movs	r1, #47	; 0x2f
    3286:	0028      	movs	r0, r5
    3288:	f002 fda6 	bl	5dd8 <strchr>
    328c:	2800      	cmp	r0, #0
    328e:	d034      	beq.n	32fa <_ZN5SDLib7SDClass12getParentDirEPKcPi+0x9e>
    3290:	782b      	ldrb	r3, [r5, #0]
    3292:	2b2f      	cmp	r3, #47	; 0x2f
    3294:	d107      	bne.n	32a6 <_ZN5SDLib7SDClass12getParentDirEPKcPi+0x4a>
    3296:	0033      	movs	r3, r6
    3298:	0026      	movs	r6, r4
    329a:	001c      	movs	r4, r3
    329c:	3501      	adds	r5, #1
    329e:	0023      	movs	r3, r4
    32a0:	0034      	movs	r4, r6
    32a2:	001e      	movs	r6, r3
    32a4:	e7ee      	b.n	3284 <_ZN5SDLib7SDClass12getParentDirEPKcPi+0x28>
    32a6:	23ff      	movs	r3, #255	; 0xff
    32a8:	1b40      	subs	r0, r0, r5
    32aa:	4003      	ands	r3, r0
    32ac:	2b0c      	cmp	r3, #12
    32ae:	dd00      	ble.n	32b2 <_ZN5SDLib7SDClass12getParentDirEPKcPi+0x56>
    32b0:	200c      	movs	r0, #12
    32b2:	23ff      	movs	r3, #255	; 0xff
    32b4:	4003      	ands	r3, r0
    32b6:	001a      	movs	r2, r3
    32b8:	0029      	movs	r1, r5
    32ba:	a804      	add	r0, sp, #16
    32bc:	9301      	str	r3, [sp, #4]
    32be:	f002 fda8 	bl	5e12 <strncpy>
    32c2:	2300      	movs	r3, #0
    32c4:	9901      	ldr	r1, [sp, #4]
    32c6:	aa04      	add	r2, sp, #16
    32c8:	0030      	movs	r0, r6
    32ca:	5453      	strb	r3, [r2, r1]
    32cc:	f000 fca4 	bl	3c18 <_ZN6SdFile5closeEv>
    32d0:	2301      	movs	r3, #1
    32d2:	aa04      	add	r2, sp, #16
    32d4:	0021      	movs	r1, r4
    32d6:	0030      	movs	r0, r6
    32d8:	f000 fd3c 	bl	3d54 <_ZN6SdFile4openEPS_PKch>
    32dc:	2800      	cmp	r0, #0
    32de:	d106      	bne.n	32ee <_ZN5SDLib7SDClass12getParentDirEPKcPi+0x92>
    32e0:	4b0a      	ldr	r3, [pc, #40]	; (330c <_ZN5SDLib7SDClass12getParentDirEPKcPi+0xb0>)
    32e2:	6078      	str	r0, [r7, #4]
    32e4:	603b      	str	r3, [r7, #0]
    32e6:	7278      	strb	r0, [r7, #9]
    32e8:	0038      	movs	r0, r7
    32ea:	b01d      	add	sp, #116	; 0x74
    32ec:	bdf0      	pop	{r4, r5, r6, r7, pc}
    32ee:	9b01      	ldr	r3, [sp, #4]
    32f0:	0020      	movs	r0, r4
    32f2:	18ed      	adds	r5, r5, r3
    32f4:	f000 fc90 	bl	3c18 <_ZN6SdFile5closeEv>
    32f8:	e7d1      	b.n	329e <_ZN5SDLib7SDClass12getParentDirEPKcPi+0x42>
    32fa:	9b02      	ldr	r3, [sp, #8]
    32fc:	0021      	movs	r1, r4
    32fe:	1aed      	subs	r5, r5, r3
    3300:	9b03      	ldr	r3, [sp, #12]
    3302:	0038      	movs	r0, r7
    3304:	601d      	str	r5, [r3, #0]
    3306:	f7ff ff8f 	bl	3228 <_ZN6SdFileC1ERKS_>
    330a:	e7ed      	b.n	32e8 <_ZN5SDLib7SDClass12getParentDirEPKcPi+0x8c>
    330c:	0000614c 	.word	0x0000614c

00003310 <_ZN5SDLib7SDClass4openEPKch>:
    3310:	b5f0      	push	{r4, r5, r6, r7, lr}
    3312:	0014      	movs	r4, r2
    3314:	b0a3      	sub	sp, #140	; 0x8c
    3316:	ae04      	add	r6, sp, #16
    3318:	9301      	str	r3, [sp, #4]
    331a:	0007      	movs	r7, r0
    331c:	ab03      	add	r3, sp, #12
    331e:	0030      	movs	r0, r6
    3320:	f7ff ff9c 	bl	325c <_ZN5SDLib7SDClass12getParentDirEPKcPi>
    3324:	9b03      	ldr	r3, [sp, #12]
    3326:	18e4      	adds	r4, r4, r3
    3328:	7823      	ldrb	r3, [r4, #0]
    332a:	2b00      	cmp	r3, #0
    332c:	d109      	bne.n	3342 <_ZN5SDLib7SDClass4openEPKch+0x32>
    332e:	0031      	movs	r1, r6
    3330:	a818      	add	r0, sp, #96	; 0x60
    3332:	f7ff ff79 	bl	3228 <_ZN6SdFileC1ERKS_>
    3336:	4a17      	ldr	r2, [pc, #92]	; (3394 <_ZN5SDLib7SDClass4openEPKch+0x84>)
    3338:	a918      	add	r1, sp, #96	; 0x60
    333a:	0038      	movs	r0, r7
    333c:	f7ff fec8 	bl	30d0 <_ZN5SDLib4FileC1E6SdFilePKc>
    3340:	e00b      	b.n	335a <_ZN5SDLib7SDClass4openEPKch+0x4a>
    3342:	2300      	movs	r3, #0
    3344:	ad0e      	add	r5, sp, #56	; 0x38
    3346:	606b      	str	r3, [r5, #4]
    3348:	4a13      	ldr	r2, [pc, #76]	; (3398 <_ZN5SDLib7SDClass4openEPKch+0x88>)
    334a:	726b      	strb	r3, [r5, #9]
    334c:	7a73      	ldrb	r3, [r6, #9]
    334e:	920e      	str	r2, [sp, #56]	; 0x38
    3350:	2b00      	cmp	r3, #0
    3352:	d105      	bne.n	3360 <_ZN5SDLib7SDClass4openEPKch+0x50>
    3354:	0038      	movs	r0, r7
    3356:	f7ff fedd 	bl	3114 <_ZN5SDLib4FileC1Ev>
    335a:	0038      	movs	r0, r7
    335c:	b023      	add	sp, #140	; 0x8c
    335e:	bdf0      	pop	{r4, r5, r6, r7, pc}
    3360:	9b01      	ldr	r3, [sp, #4]
    3362:	0022      	movs	r2, r4
    3364:	0031      	movs	r1, r6
    3366:	0028      	movs	r0, r5
    3368:	f000 fcf4 	bl	3d54 <_ZN6SdFile4openEPS_PKch>
    336c:	2800      	cmp	r0, #0
    336e:	d0f1      	beq.n	3354 <_ZN5SDLib7SDClass4openEPKch+0x44>
    3370:	0030      	movs	r0, r6
    3372:	f000 fc51 	bl	3c18 <_ZN6SdFile5closeEv>
    3376:	2306      	movs	r3, #6
    3378:	9a01      	ldr	r2, [sp, #4]
    337a:	401a      	ands	r2, r3
    337c:	2a06      	cmp	r2, #6
    337e:	d103      	bne.n	3388 <_ZN5SDLib7SDClass4openEPKch+0x78>
    3380:	9915      	ldr	r1, [sp, #84]	; 0x54
    3382:	0028      	movs	r0, r5
    3384:	f000 fbdc 	bl	3b40 <_ZN6SdFile7seekSetEm>
    3388:	0029      	movs	r1, r5
    338a:	a818      	add	r0, sp, #96	; 0x60
    338c:	f7ff ff4c 	bl	3228 <_ZN6SdFileC1ERKS_>
    3390:	0022      	movs	r2, r4
    3392:	e7d1      	b.n	3338 <_ZN5SDLib7SDClass4openEPKch+0x28>
    3394:	00006130 	.word	0x00006130
    3398:	0000614c 	.word	0x0000614c

0000339c <_GLOBAL__sub_I__ZN5SDLib20getNextPathComponentEPKcPjPc>:
    339c:	2102      	movs	r1, #2
    339e:	4b08      	ldr	r3, [pc, #32]	; (33c0 <_GLOBAL__sub_I__ZN5SDLib20getNextPathComponentEPKcPjPc+0x24>)
    33a0:	2200      	movs	r2, #0
    33a2:	6119      	str	r1, [r3, #16]
    33a4:	0019      	movs	r1, r3
    33a6:	3130      	adds	r1, #48	; 0x30
    33a8:	700a      	strb	r2, [r1, #0]
    33aa:	4906      	ldr	r1, [pc, #24]	; (33c4 <_GLOBAL__sub_I__ZN5SDLib20getNextPathComponentEPKcPjPc+0x28>)
    33ac:	715a      	strb	r2, [r3, #5]
    33ae:	719a      	strb	r2, [r3, #6]
    33b0:	729a      	strb	r2, [r3, #10]
    33b2:	731a      	strb	r2, [r3, #12]
    33b4:	63da      	str	r2, [r3, #60]	; 0x3c
    33b6:	6399      	str	r1, [r3, #56]	; 0x38
    33b8:	3341      	adds	r3, #65	; 0x41
    33ba:	701a      	strb	r2, [r3, #0]
    33bc:	4770      	bx	lr
    33be:	46c0      	nop			; (mov r8, r8)
    33c0:	20000784 	.word	0x20000784
    33c4:	0000614c 	.word	0x0000614c

000033c8 <_ZL7spiSendh>:
    33c8:	b510      	push	{r4, lr}
    33ca:	0001      	movs	r1, r0
    33cc:	4801      	ldr	r0, [pc, #4]	; (33d4 <_ZL7spiSendh+0xc>)
    33ce:	f001 f8d1 	bl	4574 <_ZN8SPIClass8transferEh>
    33d2:	bd10      	pop	{r4, pc}
    33d4:	20000a04 	.word	0x20000a04

000033d8 <_ZL6spiRecv>:
    33d8:	b510      	push	{r4, lr}
    33da:	21ff      	movs	r1, #255	; 0xff
    33dc:	4801      	ldr	r0, [pc, #4]	; (33e4 <_ZL6spiRecv+0xc>)
    33de:	f001 f8c9 	bl	4574 <_ZN8SPIClass8transferEh>
    33e2:	bd10      	pop	{r4, pc}
    33e4:	20000a04 	.word	0x20000a04

000033e8 <_ZN7Sd2Card14chipSelectHighEv>:
    33e8:	b510      	push	{r4, lr}
    33ea:	2101      	movs	r1, #1
    33ec:	7900      	ldrb	r0, [r0, #4]
    33ee:	f7fe ffbf 	bl	2370 <digitalWrite>
    33f2:	4b05      	ldr	r3, [pc, #20]	; (3408 <_ZN7Sd2Card14chipSelectHighEv+0x20>)
    33f4:	781a      	ldrb	r2, [r3, #0]
    33f6:	2a00      	cmp	r2, #0
    33f8:	d004      	beq.n	3404 <_ZN7Sd2Card14chipSelectHighEv+0x1c>
    33fa:	2200      	movs	r2, #0
    33fc:	4803      	ldr	r0, [pc, #12]	; (340c <_ZN7Sd2Card14chipSelectHighEv+0x24>)
    33fe:	701a      	strb	r2, [r3, #0]
    3400:	f001 f8a4 	bl	454c <_ZN8SPIClass14endTransactionEv>
    3404:	bd10      	pop	{r4, pc}
    3406:	46c0      	nop			; (mov r8, r8)
    3408:	200007e8 	.word	0x200007e8
    340c:	20000a04 	.word	0x20000a04

00003410 <_ZN7Sd2Card13chipSelectLowEv>:
    3410:	b510      	push	{r4, lr}
    3412:	4b08      	ldr	r3, [pc, #32]	; (3434 <_ZN7Sd2Card13chipSelectLowEv+0x24>)
    3414:	0004      	movs	r4, r0
    3416:	781a      	ldrb	r2, [r3, #0]
    3418:	2a00      	cmp	r2, #0
    341a:	d106      	bne.n	342a <_ZN7Sd2Card13chipSelectLowEv+0x1a>
    341c:	3201      	adds	r2, #1
    341e:	701a      	strb	r2, [r3, #0]
    3420:	4b05      	ldr	r3, [pc, #20]	; (3438 <_ZN7Sd2Card13chipSelectLowEv+0x28>)
    3422:	4806      	ldr	r0, [pc, #24]	; (343c <_ZN7Sd2Card13chipSelectLowEv+0x2c>)
    3424:	cb06      	ldmia	r3!, {r1, r2}
    3426:	f001 f875 	bl	4514 <_ZN8SPIClass16beginTransactionE11SPISettings>
    342a:	7920      	ldrb	r0, [r4, #4]
    342c:	2100      	movs	r1, #0
    342e:	f7fe ff9f 	bl	2370 <digitalWrite>
    3432:	bd10      	pop	{r4, pc}
    3434:	200007e8 	.word	0x200007e8
    3438:	200007ec 	.word	0x200007ec
    343c:	20000a04 	.word	0x20000a04

00003440 <_ZN7Sd2Card7readEndEv>:
    3440:	b510      	push	{r4, lr}
    3442:	7983      	ldrb	r3, [r0, #6]
    3444:	0004      	movs	r4, r0
    3446:	2b00      	cmp	r3, #0
    3448:	d00d      	beq.n	3466 <_ZN7Sd2Card7readEndEv+0x26>
    344a:	8923      	ldrh	r3, [r4, #8]
    344c:	1c5a      	adds	r2, r3, #1
    344e:	8122      	strh	r2, [r4, #8]
    3450:	4a05      	ldr	r2, [pc, #20]	; (3468 <_ZN7Sd2Card7readEndEv+0x28>)
    3452:	4293      	cmp	r3, r2
    3454:	dc02      	bgt.n	345c <_ZN7Sd2Card7readEndEv+0x1c>
    3456:	f7ff ffbf 	bl	33d8 <_ZL6spiRecv>
    345a:	e7f6      	b.n	344a <_ZN7Sd2Card7readEndEv+0xa>
    345c:	0020      	movs	r0, r4
    345e:	f7ff ffc3 	bl	33e8 <_ZN7Sd2Card14chipSelectHighEv>
    3462:	2300      	movs	r3, #0
    3464:	71a3      	strb	r3, [r4, #6]
    3466:	bd10      	pop	{r4, pc}
    3468:	00000201 	.word	0x00000201

0000346c <_ZN7Sd2Card10setSckRateEh>:
    346c:	b500      	push	{lr}
    346e:	2906      	cmp	r1, #6
    3470:	dd04      	ble.n	347c <_ZN7Sd2Card10setSckRateEh+0x10>
    3472:	2316      	movs	r3, #22
    3474:	2100      	movs	r1, #0
    3476:	7143      	strb	r3, [r0, #5]
    3478:	0008      	movs	r0, r1
    347a:	bd00      	pop	{pc}
    347c:	4b10      	ldr	r3, [pc, #64]	; (34c0 <_ZN7Sd2Card10setSckRateEh+0x54>)
    347e:	2905      	cmp	r1, #5
    3480:	d819      	bhi.n	34b6 <_ZN7Sd2Card10setSckRateEh+0x4a>
    3482:	0008      	movs	r0, r1
    3484:	2200      	movs	r2, #0
    3486:	f002 fa0b 	bl	58a0 <__gnu_thumb1_case_uqi>
    348a:	0903      	.short	0x0903
    348c:	1412100e 	.word	0x1412100e
    3490:	490c      	ldr	r1, [pc, #48]	; (34c4 <_ZN7Sd2Card10setSckRateEh+0x58>)
    3492:	6019      	str	r1, [r3, #0]
    3494:	711a      	strb	r2, [r3, #4]
    3496:	715a      	strb	r2, [r3, #5]
    3498:	2101      	movs	r1, #1
    349a:	e7ed      	b.n	3478 <_ZN7Sd2Card10setSckRateEh+0xc>
    349c:	480a      	ldr	r0, [pc, #40]	; (34c8 <_ZN7Sd2Card10setSckRateEh+0x5c>)
    349e:	711a      	strb	r2, [r3, #4]
    34a0:	6018      	str	r0, [r3, #0]
    34a2:	715a      	strb	r2, [r3, #5]
    34a4:	e7e8      	b.n	3478 <_ZN7Sd2Card10setSckRateEh+0xc>
    34a6:	4909      	ldr	r1, [pc, #36]	; (34cc <_ZN7Sd2Card10setSckRateEh+0x60>)
    34a8:	e7f3      	b.n	3492 <_ZN7Sd2Card10setSckRateEh+0x26>
    34aa:	4909      	ldr	r1, [pc, #36]	; (34d0 <_ZN7Sd2Card10setSckRateEh+0x64>)
    34ac:	e7f1      	b.n	3492 <_ZN7Sd2Card10setSckRateEh+0x26>
    34ae:	4909      	ldr	r1, [pc, #36]	; (34d4 <_ZN7Sd2Card10setSckRateEh+0x68>)
    34b0:	e7ef      	b.n	3492 <_ZN7Sd2Card10setSckRateEh+0x26>
    34b2:	4909      	ldr	r1, [pc, #36]	; (34d8 <_ZN7Sd2Card10setSckRateEh+0x6c>)
    34b4:	e7ed      	b.n	3492 <_ZN7Sd2Card10setSckRateEh+0x26>
    34b6:	4a09      	ldr	r2, [pc, #36]	; (34dc <_ZN7Sd2Card10setSckRateEh+0x70>)
    34b8:	601a      	str	r2, [r3, #0]
    34ba:	2200      	movs	r2, #0
    34bc:	e7ea      	b.n	3494 <_ZN7Sd2Card10setSckRateEh+0x28>
    34be:	46c0      	nop			; (mov r8, r8)
    34c0:	200007ec 	.word	0x200007ec
    34c4:	00b71b00 	.word	0x00b71b00
    34c8:	003d0900 	.word	0x003d0900
    34cc:	001e8480 	.word	0x001e8480
    34d0:	000f4240 	.word	0x000f4240
    34d4:	0007a120 	.word	0x0007a120
    34d8:	0003d090 	.word	0x0003d090
    34dc:	0001e848 	.word	0x0001e848

000034e0 <_ZN7Sd2Card11waitNotBusyEj>:
    34e0:	b570      	push	{r4, r5, r6, lr}
    34e2:	000c      	movs	r4, r1
    34e4:	f7fd fa9e 	bl	a24 <millis>
    34e8:	0005      	movs	r5, r0
    34ea:	f7ff ff75 	bl	33d8 <_ZL6spiRecv>
    34ee:	28ff      	cmp	r0, #255	; 0xff
    34f0:	d006      	beq.n	3500 <_ZN7Sd2Card11waitNotBusyEj+0x20>
    34f2:	f7fd fa97 	bl	a24 <millis>
    34f6:	1b40      	subs	r0, r0, r5
    34f8:	42a0      	cmp	r0, r4
    34fa:	d3f6      	bcc.n	34ea <_ZN7Sd2Card11waitNotBusyEj+0xa>
    34fc:	2000      	movs	r0, #0
    34fe:	bd70      	pop	{r4, r5, r6, pc}
    3500:	2001      	movs	r0, #1
    3502:	e7fc      	b.n	34fe <_ZN7Sd2Card11waitNotBusyEj+0x1e>

00003504 <_ZN7Sd2Card11cardCommandEhm>:
    3504:	b5f8      	push	{r3, r4, r5, r6, r7, lr}
    3506:	0005      	movs	r5, r0
    3508:	000e      	movs	r6, r1
    350a:	0017      	movs	r7, r2
    350c:	f7ff ff98 	bl	3440 <_ZN7Sd2Card7readEndEv>
    3510:	0028      	movs	r0, r5
    3512:	f7ff ff7d 	bl	3410 <_ZN7Sd2Card13chipSelectLowEv>
    3516:	2196      	movs	r1, #150	; 0x96
    3518:	0028      	movs	r0, r5
    351a:	0049      	lsls	r1, r1, #1
    351c:	f7ff ffe0 	bl	34e0 <_ZN7Sd2Card11waitNotBusyEj>
    3520:	2040      	movs	r0, #64	; 0x40
    3522:	4330      	orrs	r0, r6
    3524:	f7ff ff50 	bl	33c8 <_ZL7spiSendh>
    3528:	2418      	movs	r4, #24
    352a:	0038      	movs	r0, r7
    352c:	40e0      	lsrs	r0, r4
    352e:	3c08      	subs	r4, #8
    3530:	b2c0      	uxtb	r0, r0
    3532:	f7ff ff49 	bl	33c8 <_ZL7spiSendh>
    3536:	0023      	movs	r3, r4
    3538:	3308      	adds	r3, #8
    353a:	d1f6      	bne.n	352a <_ZN7Sd2Card11cardCommandEhm+0x26>
    353c:	2095      	movs	r0, #149	; 0x95
    353e:	2e00      	cmp	r6, #0
    3540:	d003      	beq.n	354a <_ZN7Sd2Card11cardCommandEhm+0x46>
    3542:	306a      	adds	r0, #106	; 0x6a
    3544:	2e08      	cmp	r6, #8
    3546:	d100      	bne.n	354a <_ZN7Sd2Card11cardCommandEhm+0x46>
    3548:	3878      	subs	r0, #120	; 0x78
    354a:	f7ff ff3d 	bl	33c8 <_ZL7spiSendh>
    354e:	2400      	movs	r4, #0
    3550:	f7ff ff42 	bl	33d8 <_ZL6spiRecv>
    3554:	b243      	sxtb	r3, r0
    3556:	72e8      	strb	r0, [r5, #11]
    3558:	2b00      	cmp	r3, #0
    355a:	da04      	bge.n	3566 <_ZN7Sd2Card11cardCommandEhm+0x62>
    355c:	2cff      	cmp	r4, #255	; 0xff
    355e:	d002      	beq.n	3566 <_ZN7Sd2Card11cardCommandEhm+0x62>
    3560:	3401      	adds	r4, #1
    3562:	b2e4      	uxtb	r4, r4
    3564:	e7f4      	b.n	3550 <_ZN7Sd2Card11cardCommandEhm+0x4c>
    3566:	bdf8      	pop	{r3, r4, r5, r6, r7, pc}

00003568 <_ZN7Sd2Card4initEhh>:
    3568:	b5f7      	push	{r0, r1, r2, r4, r5, r6, r7, lr}
    356a:	2500      	movs	r5, #0
    356c:	7102      	strb	r2, [r0, #4]
    356e:	7305      	strb	r5, [r0, #12]
    3570:	7285      	strb	r5, [r0, #10]
    3572:	7185      	strb	r5, [r0, #6]
    3574:	7145      	strb	r5, [r0, #5]
    3576:	0004      	movs	r4, r0
    3578:	9101      	str	r1, [sp, #4]
    357a:	f7fd fa53 	bl	a24 <millis>
    357e:	2101      	movs	r1, #1
    3580:	0007      	movs	r7, r0
    3582:	7920      	ldrb	r0, [r4, #4]
    3584:	f7fe fea8 	bl	22d8 <pinMode>
    3588:	2101      	movs	r1, #1
    358a:	7920      	ldrb	r0, [r4, #4]
    358c:	f7fe fef0 	bl	2370 <digitalWrite>
    3590:	4e42      	ldr	r6, [pc, #264]	; (369c <_ZN7Sd2Card4initEhh+0x134>)
    3592:	0030      	movs	r0, r6
    3594:	f000 ff96 	bl	44c4 <_ZN8SPIClass5beginEv>
    3598:	4b41      	ldr	r3, [pc, #260]	; (36a0 <_ZN7Sd2Card4initEhh+0x138>)
    359a:	4942      	ldr	r1, [pc, #264]	; (36a4 <_ZN7Sd2Card4initEhh+0x13c>)
    359c:	711d      	strb	r5, [r3, #4]
    359e:	715d      	strb	r5, [r3, #5]
    35a0:	6019      	str	r1, [r3, #0]
    35a2:	685a      	ldr	r2, [r3, #4]
    35a4:	0030      	movs	r0, r6
    35a6:	f000 ffb5 	bl	4514 <_ZN8SPIClass16beginTransactionE11SPISettings>
    35aa:	350b      	adds	r5, #11
    35ac:	3d01      	subs	r5, #1
    35ae:	2d00      	cmp	r5, #0
    35b0:	d003      	beq.n	35ba <_ZN7Sd2Card4initEhh+0x52>
    35b2:	20ff      	movs	r0, #255	; 0xff
    35b4:	f7ff ff08 	bl	33c8 <_ZL7spiSendh>
    35b8:	e7f8      	b.n	35ac <_ZN7Sd2Card4initEhh+0x44>
    35ba:	0030      	movs	r0, r6
    35bc:	f000 ffc6 	bl	454c <_ZN8SPIClass14endTransactionEv>
    35c0:	26fa      	movs	r6, #250	; 0xfa
    35c2:	0020      	movs	r0, r4
    35c4:	f7ff ff24 	bl	3410 <_ZN7Sd2Card13chipSelectLowEv>
    35c8:	00f6      	lsls	r6, r6, #3
    35ca:	2200      	movs	r2, #0
    35cc:	0020      	movs	r0, r4
    35ce:	0011      	movs	r1, r2
    35d0:	f7ff ff98 	bl	3504 <_ZN7Sd2Card11cardCommandEhm>
    35d4:	0005      	movs	r5, r0
    35d6:	72e0      	strb	r0, [r4, #11]
    35d8:	2801      	cmp	r0, #1
    35da:	d00b      	beq.n	35f4 <_ZN7Sd2Card4initEhh+0x8c>
    35dc:	f7fd fa22 	bl	a24 <millis>
    35e0:	1bc0      	subs	r0, r0, r7
    35e2:	42b0      	cmp	r0, r6
    35e4:	d9f1      	bls.n	35ca <_ZN7Sd2Card4initEhh+0x62>
    35e6:	2301      	movs	r3, #1
    35e8:	0020      	movs	r0, r4
    35ea:	7163      	strb	r3, [r4, #5]
    35ec:	f7ff fefc 	bl	33e8 <_ZN7Sd2Card14chipSelectHighEv>
    35f0:	2000      	movs	r0, #0
    35f2:	bdfe      	pop	{r1, r2, r3, r4, r5, r6, r7, pc}
    35f4:	22d5      	movs	r2, #213	; 0xd5
    35f6:	2108      	movs	r1, #8
    35f8:	0052      	lsls	r2, r2, #1
    35fa:	0020      	movs	r0, r4
    35fc:	f7ff ff82 	bl	3504 <_ZN7Sd2Card11cardCommandEhm>
    3600:	0743      	lsls	r3, r0, #29
    3602:	d407      	bmi.n	3614 <_ZN7Sd2Card4initEhh+0xac>
    3604:	2505      	movs	r5, #5
    3606:	3d01      	subs	r5, #1
    3608:	2d00      	cmp	r5, #0
    360a:	d01f      	beq.n	364c <_ZN7Sd2Card4initEhh+0xe4>
    360c:	f7ff fee4 	bl	33d8 <_ZL6spiRecv>
    3610:	72e0      	strb	r0, [r4, #11]
    3612:	e7f8      	b.n	3606 <_ZN7Sd2Card4initEhh+0x9e>
    3614:	7325      	strb	r5, [r4, #12]
    3616:	7b25      	ldrb	r5, [r4, #12]
    3618:	26fa      	movs	r6, #250	; 0xfa
    361a:	3d02      	subs	r5, #2
    361c:	426b      	negs	r3, r5
    361e:	415d      	adcs	r5, r3
    3620:	00f6      	lsls	r6, r6, #3
    3622:	07ad      	lsls	r5, r5, #30
    3624:	2200      	movs	r2, #0
    3626:	2137      	movs	r1, #55	; 0x37
    3628:	0020      	movs	r0, r4
    362a:	f7ff ff6b 	bl	3504 <_ZN7Sd2Card11cardCommandEhm>
    362e:	002a      	movs	r2, r5
    3630:	2129      	movs	r1, #41	; 0x29
    3632:	0020      	movs	r0, r4
    3634:	f7ff ff66 	bl	3504 <_ZN7Sd2Card11cardCommandEhm>
    3638:	1e02      	subs	r2, r0, #0
    363a:	72e0      	strb	r0, [r4, #11]
    363c:	d00c      	beq.n	3658 <_ZN7Sd2Card4initEhh+0xf0>
    363e:	f7fd f9f1 	bl	a24 <millis>
    3642:	1bc0      	subs	r0, r0, r7
    3644:	42b0      	cmp	r0, r6
    3646:	d9ed      	bls.n	3624 <_ZN7Sd2Card4initEhh+0xbc>
    3648:	2308      	movs	r3, #8
    364a:	e7cd      	b.n	35e8 <_ZN7Sd2Card4initEhh+0x80>
    364c:	7ae2      	ldrb	r2, [r4, #11]
    364e:	2302      	movs	r3, #2
    3650:	2aaa      	cmp	r2, #170	; 0xaa
    3652:	d1c9      	bne.n	35e8 <_ZN7Sd2Card4initEhh+0x80>
    3654:	7323      	strb	r3, [r4, #12]
    3656:	e7de      	b.n	3616 <_ZN7Sd2Card4initEhh+0xae>
    3658:	7b23      	ldrb	r3, [r4, #12]
    365a:	2b02      	cmp	r3, #2
    365c:	d115      	bne.n	368a <_ZN7Sd2Card4initEhh+0x122>
    365e:	213a      	movs	r1, #58	; 0x3a
    3660:	0020      	movs	r0, r4
    3662:	f7ff ff4f 	bl	3504 <_ZN7Sd2Card11cardCommandEhm>
    3666:	2800      	cmp	r0, #0
    3668:	d001      	beq.n	366e <_ZN7Sd2Card4initEhh+0x106>
    366a:	2306      	movs	r3, #6
    366c:	e7bc      	b.n	35e8 <_ZN7Sd2Card4initEhh+0x80>
    366e:	f7ff feb3 	bl	33d8 <_ZL6spiRecv>
    3672:	23c0      	movs	r3, #192	; 0xc0
    3674:	4018      	ands	r0, r3
    3676:	4298      	cmp	r0, r3
    3678:	d101      	bne.n	367e <_ZN7Sd2Card4initEhh+0x116>
    367a:	3bbd      	subs	r3, #189	; 0xbd
    367c:	7323      	strb	r3, [r4, #12]
    367e:	f7ff feab 	bl	33d8 <_ZL6spiRecv>
    3682:	f7ff fea9 	bl	33d8 <_ZL6spiRecv>
    3686:	f7ff fea7 	bl	33d8 <_ZL6spiRecv>
    368a:	0020      	movs	r0, r4
    368c:	f7ff feac 	bl	33e8 <_ZN7Sd2Card14chipSelectHighEv>
    3690:	9901      	ldr	r1, [sp, #4]
    3692:	0020      	movs	r0, r4
    3694:	f7ff feea 	bl	346c <_ZN7Sd2Card10setSckRateEh>
    3698:	e7ab      	b.n	35f2 <_ZN7Sd2Card4initEhh+0x8a>
    369a:	46c0      	nop			; (mov r8, r8)
    369c:	20000a04 	.word	0x20000a04
    36a0:	200007ec 	.word	0x200007ec
    36a4:	0003d090 	.word	0x0003d090

000036a8 <_ZN7Sd2Card14waitStartBlockEv>:
    36a8:	b570      	push	{r4, r5, r6, lr}
    36aa:	0004      	movs	r4, r0
    36ac:	f7fd f9ba 	bl	a24 <millis>
    36b0:	2596      	movs	r5, #150	; 0x96
    36b2:	0006      	movs	r6, r0
    36b4:	006d      	lsls	r5, r5, #1
    36b6:	f7ff fe8f 	bl	33d8 <_ZL6spiRecv>
    36ba:	0003      	movs	r3, r0
    36bc:	72e0      	strb	r0, [r4, #11]
    36be:	28ff      	cmp	r0, #255	; 0xff
    36c0:	d10b      	bne.n	36da <_ZN7Sd2Card14waitStartBlockEv+0x32>
    36c2:	f7fd f9af 	bl	a24 <millis>
    36c6:	1b80      	subs	r0, r0, r6
    36c8:	42a8      	cmp	r0, r5
    36ca:	d9f4      	bls.n	36b6 <_ZN7Sd2Card14waitStartBlockEv+0xe>
    36cc:	230f      	movs	r3, #15
    36ce:	0020      	movs	r0, r4
    36d0:	7163      	strb	r3, [r4, #5]
    36d2:	f7ff fe89 	bl	33e8 <_ZN7Sd2Card14chipSelectHighEv>
    36d6:	2000      	movs	r0, #0
    36d8:	bd70      	pop	{r4, r5, r6, pc}
    36da:	2001      	movs	r0, #1
    36dc:	2bfe      	cmp	r3, #254	; 0xfe
    36de:	d0fb      	beq.n	36d8 <_ZN7Sd2Card14waitStartBlockEv+0x30>
    36e0:	230d      	movs	r3, #13
    36e2:	e7f4      	b.n	36ce <_ZN7Sd2Card14waitStartBlockEv+0x26>

000036e4 <_ZN7Sd2Card8readDataEmttPh.part.6>:
    36e4:	b5f8      	push	{r3, r4, r5, r6, r7, lr}
    36e6:	0016      	movs	r6, r2
    36e8:	001d      	movs	r5, r3
    36ea:	189a      	adds	r2, r3, r2
    36ec:	2380      	movs	r3, #128	; 0x80
    36ee:	0004      	movs	r4, r0
    36f0:	009b      	lsls	r3, r3, #2
    36f2:	429a      	cmp	r2, r3
    36f4:	dc16      	bgt.n	3724 <_ZN7Sd2Card8readDataEmttPh.part.6+0x40>
    36f6:	7983      	ldrb	r3, [r0, #6]
    36f8:	2b00      	cmp	r3, #0
    36fa:	d005      	beq.n	3708 <_ZN7Sd2Card8readDataEmttPh.part.6+0x24>
    36fc:	6803      	ldr	r3, [r0, #0]
    36fe:	428b      	cmp	r3, r1
    3700:	d102      	bne.n	3708 <_ZN7Sd2Card8readDataEmttPh.part.6+0x24>
    3702:	8903      	ldrh	r3, [r0, #8]
    3704:	429e      	cmp	r6, r3
    3706:	da1a      	bge.n	373e <_ZN7Sd2Card8readDataEmttPh.part.6+0x5a>
    3708:	7b23      	ldrb	r3, [r4, #12]
    370a:	6021      	str	r1, [r4, #0]
    370c:	2b03      	cmp	r3, #3
    370e:	d000      	beq.n	3712 <_ZN7Sd2Card8readDataEmttPh.part.6+0x2e>
    3710:	0249      	lsls	r1, r1, #9
    3712:	000a      	movs	r2, r1
    3714:	0020      	movs	r0, r4
    3716:	2111      	movs	r1, #17
    3718:	f7ff fef4 	bl	3504 <_ZN7Sd2Card11cardCommandEhm>
    371c:	1e07      	subs	r7, r0, #0
    371e:	d006      	beq.n	372e <_ZN7Sd2Card8readDataEmttPh.part.6+0x4a>
    3720:	2303      	movs	r3, #3
    3722:	7163      	strb	r3, [r4, #5]
    3724:	0020      	movs	r0, r4
    3726:	f7ff fe5f 	bl	33e8 <_ZN7Sd2Card14chipSelectHighEv>
    372a:	2000      	movs	r0, #0
    372c:	e02a      	b.n	3784 <_ZN7Sd2Card8readDataEmttPh.part.6+0xa0>
    372e:	0020      	movs	r0, r4
    3730:	f7ff ffba 	bl	36a8 <_ZN7Sd2Card14waitStartBlockEv>
    3734:	2800      	cmp	r0, #0
    3736:	d0f5      	beq.n	3724 <_ZN7Sd2Card8readDataEmttPh.part.6+0x40>
    3738:	2301      	movs	r3, #1
    373a:	8127      	strh	r7, [r4, #8]
    373c:	71a3      	strb	r3, [r4, #6]
    373e:	8923      	ldrh	r3, [r4, #8]
    3740:	429e      	cmp	r6, r3
    3742:	dc0a      	bgt.n	375a <_ZN7Sd2Card8readDataEmttPh.part.6+0x76>
    3744:	2600      	movs	r6, #0
    3746:	42b5      	cmp	r5, r6
    3748:	dd0d      	ble.n	3766 <_ZN7Sd2Card8readDataEmttPh.part.6+0x82>
    374a:	9b06      	ldr	r3, [sp, #24]
    374c:	199f      	adds	r7, r3, r6
    374e:	f7ff fe43 	bl	33d8 <_ZL6spiRecv>
    3752:	3601      	adds	r6, #1
    3754:	7038      	strb	r0, [r7, #0]
    3756:	b2b6      	uxth	r6, r6
    3758:	e7f5      	b.n	3746 <_ZN7Sd2Card8readDataEmttPh.part.6+0x62>
    375a:	f7ff fe3d 	bl	33d8 <_ZL6spiRecv>
    375e:	8923      	ldrh	r3, [r4, #8]
    3760:	3301      	adds	r3, #1
    3762:	8123      	strh	r3, [r4, #8]
    3764:	e7eb      	b.n	373e <_ZN7Sd2Card8readDataEmttPh.part.6+0x5a>
    3766:	8923      	ldrh	r3, [r4, #8]
    3768:	18ed      	adds	r5, r5, r3
    376a:	7aa3      	ldrb	r3, [r4, #10]
    376c:	b2ad      	uxth	r5, r5
    376e:	8125      	strh	r5, [r4, #8]
    3770:	2b00      	cmp	r3, #0
    3772:	d003      	beq.n	377c <_ZN7Sd2Card8readDataEmttPh.part.6+0x98>
    3774:	4b04      	ldr	r3, [pc, #16]	; (3788 <_ZN7Sd2Card8readDataEmttPh.part.6+0xa4>)
    3776:	2001      	movs	r0, #1
    3778:	429d      	cmp	r5, r3
    377a:	d903      	bls.n	3784 <_ZN7Sd2Card8readDataEmttPh.part.6+0xa0>
    377c:	0020      	movs	r0, r4
    377e:	f7ff fe5f 	bl	3440 <_ZN7Sd2Card7readEndEv>
    3782:	2001      	movs	r0, #1
    3784:	bdf8      	pop	{r3, r4, r5, r6, r7, pc}
    3786:	46c0      	nop			; (mov r8, r8)
    3788:	000001ff 	.word	0x000001ff

0000378c <_ZN7Sd2Card8readDataEmttPh>:
    378c:	b513      	push	{r0, r1, r4, lr}
    378e:	0004      	movs	r4, r0
    3790:	2001      	movs	r0, #1
    3792:	2b00      	cmp	r3, #0
    3794:	d004      	beq.n	37a0 <_ZN7Sd2Card8readDataEmttPh+0x14>
    3796:	9804      	ldr	r0, [sp, #16]
    3798:	9000      	str	r0, [sp, #0]
    379a:	0020      	movs	r0, r4
    379c:	f7ff ffa2 	bl	36e4 <_ZN7Sd2Card8readDataEmttPh.part.6>
    37a0:	bd16      	pop	{r1, r2, r4, pc}

000037a2 <_ZN7Sd2Card9readBlockEmPh>:
    37a2:	2380      	movs	r3, #128	; 0x80
    37a4:	b507      	push	{r0, r1, r2, lr}
    37a6:	009b      	lsls	r3, r3, #2
    37a8:	9200      	str	r2, [sp, #0]
    37aa:	2200      	movs	r2, #0
    37ac:	f7ff ff9a 	bl	36e4 <_ZN7Sd2Card8readDataEmttPh.part.6>
    37b0:	bd0e      	pop	{r1, r2, r3, pc}

000037b2 <_ZN7Sd2Card9writeDataEhPKh>:
    37b2:	b570      	push	{r4, r5, r6, lr}
    37b4:	0005      	movs	r5, r0
    37b6:	0008      	movs	r0, r1
    37b8:	0014      	movs	r4, r2
    37ba:	f7ff fe05 	bl	33c8 <_ZL7spiSendh>
    37be:	2380      	movs	r3, #128	; 0x80
    37c0:	009b      	lsls	r3, r3, #2
    37c2:	18e6      	adds	r6, r4, r3
    37c4:	42b4      	cmp	r4, r6
    37c6:	d004      	beq.n	37d2 <_ZN7Sd2Card9writeDataEhPKh+0x20>
    37c8:	7820      	ldrb	r0, [r4, #0]
    37ca:	f7ff fdfd 	bl	33c8 <_ZL7spiSendh>
    37ce:	3401      	adds	r4, #1
    37d0:	e7f8      	b.n	37c4 <_ZN7Sd2Card9writeDataEhPKh+0x12>
    37d2:	20ff      	movs	r0, #255	; 0xff
    37d4:	f7ff fdf8 	bl	33c8 <_ZL7spiSendh>
    37d8:	20ff      	movs	r0, #255	; 0xff
    37da:	f7ff fdf5 	bl	33c8 <_ZL7spiSendh>
    37de:	f7ff fdfb 	bl	33d8 <_ZL6spiRecv>
    37e2:	231f      	movs	r3, #31
    37e4:	72e8      	strb	r0, [r5, #11]
    37e6:	4003      	ands	r3, r0
    37e8:	2001      	movs	r0, #1
    37ea:	2b05      	cmp	r3, #5
    37ec:	d005      	beq.n	37fa <_ZN7Sd2Card9writeDataEhPKh+0x48>
    37ee:	2311      	movs	r3, #17
    37f0:	0028      	movs	r0, r5
    37f2:	716b      	strb	r3, [r5, #5]
    37f4:	f7ff fdf8 	bl	33e8 <_ZN7Sd2Card14chipSelectHighEv>
    37f8:	2000      	movs	r0, #0
    37fa:	bd70      	pop	{r4, r5, r6, pc}

000037fc <_ZN7Sd2Card10writeBlockEmPKh>:
    37fc:	b570      	push	{r4, r5, r6, lr}
    37fe:	2312      	movs	r3, #18
    3800:	0004      	movs	r4, r0
    3802:	0016      	movs	r6, r2
    3804:	2900      	cmp	r1, #0
    3806:	d02b      	beq.n	3860 <_ZN7Sd2Card10writeBlockEmPKh+0x64>
    3808:	7b03      	ldrb	r3, [r0, #12]
    380a:	2b03      	cmp	r3, #3
    380c:	d000      	beq.n	3810 <_ZN7Sd2Card10writeBlockEmPKh+0x14>
    380e:	0249      	lsls	r1, r1, #9
    3810:	000a      	movs	r2, r1
    3812:	0020      	movs	r0, r4
    3814:	2118      	movs	r1, #24
    3816:	f7ff fe75 	bl	3504 <_ZN7Sd2Card11cardCommandEhm>
    381a:	2304      	movs	r3, #4
    381c:	1e05      	subs	r5, r0, #0
    381e:	d11f      	bne.n	3860 <_ZN7Sd2Card10writeBlockEmPKh+0x64>
    3820:	0032      	movs	r2, r6
    3822:	21fe      	movs	r1, #254	; 0xfe
    3824:	0020      	movs	r0, r4
    3826:	f7ff ffc4 	bl	37b2 <_ZN7Sd2Card9writeDataEhPKh>
    382a:	2800      	cmp	r0, #0
    382c:	d019      	beq.n	3862 <_ZN7Sd2Card10writeBlockEmPKh+0x66>
    382e:	2196      	movs	r1, #150	; 0x96
    3830:	0020      	movs	r0, r4
    3832:	0089      	lsls	r1, r1, #2
    3834:	f7ff fe54 	bl	34e0 <_ZN7Sd2Card11waitNotBusyEj>
    3838:	2315      	movs	r3, #21
    383a:	2800      	cmp	r0, #0
    383c:	d010      	beq.n	3860 <_ZN7Sd2Card10writeBlockEmPKh+0x64>
    383e:	002a      	movs	r2, r5
    3840:	210d      	movs	r1, #13
    3842:	0020      	movs	r0, r4
    3844:	f7ff fe5e 	bl	3504 <_ZN7Sd2Card11cardCommandEhm>
    3848:	2800      	cmp	r0, #0
    384a:	d108      	bne.n	385e <_ZN7Sd2Card10writeBlockEmPKh+0x62>
    384c:	f7ff fdc4 	bl	33d8 <_ZL6spiRecv>
    3850:	2800      	cmp	r0, #0
    3852:	d104      	bne.n	385e <_ZN7Sd2Card10writeBlockEmPKh+0x62>
    3854:	0020      	movs	r0, r4
    3856:	f7ff fdc7 	bl	33e8 <_ZN7Sd2Card14chipSelectHighEv>
    385a:	2001      	movs	r0, #1
    385c:	e005      	b.n	386a <_ZN7Sd2Card10writeBlockEmPKh+0x6e>
    385e:	2314      	movs	r3, #20
    3860:	7163      	strb	r3, [r4, #5]
    3862:	0020      	movs	r0, r4
    3864:	f7ff fdc0 	bl	33e8 <_ZN7Sd2Card14chipSelectHighEv>
    3868:	2000      	movs	r0, #0
    386a:	bd70      	pop	{r4, r5, r6, pc}

0000386c <_GLOBAL__sub_I__ZN7Sd2Card11cardCommandEhm>:
    386c:	4b03      	ldr	r3, [pc, #12]	; (387c <_GLOBAL__sub_I__ZN7Sd2Card11cardCommandEhm+0x10>)
    386e:	4a04      	ldr	r2, [pc, #16]	; (3880 <_GLOBAL__sub_I__ZN7Sd2Card11cardCommandEhm+0x14>)
    3870:	601a      	str	r2, [r3, #0]
    3872:	2200      	movs	r2, #0
    3874:	715a      	strb	r2, [r3, #5]
    3876:	711a      	strb	r2, [r3, #4]
    3878:	4770      	bx	lr
    387a:	46c0      	nop			; (mov r8, r8)
    387c:	200007ec 	.word	0x200007ec
    3880:	003d0900 	.word	0x003d0900

00003884 <_ZN6SdFile10addClusterEv>:
    3884:	0002      	movs	r2, r0
    3886:	b510      	push	{r4, lr}
    3888:	320c      	adds	r2, #12
    388a:	0004      	movs	r4, r0
    388c:	2101      	movs	r1, #1
    388e:	6a40      	ldr	r0, [r0, #36]	; 0x24
    3890:	f000 fce0 	bl	4254 <_ZN8SdVolume15allocContiguousEmPm>
    3894:	2800      	cmp	r0, #0
    3896:	d00a      	beq.n	38ae <_ZN6SdFile10addClusterEv+0x2a>
    3898:	6a23      	ldr	r3, [r4, #32]
    389a:	2001      	movs	r0, #1
    389c:	2b00      	cmp	r3, #0
    389e:	d106      	bne.n	38ae <_ZN6SdFile10addClusterEv+0x2a>
    38a0:	68e3      	ldr	r3, [r4, #12]
    38a2:	7a22      	ldrb	r2, [r4, #8]
    38a4:	6223      	str	r3, [r4, #32]
    38a6:	2380      	movs	r3, #128	; 0x80
    38a8:	425b      	negs	r3, r3
    38aa:	4313      	orrs	r3, r2
    38ac:	7223      	strb	r3, [r4, #8]
    38ae:	bd10      	pop	{r4, pc}

000038b0 <_ZN6SdFile13addDirClusterEv>:
    38b0:	b570      	push	{r4, r5, r6, lr}
    38b2:	0006      	movs	r6, r0
    38b4:	f7ff ffe6 	bl	3884 <_ZN6SdFile10addClusterEv>
    38b8:	2800      	cmp	r0, #0
    38ba:	d101      	bne.n	38c0 <_ZN6SdFile13addDirClusterEv+0x10>
    38bc:	2000      	movs	r0, #0
    38be:	bd70      	pop	{r4, r5, r6, pc}
    38c0:	6a73      	ldr	r3, [r6, #36]	; 0x24
    38c2:	68f2      	ldr	r2, [r6, #12]
    38c4:	791c      	ldrb	r4, [r3, #4]
    38c6:	1e95      	subs	r5, r2, #2
    38c8:	7c1a      	ldrb	r2, [r3, #16]
    38ca:	4095      	lsls	r5, r2
    38cc:	695a      	ldr	r2, [r3, #20]
    38ce:	18ad      	adds	r5, r5, r2
    38d0:	1964      	adds	r4, r4, r5
    38d2:	42a5      	cmp	r5, r4
    38d4:	d006      	beq.n	38e4 <_ZN6SdFile13addDirClusterEv+0x34>
    38d6:	3c01      	subs	r4, #1
    38d8:	0020      	movs	r0, r4
    38da:	f000 fc01 	bl	40e0 <_ZN8SdVolume14cacheZeroBlockEm>
    38de:	2800      	cmp	r0, #0
    38e0:	d1f7      	bne.n	38d2 <_ZN6SdFile13addDirClusterEv+0x22>
    38e2:	e7eb      	b.n	38bc <_ZN6SdFile13addDirClusterEv+0xc>
    38e4:	6a73      	ldr	r3, [r6, #36]	; 0x24
    38e6:	2001      	movs	r0, #1
    38e8:	7c1a      	ldrb	r2, [r3, #16]
    38ea:	2380      	movs	r3, #128	; 0x80
    38ec:	009b      	lsls	r3, r3, #2
    38ee:	4093      	lsls	r3, r2
    38f0:	69f2      	ldr	r2, [r6, #28]
    38f2:	18d3      	adds	r3, r2, r3
    38f4:	61f3      	str	r3, [r6, #28]
    38f6:	e7e2      	b.n	38be <_ZN6SdFile13addDirClusterEv+0xe>

000038f8 <_ZN6SdFile13cacheDirEntryEh>:
    38f8:	b510      	push	{r4, lr}
    38fa:	0004      	movs	r4, r0
    38fc:	6940      	ldr	r0, [r0, #20]
    38fe:	f000 fbcb 	bl	4098 <_ZN8SdVolume13cacheRawBlockEmh>
    3902:	2800      	cmp	r0, #0
    3904:	d003      	beq.n	390e <_ZN6SdFile13cacheDirEntryEh+0x16>
    3906:	7e20      	ldrb	r0, [r4, #24]
    3908:	4b01      	ldr	r3, [pc, #4]	; (3910 <_ZN6SdFile13cacheDirEntryEh+0x18>)
    390a:	0140      	lsls	r0, r0, #5
    390c:	18c0      	adds	r0, r0, r3
    390e:	bd10      	pop	{r4, pc}
    3910:	200007fc 	.word	0x200007fc

00003914 <_ZN6SdFile10make83NameEPKcPh>:
    3914:	b5f0      	push	{r4, r5, r6, r7, lr}
    3916:	2220      	movs	r2, #32
    3918:	0007      	movs	r7, r0
    391a:	000e      	movs	r6, r1
    391c:	000b      	movs	r3, r1
    391e:	b087      	sub	sp, #28
    3920:	310b      	adds	r1, #11
    3922:	428b      	cmp	r3, r1
    3924:	d10f      	bne.n	3946 <_ZN6SdFile10make83NameEPKcPh+0x32>
    3926:	2307      	movs	r3, #7
    3928:	2500      	movs	r5, #0
    392a:	9301      	str	r3, [sp, #4]
    392c:	783c      	ldrb	r4, [r7, #0]
    392e:	2c00      	cmp	r4, #0
    3930:	d02e      	beq.n	3990 <_ZN6SdFile10make83NameEPKcPh+0x7c>
    3932:	2c2e      	cmp	r4, #46	; 0x2e
    3934:	d10a      	bne.n	394c <_ZN6SdFile10make83NameEPKcPh+0x38>
    3936:	9b01      	ldr	r3, [sp, #4]
    3938:	2b0a      	cmp	r3, #10
    393a:	d014      	beq.n	3966 <_ZN6SdFile10make83NameEPKcPh+0x52>
    393c:	230a      	movs	r3, #10
    393e:	2508      	movs	r5, #8
    3940:	9301      	str	r3, [sp, #4]
    3942:	3701      	adds	r7, #1
    3944:	e7f2      	b.n	392c <_ZN6SdFile10make83NameEPKcPh+0x18>
    3946:	701a      	strb	r2, [r3, #0]
    3948:	3301      	adds	r3, #1
    394a:	e7ea      	b.n	3922 <_ZN6SdFile10make83NameEPKcPh+0xe>
    394c:	2210      	movs	r2, #16
    394e:	4914      	ldr	r1, [pc, #80]	; (39a0 <_ZN6SdFile10make83NameEPKcPh+0x8c>)
    3950:	a802      	add	r0, sp, #8
    3952:	f002 f96c 	bl	5c2e <memcpy>
    3956:	2300      	movs	r3, #0
    3958:	aa02      	add	r2, sp, #8
    395a:	5cd2      	ldrb	r2, [r2, r3]
    395c:	2a00      	cmp	r2, #0
    395e:	d004      	beq.n	396a <_ZN6SdFile10make83NameEPKcPh+0x56>
    3960:	3301      	adds	r3, #1
    3962:	4294      	cmp	r4, r2
    3964:	d1f8      	bne.n	3958 <_ZN6SdFile10make83NameEPKcPh+0x44>
    3966:	2000      	movs	r0, #0
    3968:	e017      	b.n	399a <_ZN6SdFile10make83NameEPKcPh+0x86>
    396a:	9b01      	ldr	r3, [sp, #4]
    396c:	429d      	cmp	r5, r3
    396e:	dcfa      	bgt.n	3966 <_ZN6SdFile10make83NameEPKcPh+0x52>
    3970:	0023      	movs	r3, r4
    3972:	3b21      	subs	r3, #33	; 0x21
    3974:	2b5d      	cmp	r3, #93	; 0x5d
    3976:	d8f6      	bhi.n	3966 <_ZN6SdFile10make83NameEPKcPh+0x52>
    3978:	0022      	movs	r2, r4
    397a:	1c6b      	adds	r3, r5, #1
    397c:	3a61      	subs	r2, #97	; 0x61
    397e:	b2db      	uxtb	r3, r3
    3980:	1975      	adds	r5, r6, r5
    3982:	2a19      	cmp	r2, #25
    3984:	d801      	bhi.n	398a <_ZN6SdFile10make83NameEPKcPh+0x76>
    3986:	3c20      	subs	r4, #32
    3988:	b2e4      	uxtb	r4, r4
    398a:	702c      	strb	r4, [r5, #0]
    398c:	001d      	movs	r5, r3
    398e:	e7d8      	b.n	3942 <_ZN6SdFile10make83NameEPKcPh+0x2e>
    3990:	7830      	ldrb	r0, [r6, #0]
    3992:	3820      	subs	r0, #32
    3994:	1e43      	subs	r3, r0, #1
    3996:	4198      	sbcs	r0, r3
    3998:	b2c0      	uxtb	r0, r0
    399a:	b007      	add	sp, #28
    399c:	bdf0      	pop	{r4, r5, r6, r7, pc}
    399e:	46c0      	nop			; (mov r8, r8)
    39a0:	00006132 	.word	0x00006132

000039a4 <_ZN6SdFile8openRootEP8SdVolume>:
    39a4:	b570      	push	{r4, r5, r6, lr}
    39a6:	7a42      	ldrb	r2, [r0, #9]
    39a8:	0004      	movs	r4, r0
    39aa:	000d      	movs	r5, r1
    39ac:	2a00      	cmp	r2, #0
    39ae:	d001      	beq.n	39b4 <_ZN6SdFile8openRootEP8SdVolume+0x10>
    39b0:	2000      	movs	r0, #0
    39b2:	bd70      	pop	{r4, r5, r6, pc}
    39b4:	1c4b      	adds	r3, r1, #1
    39b6:	7fdb      	ldrb	r3, [r3, #31]
    39b8:	2b10      	cmp	r3, #16
    39ba:	d10e      	bne.n	39da <_ZN6SdFile8openRootEP8SdVolume+0x36>
    39bc:	3b0e      	subs	r3, #14
    39be:	7243      	strb	r3, [r0, #9]
    39c0:	8c4b      	ldrh	r3, [r1, #34]	; 0x22
    39c2:	6202      	str	r2, [r0, #32]
    39c4:	015b      	lsls	r3, r3, #5
    39c6:	61c3      	str	r3, [r0, #28]
    39c8:	2300      	movs	r3, #0
    39ca:	2001      	movs	r0, #1
    39cc:	6265      	str	r5, [r4, #36]	; 0x24
    39ce:	7220      	strb	r0, [r4, #8]
    39d0:	60e3      	str	r3, [r4, #12]
    39d2:	6123      	str	r3, [r4, #16]
    39d4:	6163      	str	r3, [r4, #20]
    39d6:	7623      	strb	r3, [r4, #24]
    39d8:	e7eb      	b.n	39b2 <_ZN6SdFile8openRootEP8SdVolume+0xe>
    39da:	2b20      	cmp	r3, #32
    39dc:	d1e8      	bne.n	39b0 <_ZN6SdFile8openRootEP8SdVolume+0xc>
    39de:	0002      	movs	r2, r0
    39e0:	3b1d      	subs	r3, #29
    39e2:	7243      	strb	r3, [r0, #9]
    39e4:	6a49      	ldr	r1, [r1, #36]	; 0x24
    39e6:	321c      	adds	r2, #28
    39e8:	6201      	str	r1, [r0, #32]
    39ea:	0028      	movs	r0, r5
    39ec:	f000 fbca 	bl	4184 <_ZNK8SdVolume9chainSizeEmPm>
    39f0:	2800      	cmp	r0, #0
    39f2:	d1e9      	bne.n	39c8 <_ZN6SdFile8openRootEP8SdVolume+0x24>
    39f4:	e7dc      	b.n	39b0 <_ZN6SdFile8openRootEP8SdVolume+0xc>
	...

000039f8 <_ZN6SdFile4readEPvt>:
    39f8:	b5f0      	push	{r4, r5, r6, r7, lr}
    39fa:	7a43      	ldrb	r3, [r0, #9]
    39fc:	b085      	sub	sp, #20
    39fe:	0004      	movs	r4, r0
    3a00:	9203      	str	r2, [sp, #12]
    3a02:	2b00      	cmp	r3, #0
    3a04:	d103      	bne.n	3a0e <_ZN6SdFile4readEPvt+0x16>
    3a06:	2001      	movs	r0, #1
    3a08:	4240      	negs	r0, r0
    3a0a:	b005      	add	sp, #20
    3a0c:	bdf0      	pop	{r4, r5, r6, r7, pc}
    3a0e:	7a03      	ldrb	r3, [r0, #8]
    3a10:	07db      	lsls	r3, r3, #31
    3a12:	d5f8      	bpl.n	3a06 <_ZN6SdFile4readEPvt+0xe>
    3a14:	6902      	ldr	r2, [r0, #16]
    3a16:	69c3      	ldr	r3, [r0, #28]
    3a18:	1a9b      	subs	r3, r3, r2
    3a1a:	9a03      	ldr	r2, [sp, #12]
    3a1c:	429a      	cmp	r2, r3
    3a1e:	d901      	bls.n	3a24 <_ZN6SdFile4readEPvt+0x2c>
    3a20:	b29b      	uxth	r3, r3
    3a22:	9303      	str	r3, [sp, #12]
    3a24:	000e      	movs	r6, r1
    3a26:	9b03      	ldr	r3, [sp, #12]
    3a28:	9302      	str	r3, [sp, #8]
    3a2a:	9b02      	ldr	r3, [sp, #8]
    3a2c:	2b00      	cmp	r3, #0
    3a2e:	d04c      	beq.n	3aca <_ZN6SdFile4readEPvt+0xd2>
    3a30:	6923      	ldr	r3, [r4, #16]
    3a32:	7a62      	ldrb	r2, [r4, #9]
    3a34:	05df      	lsls	r7, r3, #23
    3a36:	0dff      	lsrs	r7, r7, #23
    3a38:	6a60      	ldr	r0, [r4, #36]	; 0x24
    3a3a:	0a5d      	lsrs	r5, r3, #9
    3a3c:	2a02      	cmp	r2, #2
    3a3e:	d125      	bne.n	3a8c <_ZN6SdFile4readEPvt+0x94>
    3a40:	6a40      	ldr	r0, [r0, #36]	; 0x24
    3a42:	2380      	movs	r3, #128	; 0x80
    3a44:	1940      	adds	r0, r0, r5
    3a46:	9d02      	ldr	r5, [sp, #8]
    3a48:	009b      	lsls	r3, r3, #2
    3a4a:	1bdb      	subs	r3, r3, r7
    3a4c:	429d      	cmp	r5, r3
    3a4e:	dd00      	ble.n	3a52 <_ZN6SdFile4readEPvt+0x5a>
    3a50:	b29d      	uxth	r5, r3
    3a52:	2240      	movs	r2, #64	; 0x40
    3a54:	7a23      	ldrb	r3, [r4, #8]
    3a56:	4213      	tst	r3, r2
    3a58:	d103      	bne.n	3a62 <_ZN6SdFile4readEPvt+0x6a>
    3a5a:	2380      	movs	r3, #128	; 0x80
    3a5c:	009b      	lsls	r3, r3, #2
    3a5e:	429d      	cmp	r5, r3
    3a60:	d103      	bne.n	3a6a <_ZN6SdFile4readEPvt+0x72>
    3a62:	4b26      	ldr	r3, [pc, #152]	; (3afc <_ZN6SdFile4readEPvt+0x104>)
    3a64:	681b      	ldr	r3, [r3, #0]
    3a66:	4298      	cmp	r0, r3
    3a68:	d133      	bne.n	3ad2 <_ZN6SdFile4readEPvt+0xda>
    3a6a:	2100      	movs	r1, #0
    3a6c:	f000 fb14 	bl	4098 <_ZN8SdVolume13cacheRawBlockEmh>
    3a70:	2800      	cmp	r0, #0
    3a72:	d0c8      	beq.n	3a06 <_ZN6SdFile4readEPvt+0xe>
    3a74:	4b22      	ldr	r3, [pc, #136]	; (3b00 <_ZN6SdFile4readEPvt+0x108>)
    3a76:	0031      	movs	r1, r6
    3a78:	18ff      	adds	r7, r7, r3
    3a7a:	003a      	movs	r2, r7
    3a7c:	197b      	adds	r3, r7, r5
    3a7e:	4293      	cmp	r3, r2
    3a80:	d020      	beq.n	3ac4 <_ZN6SdFile4readEPvt+0xcc>
    3a82:	7810      	ldrb	r0, [r2, #0]
    3a84:	3201      	adds	r2, #1
    3a86:	7008      	strb	r0, [r1, #0]
    3a88:	3101      	adds	r1, #1
    3a8a:	e7f8      	b.n	3a7e <_ZN6SdFile4readEPvt+0x86>
    3a8c:	7902      	ldrb	r2, [r0, #4]
    3a8e:	3a01      	subs	r2, #1
    3a90:	4015      	ands	r5, r2
    3a92:	b2ed      	uxtb	r5, r5
    3a94:	2f00      	cmp	r7, #0
    3a96:	d105      	bne.n	3aa4 <_ZN6SdFile4readEPvt+0xac>
    3a98:	2d00      	cmp	r5, #0
    3a9a:	d103      	bne.n	3aa4 <_ZN6SdFile4readEPvt+0xac>
    3a9c:	2b00      	cmp	r3, #0
    3a9e:	d109      	bne.n	3ab4 <_ZN6SdFile4readEPvt+0xbc>
    3aa0:	6a23      	ldr	r3, [r4, #32]
    3aa2:	60e3      	str	r3, [r4, #12]
    3aa4:	6a63      	ldr	r3, [r4, #36]	; 0x24
    3aa6:	68e2      	ldr	r2, [r4, #12]
    3aa8:	1e90      	subs	r0, r2, #2
    3aaa:	7c1a      	ldrb	r2, [r3, #16]
    3aac:	695b      	ldr	r3, [r3, #20]
    3aae:	4090      	lsls	r0, r2
    3ab0:	18c0      	adds	r0, r0, r3
    3ab2:	e7c6      	b.n	3a42 <_ZN6SdFile4readEPvt+0x4a>
    3ab4:	0022      	movs	r2, r4
    3ab6:	68e1      	ldr	r1, [r4, #12]
    3ab8:	320c      	adds	r2, #12
    3aba:	f000 fb33 	bl	4124 <_ZNK8SdVolume6fatGetEmPm>
    3abe:	2800      	cmp	r0, #0
    3ac0:	d1f0      	bne.n	3aa4 <_ZN6SdFile4readEPvt+0xac>
    3ac2:	e7a0      	b.n	3a06 <_ZN6SdFile4readEPvt+0xe>
    3ac4:	1bdf      	subs	r7, r3, r7
    3ac6:	19f6      	adds	r6, r6, r7
    3ac8:	e00f      	b.n	3aea <_ZN6SdFile4readEPvt+0xf2>
    3aca:	466b      	mov	r3, sp
    3acc:	200c      	movs	r0, #12
    3ace:	5e18      	ldrsh	r0, [r3, r0]
    3ad0:	e79b      	b.n	3a0a <_ZN6SdFile4readEPvt+0x12>
    3ad2:	0001      	movs	r1, r0
    3ad4:	480b      	ldr	r0, [pc, #44]	; (3b04 <_ZN6SdFile4readEPvt+0x10c>)
    3ad6:	9600      	str	r6, [sp, #0]
    3ad8:	002b      	movs	r3, r5
    3ada:	003a      	movs	r2, r7
    3adc:	6800      	ldr	r0, [r0, #0]
    3ade:	f7ff fe55 	bl	378c <_ZN7Sd2Card8readDataEmttPh>
    3ae2:	2800      	cmp	r0, #0
    3ae4:	d100      	bne.n	3ae8 <_ZN6SdFile4readEPvt+0xf0>
    3ae6:	e78e      	b.n	3a06 <_ZN6SdFile4readEPvt+0xe>
    3ae8:	1976      	adds	r6, r6, r5
    3aea:	6923      	ldr	r3, [r4, #16]
    3aec:	195b      	adds	r3, r3, r5
    3aee:	6123      	str	r3, [r4, #16]
    3af0:	9b02      	ldr	r3, [sp, #8]
    3af2:	1b5d      	subs	r5, r3, r5
    3af4:	b2ab      	uxth	r3, r5
    3af6:	9302      	str	r3, [sp, #8]
    3af8:	e797      	b.n	3a2a <_ZN6SdFile4readEPvt+0x32>
    3afa:	46c0      	nop			; (mov r8, r8)
    3afc:	20000048 	.word	0x20000048
    3b00:	200007fc 	.word	0x200007fc
    3b04:	20000a00 	.word	0x20000a00

00003b08 <_ZN6SdFile12readDirCacheEv>:
    3b08:	b537      	push	{r0, r1, r2, r4, r5, lr}
    3b0a:	7a43      	ldrb	r3, [r0, #9]
    3b0c:	0005      	movs	r5, r0
    3b0e:	2000      	movs	r0, #0
    3b10:	2b01      	cmp	r3, #1
    3b12:	dd0b      	ble.n	3b2c <_ZN6SdFile12readDirCacheEv+0x24>
    3b14:	692b      	ldr	r3, [r5, #16]
    3b16:	2201      	movs	r2, #1
    3b18:	05dc      	lsls	r4, r3, #23
    3b1a:	466b      	mov	r3, sp
    3b1c:	0028      	movs	r0, r5
    3b1e:	1dd9      	adds	r1, r3, #7
    3b20:	0f24      	lsrs	r4, r4, #28
    3b22:	f7ff ff69 	bl	39f8 <_ZN6SdFile4readEPvt>
    3b26:	2801      	cmp	r0, #1
    3b28:	d001      	beq.n	3b2e <_ZN6SdFile12readDirCacheEv+0x26>
    3b2a:	2000      	movs	r0, #0
    3b2c:	bd3e      	pop	{r1, r2, r3, r4, r5, pc}
    3b2e:	692b      	ldr	r3, [r5, #16]
    3b30:	0160      	lsls	r0, r4, #5
    3b32:	331f      	adds	r3, #31
    3b34:	612b      	str	r3, [r5, #16]
    3b36:	4b01      	ldr	r3, [pc, #4]	; (3b3c <_ZN6SdFile12readDirCacheEv+0x34>)
    3b38:	18c0      	adds	r0, r0, r3
    3b3a:	e7f7      	b.n	3b2c <_ZN6SdFile12readDirCacheEv+0x24>
    3b3c:	200007fc 	.word	0x200007fc

00003b40 <_ZN6SdFile7seekSetEm>:
    3b40:	b570      	push	{r4, r5, r6, lr}
    3b42:	7a43      	ldrb	r3, [r0, #9]
    3b44:	0004      	movs	r4, r0
    3b46:	000e      	movs	r6, r1
    3b48:	2b00      	cmp	r3, #0
    3b4a:	d101      	bne.n	3b50 <_ZN6SdFile7seekSetEm+0x10>
    3b4c:	2000      	movs	r0, #0
    3b4e:	bd70      	pop	{r4, r5, r6, pc}
    3b50:	69c2      	ldr	r2, [r0, #28]
    3b52:	428a      	cmp	r2, r1
    3b54:	d3fa      	bcc.n	3b4c <_ZN6SdFile7seekSetEm+0xc>
    3b56:	2b02      	cmp	r3, #2
    3b58:	d002      	beq.n	3b60 <_ZN6SdFile7seekSetEm+0x20>
    3b5a:	2e00      	cmp	r6, #0
    3b5c:	d103      	bne.n	3b66 <_ZN6SdFile7seekSetEm+0x26>
    3b5e:	60e6      	str	r6, [r4, #12]
    3b60:	6126      	str	r6, [r4, #16]
    3b62:	2001      	movs	r0, #1
    3b64:	e7f3      	b.n	3b4e <_ZN6SdFile7seekSetEm+0xe>
    3b66:	6a63      	ldr	r3, [r4, #36]	; 0x24
    3b68:	6921      	ldr	r1, [r4, #16]
    3b6a:	7c1a      	ldrb	r2, [r3, #16]
    3b6c:	1e75      	subs	r5, r6, #1
    3b6e:	3209      	adds	r2, #9
    3b70:	1e4b      	subs	r3, r1, #1
    3b72:	40d3      	lsrs	r3, r2
    3b74:	40d5      	lsrs	r5, r2
    3b76:	42ab      	cmp	r3, r5
    3b78:	d801      	bhi.n	3b7e <_ZN6SdFile7seekSetEm+0x3e>
    3b7a:	2900      	cmp	r1, #0
    3b7c:	d10d      	bne.n	3b9a <_ZN6SdFile7seekSetEm+0x5a>
    3b7e:	6a23      	ldr	r3, [r4, #32]
    3b80:	60e3      	str	r3, [r4, #12]
    3b82:	2d00      	cmp	r5, #0
    3b84:	d0ec      	beq.n	3b60 <_ZN6SdFile7seekSetEm+0x20>
    3b86:	0022      	movs	r2, r4
    3b88:	68e1      	ldr	r1, [r4, #12]
    3b8a:	320c      	adds	r2, #12
    3b8c:	6a60      	ldr	r0, [r4, #36]	; 0x24
    3b8e:	f000 fac9 	bl	4124 <_ZNK8SdVolume6fatGetEmPm>
    3b92:	3d01      	subs	r5, #1
    3b94:	2800      	cmp	r0, #0
    3b96:	d1f4      	bne.n	3b82 <_ZN6SdFile7seekSetEm+0x42>
    3b98:	e7d8      	b.n	3b4c <_ZN6SdFile7seekSetEm+0xc>
    3b9a:	1aed      	subs	r5, r5, r3
    3b9c:	e7f1      	b.n	3b82 <_ZN6SdFile7seekSetEm+0x42>
	...

00003ba0 <_ZN6SdFile4syncEv>:
    3ba0:	b570      	push	{r4, r5, r6, lr}
    3ba2:	7a43      	ldrb	r3, [r0, #9]
    3ba4:	0005      	movs	r5, r0
    3ba6:	2b00      	cmp	r3, #0
    3ba8:	d101      	bne.n	3bae <_ZN6SdFile4syncEv+0xe>
    3baa:	2000      	movs	r0, #0
    3bac:	bd70      	pop	{r4, r5, r6, pc}
    3bae:	7a03      	ldrb	r3, [r0, #8]
    3bb0:	2b7f      	cmp	r3, #127	; 0x7f
    3bb2:	d92c      	bls.n	3c0e <_ZN6SdFile4syncEv+0x6e>
    3bb4:	2101      	movs	r1, #1
    3bb6:	f7ff fe9f 	bl	38f8 <_ZN6SdFile13cacheDirEntryEh>
    3bba:	1e04      	subs	r4, r0, #0
    3bbc:	d0f5      	beq.n	3baa <_ZN6SdFile4syncEv+0xa>
    3bbe:	7a6b      	ldrb	r3, [r5, #9]
    3bc0:	2b01      	cmp	r3, #1
    3bc2:	dc07      	bgt.n	3bd4 <_ZN6SdFile4syncEv+0x34>
    3bc4:	7f2b      	ldrb	r3, [r5, #28]
    3bc6:	7703      	strb	r3, [r0, #28]
    3bc8:	7f6b      	ldrb	r3, [r5, #29]
    3bca:	7743      	strb	r3, [r0, #29]
    3bcc:	7fab      	ldrb	r3, [r5, #30]
    3bce:	7783      	strb	r3, [r0, #30]
    3bd0:	7feb      	ldrb	r3, [r5, #31]
    3bd2:	77c3      	strb	r3, [r0, #31]
    3bd4:	6a2b      	ldr	r3, [r5, #32]
    3bd6:	b29a      	uxth	r2, r3
    3bd8:	0c1b      	lsrs	r3, r3, #16
    3bda:	7523      	strb	r3, [r4, #20]
    3bdc:	0a1b      	lsrs	r3, r3, #8
    3bde:	7563      	strb	r3, [r4, #21]
    3be0:	4b0c      	ldr	r3, [pc, #48]	; (3c14 <_ZN6SdFile4syncEv+0x74>)
    3be2:	76a2      	strb	r2, [r4, #26]
    3be4:	681b      	ldr	r3, [r3, #0]
    3be6:	0a12      	lsrs	r2, r2, #8
    3be8:	76e2      	strb	r2, [r4, #27]
    3bea:	2b00      	cmp	r3, #0
    3bec:	d00b      	beq.n	3c06 <_ZN6SdFile4syncEv+0x66>
    3bee:	0021      	movs	r1, r4
    3bf0:	0020      	movs	r0, r4
    3bf2:	3116      	adds	r1, #22
    3bf4:	3018      	adds	r0, #24
    3bf6:	4798      	blx	r3
    3bf8:	7e63      	ldrb	r3, [r4, #25]
    3bfa:	7e22      	ldrb	r2, [r4, #24]
    3bfc:	021b      	lsls	r3, r3, #8
    3bfe:	4313      	orrs	r3, r2
    3c00:	74a3      	strb	r3, [r4, #18]
    3c02:	0a1b      	lsrs	r3, r3, #8
    3c04:	74e3      	strb	r3, [r4, #19]
    3c06:	227f      	movs	r2, #127	; 0x7f
    3c08:	7a2b      	ldrb	r3, [r5, #8]
    3c0a:	4013      	ands	r3, r2
    3c0c:	722b      	strb	r3, [r5, #8]
    3c0e:	f000 fa17 	bl	4040 <_ZN8SdVolume10cacheFlushEv>
    3c12:	e7cb      	b.n	3bac <_ZN6SdFile4syncEv+0xc>
    3c14:	200007f4 	.word	0x200007f4

00003c18 <_ZN6SdFile5closeEv>:
    3c18:	b510      	push	{r4, lr}
    3c1a:	0004      	movs	r4, r0
    3c1c:	f7ff ffc0 	bl	3ba0 <_ZN6SdFile4syncEv>
    3c20:	2800      	cmp	r0, #0
    3c22:	d002      	beq.n	3c2a <_ZN6SdFile5closeEv+0x12>
    3c24:	2300      	movs	r3, #0
    3c26:	2001      	movs	r0, #1
    3c28:	7263      	strb	r3, [r4, #9]
    3c2a:	bd10      	pop	{r4, pc}

00003c2c <_ZN6SdFile8truncateEm>:
    3c2c:	b573      	push	{r0, r1, r4, r5, r6, lr}
    3c2e:	0004      	movs	r4, r0
    3c30:	7a40      	ldrb	r0, [r0, #9]
    3c32:	000d      	movs	r5, r1
    3c34:	2801      	cmp	r0, #1
    3c36:	d001      	beq.n	3c3c <_ZN6SdFile8truncateEm+0x10>
    3c38:	2000      	movs	r0, #0
    3c3a:	bd76      	pop	{r1, r2, r4, r5, r6, pc}
    3c3c:	7a23      	ldrb	r3, [r4, #8]
    3c3e:	079b      	lsls	r3, r3, #30
    3c40:	d5fa      	bpl.n	3c38 <_ZN6SdFile8truncateEm+0xc>
    3c42:	69e3      	ldr	r3, [r4, #28]
    3c44:	428b      	cmp	r3, r1
    3c46:	d3f7      	bcc.n	3c38 <_ZN6SdFile8truncateEm+0xc>
    3c48:	2b00      	cmp	r3, #0
    3c4a:	d0f6      	beq.n	3c3a <_ZN6SdFile8truncateEm+0xe>
    3c4c:	0029      	movs	r1, r5
    3c4e:	0020      	movs	r0, r4
    3c50:	6926      	ldr	r6, [r4, #16]
    3c52:	f7ff ff75 	bl	3b40 <_ZN6SdFile7seekSetEm>
    3c56:	2800      	cmp	r0, #0
    3c58:	d0ee      	beq.n	3c38 <_ZN6SdFile8truncateEm+0xc>
    3c5a:	2d00      	cmp	r5, #0
    3c5c:	d119      	bne.n	3c92 <_ZN6SdFile8truncateEm+0x66>
    3c5e:	6a21      	ldr	r1, [r4, #32]
    3c60:	6a60      	ldr	r0, [r4, #36]	; 0x24
    3c62:	f000 fb59 	bl	4318 <_ZN8SdVolume9freeChainEm>
    3c66:	2800      	cmp	r0, #0
    3c68:	d0e6      	beq.n	3c38 <_ZN6SdFile8truncateEm+0xc>
    3c6a:	6225      	str	r5, [r4, #32]
    3c6c:	2380      	movs	r3, #128	; 0x80
    3c6e:	7a22      	ldrb	r2, [r4, #8]
    3c70:	425b      	negs	r3, r3
    3c72:	4313      	orrs	r3, r2
    3c74:	61e5      	str	r5, [r4, #28]
    3c76:	7223      	strb	r3, [r4, #8]
    3c78:	0020      	movs	r0, r4
    3c7a:	f7ff ff91 	bl	3ba0 <_ZN6SdFile4syncEv>
    3c7e:	2800      	cmp	r0, #0
    3c80:	d0da      	beq.n	3c38 <_ZN6SdFile8truncateEm+0xc>
    3c82:	0029      	movs	r1, r5
    3c84:	42b5      	cmp	r5, r6
    3c86:	d900      	bls.n	3c8a <_ZN6SdFile8truncateEm+0x5e>
    3c88:	0031      	movs	r1, r6
    3c8a:	0020      	movs	r0, r4
    3c8c:	f7ff ff58 	bl	3b40 <_ZN6SdFile7seekSetEm>
    3c90:	e7d3      	b.n	3c3a <_ZN6SdFile8truncateEm+0xe>
    3c92:	aa01      	add	r2, sp, #4
    3c94:	68e1      	ldr	r1, [r4, #12]
    3c96:	6a60      	ldr	r0, [r4, #36]	; 0x24
    3c98:	f000 fa44 	bl	4124 <_ZNK8SdVolume6fatGetEmPm>
    3c9c:	2800      	cmp	r0, #0
    3c9e:	d0cb      	beq.n	3c38 <_ZN6SdFile8truncateEm+0xc>
    3ca0:	6a60      	ldr	r0, [r4, #36]	; 0x24
    3ca2:	9901      	ldr	r1, [sp, #4]
    3ca4:	1c43      	adds	r3, r0, #1
    3ca6:	7fdb      	ldrb	r3, [r3, #31]
    3ca8:	2b10      	cmp	r3, #16
    3caa:	d00e      	beq.n	3cca <_ZN6SdFile8truncateEm+0x9e>
    3cac:	4b08      	ldr	r3, [pc, #32]	; (3cd0 <_ZN6SdFile8truncateEm+0xa4>)
    3cae:	4299      	cmp	r1, r3
    3cb0:	d2dc      	bcs.n	3c6c <_ZN6SdFile8truncateEm+0x40>
    3cb2:	f000 fb31 	bl	4318 <_ZN8SdVolume9freeChainEm>
    3cb6:	2800      	cmp	r0, #0
    3cb8:	d0be      	beq.n	3c38 <_ZN6SdFile8truncateEm+0xc>
    3cba:	4a06      	ldr	r2, [pc, #24]	; (3cd4 <_ZN6SdFile8truncateEm+0xa8>)
    3cbc:	68e1      	ldr	r1, [r4, #12]
    3cbe:	6a60      	ldr	r0, [r4, #36]	; 0x24
    3cc0:	f000 fa84 	bl	41cc <_ZN8SdVolume6fatPutEmm>
    3cc4:	2800      	cmp	r0, #0
    3cc6:	d1d1      	bne.n	3c6c <_ZN6SdFile8truncateEm+0x40>
    3cc8:	e7b6      	b.n	3c38 <_ZN6SdFile8truncateEm+0xc>
    3cca:	4b03      	ldr	r3, [pc, #12]	; (3cd8 <_ZN6SdFile8truncateEm+0xac>)
    3ccc:	e7ef      	b.n	3cae <_ZN6SdFile8truncateEm+0x82>
    3cce:	46c0      	nop			; (mov r8, r8)
    3cd0:	0ffffff8 	.word	0x0ffffff8
    3cd4:	0fffffff 	.word	0x0fffffff
    3cd8:	0000fff8 	.word	0x0000fff8

00003cdc <_ZN6SdFile15openCachedEntryEhh>:
    3cdc:	4b1b      	ldr	r3, [pc, #108]	; (3d4c <_ZN6SdFile15openCachedEntryEhh+0x70>)
    3cde:	b570      	push	{r4, r5, r6, lr}
    3ce0:	0015      	movs	r5, r2
    3ce2:	014a      	lsls	r2, r1, #5
    3ce4:	18d3      	adds	r3, r2, r3
    3ce6:	2211      	movs	r2, #17
    3ce8:	0004      	movs	r4, r0
    3cea:	7ad8      	ldrb	r0, [r3, #11]
    3cec:	4210      	tst	r0, r2
    3cee:	d004      	beq.n	3cfa <_ZN6SdFile15openCachedEntryEhh+0x1e>
    3cf0:	3231      	adds	r2, #49	; 0x31
    3cf2:	4215      	tst	r5, r2
    3cf4:	d001      	beq.n	3cfa <_ZN6SdFile15openCachedEntryEhh+0x1e>
    3cf6:	2000      	movs	r0, #0
    3cf8:	bd70      	pop	{r4, r5, r6, pc}
    3cfa:	2018      	movs	r0, #24
    3cfc:	4a14      	ldr	r2, [pc, #80]	; (3d50 <_ZN6SdFile15openCachedEntryEhh+0x74>)
    3cfe:	7621      	strb	r1, [r4, #24]
    3d00:	6812      	ldr	r2, [r2, #0]
    3d02:	6162      	str	r2, [r4, #20]
    3d04:	8a99      	ldrh	r1, [r3, #20]
    3d06:	8b5a      	ldrh	r2, [r3, #26]
    3d08:	0409      	lsls	r1, r1, #16
    3d0a:	4311      	orrs	r1, r2
    3d0c:	6221      	str	r1, [r4, #32]
    3d0e:	7ada      	ldrb	r2, [r3, #11]
    3d10:	4002      	ands	r2, r0
    3d12:	d110      	bne.n	3d36 <_ZN6SdFile15openCachedEntryEhh+0x5a>
    3d14:	69db      	ldr	r3, [r3, #28]
    3d16:	61e3      	str	r3, [r4, #28]
    3d18:	2301      	movs	r3, #1
    3d1a:	7263      	strb	r3, [r4, #9]
    3d1c:	230f      	movs	r3, #15
    3d1e:	2100      	movs	r1, #0
    3d20:	402b      	ands	r3, r5
    3d22:	7223      	strb	r3, [r4, #8]
    3d24:	60e1      	str	r1, [r4, #12]
    3d26:	6121      	str	r1, [r4, #16]
    3d28:	2001      	movs	r0, #1
    3d2a:	066b      	lsls	r3, r5, #25
    3d2c:	d5e4      	bpl.n	3cf8 <_ZN6SdFile15openCachedEntryEhh+0x1c>
    3d2e:	0020      	movs	r0, r4
    3d30:	f7ff ff7c 	bl	3c2c <_ZN6SdFile8truncateEm>
    3d34:	e7e0      	b.n	3cf8 <_ZN6SdFile15openCachedEntryEhh+0x1c>
    3d36:	2a10      	cmp	r2, #16
    3d38:	d1dd      	bne.n	3cf6 <_ZN6SdFile15openCachedEntryEhh+0x1a>
    3d3a:	0022      	movs	r2, r4
    3d3c:	6a60      	ldr	r0, [r4, #36]	; 0x24
    3d3e:	321c      	adds	r2, #28
    3d40:	f000 fa20 	bl	4184 <_ZNK8SdVolume9chainSizeEmPm>
    3d44:	2800      	cmp	r0, #0
    3d46:	d0d6      	beq.n	3cf6 <_ZN6SdFile15openCachedEntryEhh+0x1a>
    3d48:	2304      	movs	r3, #4
    3d4a:	e7e6      	b.n	3d1a <_ZN6SdFile15openCachedEntryEhh+0x3e>
    3d4c:	200007fc 	.word	0x200007fc
    3d50:	20000048 	.word	0x20000048

00003d54 <_ZN6SdFile4openEPS_PKch>:
    3d54:	b5f0      	push	{r4, r5, r6, r7, lr}
    3d56:	0005      	movs	r5, r0
    3d58:	7a44      	ldrb	r4, [r0, #9]
    3d5a:	2000      	movs	r0, #0
    3d5c:	b087      	sub	sp, #28
    3d5e:	000e      	movs	r6, r1
    3d60:	001f      	movs	r7, r3
    3d62:	4284      	cmp	r4, r0
    3d64:	d106      	bne.n	3d74 <_ZN6SdFile4openEPS_PKch+0x20>
    3d66:	a903      	add	r1, sp, #12
    3d68:	0010      	movs	r0, r2
    3d6a:	f7ff fdd3 	bl	3914 <_ZN6SdFile10make83NameEPKcPh>
    3d6e:	2800      	cmp	r0, #0
    3d70:	d102      	bne.n	3d78 <_ZN6SdFile4openEPS_PKch+0x24>
    3d72:	2000      	movs	r0, #0
    3d74:	b007      	add	sp, #28
    3d76:	bdf0      	pop	{r4, r5, r6, r7, pc}
    3d78:	6a73      	ldr	r3, [r6, #36]	; 0x24
    3d7a:	626b      	str	r3, [r5, #36]	; 0x24
    3d7c:	60f4      	str	r4, [r6, #12]
    3d7e:	6134      	str	r4, [r6, #16]
    3d80:	6933      	ldr	r3, [r6, #16]
    3d82:	69f2      	ldr	r2, [r6, #28]
    3d84:	4293      	cmp	r3, r2
    3d86:	d21c      	bcs.n	3dc2 <_ZN6SdFile4openEPS_PKch+0x6e>
    3d88:	220f      	movs	r2, #15
    3d8a:	095b      	lsrs	r3, r3, #5
    3d8c:	401a      	ands	r2, r3
    3d8e:	0030      	movs	r0, r6
    3d90:	9201      	str	r2, [sp, #4]
    3d92:	f7ff feb9 	bl	3b08 <_ZN6SdFile12readDirCacheEv>
    3d96:	1e01      	subs	r1, r0, #0
    3d98:	d0eb      	beq.n	3d72 <_ZN6SdFile4openEPS_PKch+0x1e>
    3d9a:	7803      	ldrb	r3, [r0, #0]
    3d9c:	2b00      	cmp	r3, #0
    3d9e:	d005      	beq.n	3dac <_ZN6SdFile4openEPS_PKch+0x58>
    3da0:	2be5      	cmp	r3, #229	; 0xe5
    3da2:	d146      	bne.n	3e32 <_ZN6SdFile4openEPS_PKch+0xde>
    3da4:	2c00      	cmp	r4, #0
    3da6:	d003      	beq.n	3db0 <_ZN6SdFile4openEPS_PKch+0x5c>
    3da8:	2401      	movs	r4, #1
    3daa:	e7e9      	b.n	3d80 <_ZN6SdFile4openEPS_PKch+0x2c>
    3dac:	2c00      	cmp	r4, #0
    3dae:	d108      	bne.n	3dc2 <_ZN6SdFile4openEPS_PKch+0x6e>
    3db0:	466a      	mov	r2, sp
    3db2:	7912      	ldrb	r2, [r2, #4]
    3db4:	762a      	strb	r2, [r5, #24]
    3db6:	4a32      	ldr	r2, [pc, #200]	; (3e80 <_ZN6SdFile4openEPS_PKch+0x12c>)
    3db8:	6812      	ldr	r2, [r2, #0]
    3dba:	616a      	str	r2, [r5, #20]
    3dbc:	2b00      	cmp	r3, #0
    3dbe:	d1f3      	bne.n	3da8 <_ZN6SdFile4openEPS_PKch+0x54>
    3dc0:	2401      	movs	r4, #1
    3dc2:	2312      	movs	r3, #18
    3dc4:	403b      	ands	r3, r7
    3dc6:	2b12      	cmp	r3, #18
    3dc8:	d1d3      	bne.n	3d72 <_ZN6SdFile4openEPS_PKch+0x1e>
    3dca:	2c00      	cmp	r4, #0
    3dcc:	d042      	beq.n	3e54 <_ZN6SdFile4openEPS_PKch+0x100>
    3dce:	2101      	movs	r1, #1
    3dd0:	0028      	movs	r0, r5
    3dd2:	f7ff fd91 	bl	38f8 <_ZN6SdFile13cacheDirEntryEh>
    3dd6:	1e04      	subs	r4, r0, #0
    3dd8:	d0cb      	beq.n	3d72 <_ZN6SdFile4openEPS_PKch+0x1e>
    3dda:	2220      	movs	r2, #32
    3ddc:	2100      	movs	r1, #0
    3dde:	0020      	movs	r0, r4
    3de0:	f001 ff2e 	bl	5c40 <memset>
    3de4:	220b      	movs	r2, #11
    3de6:	a903      	add	r1, sp, #12
    3de8:	0020      	movs	r0, r4
    3dea:	f001 ff20 	bl	5c2e <memcpy>
    3dee:	4b25      	ldr	r3, [pc, #148]	; (3e84 <_ZN6SdFile4openEPS_PKch+0x130>)
    3df0:	681b      	ldr	r3, [r3, #0]
    3df2:	2b00      	cmp	r3, #0
    3df4:	d03b      	beq.n	3e6e <_ZN6SdFile4openEPS_PKch+0x11a>
    3df6:	0021      	movs	r1, r4
    3df8:	0020      	movs	r0, r4
    3dfa:	310e      	adds	r1, #14
    3dfc:	3010      	adds	r0, #16
    3dfe:	4798      	blx	r3
    3e00:	7c63      	ldrb	r3, [r4, #17]
    3e02:	7c22      	ldrb	r2, [r4, #16]
    3e04:	021b      	lsls	r3, r3, #8
    3e06:	4313      	orrs	r3, r2
    3e08:	22ff      	movs	r2, #255	; 0xff
    3e0a:	401a      	ands	r2, r3
    3e0c:	0a1b      	lsrs	r3, r3, #8
    3e0e:	74e3      	strb	r3, [r4, #19]
    3e10:	7663      	strb	r3, [r4, #25]
    3e12:	7be3      	ldrb	r3, [r4, #15]
    3e14:	74a2      	strb	r2, [r4, #18]
    3e16:	7622      	strb	r2, [r4, #24]
    3e18:	7ba2      	ldrb	r2, [r4, #14]
    3e1a:	021b      	lsls	r3, r3, #8
    3e1c:	4313      	orrs	r3, r2
    3e1e:	75a3      	strb	r3, [r4, #22]
    3e20:	0a1b      	lsrs	r3, r3, #8
    3e22:	75e3      	strb	r3, [r4, #23]
    3e24:	f000 f90c 	bl	4040 <_ZN8SdVolume10cacheFlushEv>
    3e28:	2800      	cmp	r0, #0
    3e2a:	d0a2      	beq.n	3d72 <_ZN6SdFile4openEPS_PKch+0x1e>
    3e2c:	7e29      	ldrb	r1, [r5, #24]
    3e2e:	003a      	movs	r2, r7
    3e30:	e00c      	b.n	3e4c <_ZN6SdFile4openEPS_PKch+0xf8>
    3e32:	220b      	movs	r2, #11
    3e34:	a803      	add	r0, sp, #12
    3e36:	f001 feeb 	bl	5c10 <memcmp>
    3e3a:	2800      	cmp	r0, #0
    3e3c:	d1a0      	bne.n	3d80 <_ZN6SdFile4openEPS_PKch+0x2c>
    3e3e:	2330      	movs	r3, #48	; 0x30
    3e40:	403b      	ands	r3, r7
    3e42:	2b30      	cmp	r3, #48	; 0x30
    3e44:	d100      	bne.n	3e48 <_ZN6SdFile4openEPS_PKch+0xf4>
    3e46:	e794      	b.n	3d72 <_ZN6SdFile4openEPS_PKch+0x1e>
    3e48:	003a      	movs	r2, r7
    3e4a:	9901      	ldr	r1, [sp, #4]
    3e4c:	0028      	movs	r0, r5
    3e4e:	f7ff ff45 	bl	3cdc <_ZN6SdFile15openCachedEntryEhh>
    3e52:	e78f      	b.n	3d74 <_ZN6SdFile4openEPS_PKch+0x20>
    3e54:	7a73      	ldrb	r3, [r6, #9]
    3e56:	2b02      	cmp	r3, #2
    3e58:	d100      	bne.n	3e5c <_ZN6SdFile4openEPS_PKch+0x108>
    3e5a:	e78a      	b.n	3d72 <_ZN6SdFile4openEPS_PKch+0x1e>
    3e5c:	0030      	movs	r0, r6
    3e5e:	f7ff fd27 	bl	38b0 <_ZN6SdFile13addDirClusterEv>
    3e62:	2800      	cmp	r0, #0
    3e64:	d100      	bne.n	3e68 <_ZN6SdFile4openEPS_PKch+0x114>
    3e66:	e784      	b.n	3d72 <_ZN6SdFile4openEPS_PKch+0x1e>
    3e68:	762c      	strb	r4, [r5, #24]
    3e6a:	4c07      	ldr	r4, [pc, #28]	; (3e88 <_ZN6SdFile4openEPS_PKch+0x134>)
    3e6c:	e7b5      	b.n	3dda <_ZN6SdFile4openEPS_PKch+0x86>
    3e6e:	2221      	movs	r2, #33	; 0x21
    3e70:	73a3      	strb	r3, [r4, #14]
    3e72:	2308      	movs	r3, #8
    3e74:	7422      	strb	r2, [r4, #16]
    3e76:	3207      	adds	r2, #7
    3e78:	7462      	strb	r2, [r4, #17]
    3e7a:	73e3      	strb	r3, [r4, #15]
    3e7c:	e7c0      	b.n	3e00 <_ZN6SdFile4openEPS_PKch+0xac>
    3e7e:	46c0      	nop			; (mov r8, r8)
    3e80:	20000048 	.word	0x20000048
    3e84:	200007f4 	.word	0x200007f4
    3e88:	200007fc 	.word	0x200007fc

00003e8c <_ZN6SdFile5writeEPKvt>:
    3e8c:	b5f0      	push	{r4, r5, r6, r7, lr}
    3e8e:	7a43      	ldrb	r3, [r0, #9]
    3e90:	b087      	sub	sp, #28
    3e92:	0004      	movs	r4, r0
    3e94:	000e      	movs	r6, r1
    3e96:	9203      	str	r2, [sp, #12]
    3e98:	2b01      	cmp	r3, #1
    3e9a:	d12d      	bne.n	3ef8 <_ZN6SdFile5writeEPKvt+0x6c>
    3e9c:	7a03      	ldrb	r3, [r0, #8]
    3e9e:	079a      	lsls	r2, r3, #30
    3ea0:	d52a      	bpl.n	3ef8 <_ZN6SdFile5writeEPKvt+0x6c>
    3ea2:	075b      	lsls	r3, r3, #29
    3ea4:	d503      	bpl.n	3eae <_ZN6SdFile5writeEPKvt+0x22>
    3ea6:	69e1      	ldr	r1, [r4, #28]
    3ea8:	6923      	ldr	r3, [r4, #16]
    3eaa:	428b      	cmp	r3, r1
    3eac:	d11f      	bne.n	3eee <_ZN6SdFile5writeEPKvt+0x62>
    3eae:	9b03      	ldr	r3, [sp, #12]
    3eb0:	9301      	str	r3, [sp, #4]
    3eb2:	9a01      	ldr	r2, [sp, #4]
    3eb4:	6923      	ldr	r3, [r4, #16]
    3eb6:	2a00      	cmp	r2, #0
    3eb8:	d100      	bne.n	3ebc <_ZN6SdFile5writeEPKvt+0x30>
    3eba:	e08b      	b.n	3fd4 <_ZN6SdFile5writeEPKvt+0x148>
    3ebc:	6a60      	ldr	r0, [r4, #36]	; 0x24
    3ebe:	0a5d      	lsrs	r5, r3, #9
    3ec0:	7902      	ldrb	r2, [r0, #4]
    3ec2:	05db      	lsls	r3, r3, #23
    3ec4:	3a01      	subs	r2, #1
    3ec6:	4015      	ands	r5, r2
    3ec8:	0ddb      	lsrs	r3, r3, #23
    3eca:	b2ed      	uxtb	r5, r5
    3ecc:	9302      	str	r3, [sp, #8]
    3ece:	2d00      	cmp	r5, #0
    3ed0:	d117      	bne.n	3f02 <_ZN6SdFile5writeEPKvt+0x76>
    3ed2:	2b00      	cmp	r3, #0
    3ed4:	d115      	bne.n	3f02 <_ZN6SdFile5writeEPKvt+0x76>
    3ed6:	68e1      	ldr	r1, [r4, #12]
    3ed8:	2900      	cmp	r1, #0
    3eda:	d141      	bne.n	3f60 <_ZN6SdFile5writeEPKvt+0xd4>
    3edc:	6a23      	ldr	r3, [r4, #32]
    3ede:	2b00      	cmp	r3, #0
    3ee0:	d10e      	bne.n	3f00 <_ZN6SdFile5writeEPKvt+0x74>
    3ee2:	0020      	movs	r0, r4
    3ee4:	f7ff fcce 	bl	3884 <_ZN6SdFile10addClusterEv>
    3ee8:	2800      	cmp	r0, #0
    3eea:	d10a      	bne.n	3f02 <_ZN6SdFile5writeEPKvt+0x76>
    3eec:	e004      	b.n	3ef8 <_ZN6SdFile5writeEPKvt+0x6c>
    3eee:	0020      	movs	r0, r4
    3ef0:	f7ff fe26 	bl	3b40 <_ZN6SdFile7seekSetEm>
    3ef4:	2800      	cmp	r0, #0
    3ef6:	d1da      	bne.n	3eae <_ZN6SdFile5writeEPKvt+0x22>
    3ef8:	2301      	movs	r3, #1
    3efa:	2000      	movs	r0, #0
    3efc:	6063      	str	r3, [r4, #4]
    3efe:	e07e      	b.n	3ffe <_ZN6SdFile5writeEPKvt+0x172>
    3f00:	60e3      	str	r3, [r4, #12]
    3f02:	2380      	movs	r3, #128	; 0x80
    3f04:	9a02      	ldr	r2, [sp, #8]
    3f06:	009b      	lsls	r3, r3, #2
    3f08:	1a9f      	subs	r7, r3, r2
    3f0a:	9b01      	ldr	r3, [sp, #4]
    3f0c:	b2bf      	uxth	r7, r7
    3f0e:	42bb      	cmp	r3, r7
    3f10:	da00      	bge.n	3f14 <_ZN6SdFile5writeEPKvt+0x88>
    3f12:	001f      	movs	r7, r3
    3f14:	6a62      	ldr	r2, [r4, #36]	; 0x24
    3f16:	68e3      	ldr	r3, [r4, #12]
    3f18:	7c11      	ldrb	r1, [r2, #16]
    3f1a:	3b02      	subs	r3, #2
    3f1c:	408b      	lsls	r3, r1
    3f1e:	6952      	ldr	r2, [r2, #20]
    3f20:	189b      	adds	r3, r3, r2
    3f22:	195d      	adds	r5, r3, r5
    3f24:	2380      	movs	r3, #128	; 0x80
    3f26:	009b      	lsls	r3, r3, #2
    3f28:	429f      	cmp	r7, r3
    3f2a:	d12b      	bne.n	3f84 <_ZN6SdFile5writeEPKvt+0xf8>
    3f2c:	4b38      	ldr	r3, [pc, #224]	; (4010 <_ZN6SdFile5writeEPKvt+0x184>)
    3f2e:	681a      	ldr	r2, [r3, #0]
    3f30:	4295      	cmp	r5, r2
    3f32:	d102      	bne.n	3f3a <_ZN6SdFile5writeEPKvt+0xae>
    3f34:	2201      	movs	r2, #1
    3f36:	4252      	negs	r2, r2
    3f38:	601a      	str	r2, [r3, #0]
    3f3a:	4b36      	ldr	r3, [pc, #216]	; (4014 <_ZN6SdFile5writeEPKvt+0x188>)
    3f3c:	0032      	movs	r2, r6
    3f3e:	0029      	movs	r1, r5
    3f40:	6818      	ldr	r0, [r3, #0]
    3f42:	f7ff fc5b 	bl	37fc <_ZN7Sd2Card10writeBlockEmPKh>
    3f46:	2800      	cmp	r0, #0
    3f48:	d0d6      	beq.n	3ef8 <_ZN6SdFile5writeEPKvt+0x6c>
    3f4a:	2380      	movs	r3, #128	; 0x80
    3f4c:	009b      	lsls	r3, r3, #2
    3f4e:	18f6      	adds	r6, r6, r3
    3f50:	9b01      	ldr	r3, [sp, #4]
    3f52:	1bdb      	subs	r3, r3, r7
    3f54:	b29b      	uxth	r3, r3
    3f56:	9301      	str	r3, [sp, #4]
    3f58:	6923      	ldr	r3, [r4, #16]
    3f5a:	19df      	adds	r7, r3, r7
    3f5c:	6127      	str	r7, [r4, #16]
    3f5e:	e7a8      	b.n	3eb2 <_ZN6SdFile5writeEPKvt+0x26>
    3f60:	aa05      	add	r2, sp, #20
    3f62:	f000 f8df 	bl	4124 <_ZNK8SdVolume6fatGetEmPm>
    3f66:	2800      	cmp	r0, #0
    3f68:	d049      	beq.n	3ffe <_ZN6SdFile5writeEPKvt+0x172>
    3f6a:	6a63      	ldr	r3, [r4, #36]	; 0x24
    3f6c:	9a05      	ldr	r2, [sp, #20]
    3f6e:	3301      	adds	r3, #1
    3f70:	7fdb      	ldrb	r3, [r3, #31]
    3f72:	2b10      	cmp	r3, #16
    3f74:	d004      	beq.n	3f80 <_ZN6SdFile5writeEPKvt+0xf4>
    3f76:	4b28      	ldr	r3, [pc, #160]	; (4018 <_ZN6SdFile5writeEPKvt+0x18c>)
    3f78:	429a      	cmp	r2, r3
    3f7a:	d2b2      	bcs.n	3ee2 <_ZN6SdFile5writeEPKvt+0x56>
    3f7c:	60e2      	str	r2, [r4, #12]
    3f7e:	e7c0      	b.n	3f02 <_ZN6SdFile5writeEPKvt+0x76>
    3f80:	4b26      	ldr	r3, [pc, #152]	; (401c <_ZN6SdFile5writeEPKvt+0x190>)
    3f82:	e7f9      	b.n	3f78 <_ZN6SdFile5writeEPKvt+0xec>
    3f84:	9b02      	ldr	r3, [sp, #8]
    3f86:	2b00      	cmp	r3, #0
    3f88:	d11b      	bne.n	3fc2 <_ZN6SdFile5writeEPKvt+0x136>
    3f8a:	6923      	ldr	r3, [r4, #16]
    3f8c:	69e2      	ldr	r2, [r4, #28]
    3f8e:	4293      	cmp	r3, r2
    3f90:	d317      	bcc.n	3fc2 <_ZN6SdFile5writeEPKvt+0x136>
    3f92:	f000 f855 	bl	4040 <_ZN8SdVolume10cacheFlushEv>
    3f96:	2800      	cmp	r0, #0
    3f98:	d0ae      	beq.n	3ef8 <_ZN6SdFile5writeEPKvt+0x6c>
    3f9a:	4b1d      	ldr	r3, [pc, #116]	; (4010 <_ZN6SdFile5writeEPKvt+0x184>)
    3f9c:	4a20      	ldr	r2, [pc, #128]	; (4020 <_ZN6SdFile5writeEPKvt+0x194>)
    3f9e:	601d      	str	r5, [r3, #0]
    3fa0:	2301      	movs	r3, #1
    3fa2:	7811      	ldrb	r1, [r2, #0]
    3fa4:	430b      	orrs	r3, r1
    3fa6:	7013      	strb	r3, [r2, #0]
    3fa8:	9a02      	ldr	r2, [sp, #8]
    3faa:	4b1e      	ldr	r3, [pc, #120]	; (4024 <_ZN6SdFile5writeEPKvt+0x198>)
    3fac:	0030      	movs	r0, r6
    3fae:	18d3      	adds	r3, r2, r3
    3fb0:	0019      	movs	r1, r3
    3fb2:	19da      	adds	r2, r3, r7
    3fb4:	428a      	cmp	r2, r1
    3fb6:	d00b      	beq.n	3fd0 <_ZN6SdFile5writeEPKvt+0x144>
    3fb8:	7805      	ldrb	r5, [r0, #0]
    3fba:	3001      	adds	r0, #1
    3fbc:	700d      	strb	r5, [r1, #0]
    3fbe:	3101      	adds	r1, #1
    3fc0:	e7f8      	b.n	3fb4 <_ZN6SdFile5writeEPKvt+0x128>
    3fc2:	2101      	movs	r1, #1
    3fc4:	0028      	movs	r0, r5
    3fc6:	f000 f867 	bl	4098 <_ZN8SdVolume13cacheRawBlockEmh>
    3fca:	2800      	cmp	r0, #0
    3fcc:	d1ec      	bne.n	3fa8 <_ZN6SdFile5writeEPKvt+0x11c>
    3fce:	e793      	b.n	3ef8 <_ZN6SdFile5writeEPKvt+0x6c>
    3fd0:	1ad3      	subs	r3, r2, r3
    3fd2:	e7bc      	b.n	3f4e <_ZN6SdFile5writeEPKvt+0xc2>
    3fd4:	69e1      	ldr	r1, [r4, #28]
    3fd6:	7a22      	ldrb	r2, [r4, #8]
    3fd8:	428b      	cmp	r3, r1
    3fda:	d905      	bls.n	3fe8 <_ZN6SdFile5writeEPKvt+0x15c>
    3fdc:	61e3      	str	r3, [r4, #28]
    3fde:	2380      	movs	r3, #128	; 0x80
    3fe0:	425b      	negs	r3, r3
    3fe2:	4313      	orrs	r3, r2
    3fe4:	7223      	strb	r3, [r4, #8]
    3fe6:	e006      	b.n	3ff6 <_ZN6SdFile5writeEPKvt+0x16a>
    3fe8:	4b0f      	ldr	r3, [pc, #60]	; (4028 <_ZN6SdFile5writeEPKvt+0x19c>)
    3fea:	681b      	ldr	r3, [r3, #0]
    3fec:	2b00      	cmp	r3, #0
    3fee:	d002      	beq.n	3ff6 <_ZN6SdFile5writeEPKvt+0x16a>
    3ff0:	9b03      	ldr	r3, [sp, #12]
    3ff2:	2b00      	cmp	r3, #0
    3ff4:	d1f3      	bne.n	3fde <_ZN6SdFile5writeEPKvt+0x152>
    3ff6:	7a23      	ldrb	r3, [r4, #8]
    3ff8:	071b      	lsls	r3, r3, #28
    3ffa:	d402      	bmi.n	4002 <_ZN6SdFile5writeEPKvt+0x176>
    3ffc:	9803      	ldr	r0, [sp, #12]
    3ffe:	b007      	add	sp, #28
    4000:	bdf0      	pop	{r4, r5, r6, r7, pc}
    4002:	0020      	movs	r0, r4
    4004:	f7ff fdcc 	bl	3ba0 <_ZN6SdFile4syncEv>
    4008:	2800      	cmp	r0, #0
    400a:	d100      	bne.n	400e <_ZN6SdFile5writeEPKvt+0x182>
    400c:	e774      	b.n	3ef8 <_ZN6SdFile5writeEPKvt+0x6c>
    400e:	e7f5      	b.n	3ffc <_ZN6SdFile5writeEPKvt+0x170>
    4010:	20000048 	.word	0x20000048
    4014:	20000a00 	.word	0x20000a00
    4018:	0ffffff8 	.word	0x0ffffff8
    401c:	0000fff8 	.word	0x0000fff8
    4020:	200007f8 	.word	0x200007f8
    4024:	200007fc 	.word	0x200007fc
    4028:	200007f4 	.word	0x200007f4

0000402c <_ZN6SdFile5writeEh>:
    402c:	b507      	push	{r0, r1, r2, lr}
    402e:	466b      	mov	r3, sp
    4030:	71d9      	strb	r1, [r3, #7]
    4032:	3307      	adds	r3, #7
    4034:	2201      	movs	r2, #1
    4036:	0019      	movs	r1, r3
    4038:	f7ff ff28 	bl	3e8c <_ZN6SdFile5writeEPKvt>
    403c:	bd0e      	pop	{r1, r2, r3, pc}
	...

00004040 <_ZN8SdVolume10cacheFlushEv>:
    4040:	b5f8      	push	{r3, r4, r5, r6, r7, lr}
    4042:	4c10      	ldr	r4, [pc, #64]	; (4084 <_ZN8SdVolume10cacheFlushEv+0x44>)
    4044:	2001      	movs	r0, #1
    4046:	7823      	ldrb	r3, [r4, #0]
    4048:	2b00      	cmp	r3, #0
    404a:	d00a      	beq.n	4062 <_ZN8SdVolume10cacheFlushEv+0x22>
    404c:	4f0e      	ldr	r7, [pc, #56]	; (4088 <_ZN8SdVolume10cacheFlushEv+0x48>)
    404e:	4e0f      	ldr	r6, [pc, #60]	; (408c <_ZN8SdVolume10cacheFlushEv+0x4c>)
    4050:	4b0f      	ldr	r3, [pc, #60]	; (4090 <_ZN8SdVolume10cacheFlushEv+0x50>)
    4052:	003a      	movs	r2, r7
    4054:	6819      	ldr	r1, [r3, #0]
    4056:	6830      	ldr	r0, [r6, #0]
    4058:	f7ff fbd0 	bl	37fc <_ZN7Sd2Card10writeBlockEmPKh>
    405c:	2800      	cmp	r0, #0
    405e:	d101      	bne.n	4064 <_ZN8SdVolume10cacheFlushEv+0x24>
    4060:	2000      	movs	r0, #0
    4062:	bdf8      	pop	{r3, r4, r5, r6, r7, pc}
    4064:	4d0b      	ldr	r5, [pc, #44]	; (4094 <_ZN8SdVolume10cacheFlushEv+0x54>)
    4066:	6829      	ldr	r1, [r5, #0]
    4068:	2900      	cmp	r1, #0
    406a:	d007      	beq.n	407c <_ZN8SdVolume10cacheFlushEv+0x3c>
    406c:	003a      	movs	r2, r7
    406e:	6830      	ldr	r0, [r6, #0]
    4070:	f7ff fbc4 	bl	37fc <_ZN7Sd2Card10writeBlockEmPKh>
    4074:	2800      	cmp	r0, #0
    4076:	d0f3      	beq.n	4060 <_ZN8SdVolume10cacheFlushEv+0x20>
    4078:	2300      	movs	r3, #0
    407a:	602b      	str	r3, [r5, #0]
    407c:	2300      	movs	r3, #0
    407e:	2001      	movs	r0, #1
    4080:	7023      	strb	r3, [r4, #0]
    4082:	e7ee      	b.n	4062 <_ZN8SdVolume10cacheFlushEv+0x22>
    4084:	200007f8 	.word	0x200007f8
    4088:	200007fc 	.word	0x200007fc
    408c:	20000a00 	.word	0x20000a00
    4090:	20000048 	.word	0x20000048
    4094:	200009fc 	.word	0x200009fc

00004098 <_ZN8SdVolume13cacheRawBlockEmh>:
    4098:	b570      	push	{r4, r5, r6, lr}
    409a:	4e0d      	ldr	r6, [pc, #52]	; (40d0 <_ZN8SdVolume13cacheRawBlockEmh+0x38>)
    409c:	0005      	movs	r5, r0
    409e:	6833      	ldr	r3, [r6, #0]
    40a0:	000c      	movs	r4, r1
    40a2:	4283      	cmp	r3, r0
    40a4:	d00e      	beq.n	40c4 <_ZN8SdVolume13cacheRawBlockEmh+0x2c>
    40a6:	f7ff ffcb 	bl	4040 <_ZN8SdVolume10cacheFlushEv>
    40aa:	2800      	cmp	r0, #0
    40ac:	d101      	bne.n	40b2 <_ZN8SdVolume13cacheRawBlockEmh+0x1a>
    40ae:	2000      	movs	r0, #0
    40b0:	bd70      	pop	{r4, r5, r6, pc}
    40b2:	4b08      	ldr	r3, [pc, #32]	; (40d4 <_ZN8SdVolume13cacheRawBlockEmh+0x3c>)
    40b4:	4a08      	ldr	r2, [pc, #32]	; (40d8 <_ZN8SdVolume13cacheRawBlockEmh+0x40>)
    40b6:	0029      	movs	r1, r5
    40b8:	6818      	ldr	r0, [r3, #0]
    40ba:	f7ff fb72 	bl	37a2 <_ZN7Sd2Card9readBlockEmPh>
    40be:	2800      	cmp	r0, #0
    40c0:	d0f5      	beq.n	40ae <_ZN8SdVolume13cacheRawBlockEmh+0x16>
    40c2:	6035      	str	r5, [r6, #0]
    40c4:	4b05      	ldr	r3, [pc, #20]	; (40dc <_ZN8SdVolume13cacheRawBlockEmh+0x44>)
    40c6:	2001      	movs	r0, #1
    40c8:	781a      	ldrb	r2, [r3, #0]
    40ca:	4314      	orrs	r4, r2
    40cc:	701c      	strb	r4, [r3, #0]
    40ce:	e7ef      	b.n	40b0 <_ZN8SdVolume13cacheRawBlockEmh+0x18>
    40d0:	20000048 	.word	0x20000048
    40d4:	20000a00 	.word	0x20000a00
    40d8:	200007fc 	.word	0x200007fc
    40dc:	200007f8 	.word	0x200007f8

000040e0 <_ZN8SdVolume14cacheZeroBlockEm>:
    40e0:	b570      	push	{r4, r5, r6, lr}
    40e2:	0004      	movs	r4, r0
    40e4:	f7ff ffac 	bl	4040 <_ZN8SdVolume10cacheFlushEv>
    40e8:	2800      	cmp	r0, #0
    40ea:	d011      	beq.n	4110 <_ZN8SdVolume14cacheZeroBlockEm+0x30>
    40ec:	2300      	movs	r3, #0
    40ee:	0019      	movs	r1, r3
    40f0:	4d08      	ldr	r5, [pc, #32]	; (4114 <_ZN8SdVolume14cacheZeroBlockEm+0x34>)
    40f2:	4809      	ldr	r0, [pc, #36]	; (4118 <_ZN8SdVolume14cacheZeroBlockEm+0x38>)
    40f4:	1c5a      	adds	r2, r3, #1
    40f6:	42aa      	cmp	r2, r5
    40f8:	d003      	beq.n	4102 <_ZN8SdVolume14cacheZeroBlockEm+0x22>
    40fa:	18c3      	adds	r3, r0, r3
    40fc:	7019      	strb	r1, [r3, #0]
    40fe:	0013      	movs	r3, r2
    4100:	e7f8      	b.n	40f4 <_ZN8SdVolume14cacheZeroBlockEm+0x14>
    4102:	2001      	movs	r0, #1
    4104:	4b05      	ldr	r3, [pc, #20]	; (411c <_ZN8SdVolume14cacheZeroBlockEm+0x3c>)
    4106:	4a06      	ldr	r2, [pc, #24]	; (4120 <_ZN8SdVolume14cacheZeroBlockEm+0x40>)
    4108:	601c      	str	r4, [r3, #0]
    410a:	7813      	ldrb	r3, [r2, #0]
    410c:	4303      	orrs	r3, r0
    410e:	7013      	strb	r3, [r2, #0]
    4110:	bd70      	pop	{r4, r5, r6, pc}
    4112:	46c0      	nop			; (mov r8, r8)
    4114:	00000201 	.word	0x00000201
    4118:	200007fc 	.word	0x200007fc
    411c:	20000048 	.word	0x20000048
    4120:	200007f8 	.word	0x200007f8

00004124 <_ZNK8SdVolume6fatGetEmPm>:
    4124:	68c3      	ldr	r3, [r0, #12]
    4126:	b570      	push	{r4, r5, r6, lr}
    4128:	3301      	adds	r3, #1
    412a:	000c      	movs	r4, r1
    412c:	0015      	movs	r5, r2
    412e:	428b      	cmp	r3, r1
    4130:	d201      	bcs.n	4136 <_ZNK8SdVolume6fatGetEmPm+0x12>
    4132:	2000      	movs	r0, #0
    4134:	bd70      	pop	{r4, r5, r6, pc}
    4136:	1c46      	adds	r6, r0, #1
    4138:	7ff2      	ldrb	r2, [r6, #31]
    413a:	69c3      	ldr	r3, [r0, #28]
    413c:	09c8      	lsrs	r0, r1, #7
    413e:	2a10      	cmp	r2, #16
    4140:	d100      	bne.n	4144 <_ZNK8SdVolume6fatGetEmPm+0x20>
    4142:	0a08      	lsrs	r0, r1, #8
    4144:	18c0      	adds	r0, r0, r3
    4146:	4b0d      	ldr	r3, [pc, #52]	; (417c <_ZNK8SdVolume6fatGetEmPm+0x58>)
    4148:	681b      	ldr	r3, [r3, #0]
    414a:	4298      	cmp	r0, r3
    414c:	d109      	bne.n	4162 <_ZNK8SdVolume6fatGetEmPm+0x3e>
    414e:	7ff2      	ldrb	r2, [r6, #31]
    4150:	4b0b      	ldr	r3, [pc, #44]	; (4180 <_ZNK8SdVolume6fatGetEmPm+0x5c>)
    4152:	2a10      	cmp	r2, #16
    4154:	d10b      	bne.n	416e <_ZNK8SdVolume6fatGetEmPm+0x4a>
    4156:	b2e4      	uxtb	r4, r4
    4158:	0064      	lsls	r4, r4, #1
    415a:	5b1b      	ldrh	r3, [r3, r4]
    415c:	602b      	str	r3, [r5, #0]
    415e:	2001      	movs	r0, #1
    4160:	e7e8      	b.n	4134 <_ZNK8SdVolume6fatGetEmPm+0x10>
    4162:	2100      	movs	r1, #0
    4164:	f7ff ff98 	bl	4098 <_ZN8SdVolume13cacheRawBlockEmh>
    4168:	2800      	cmp	r0, #0
    416a:	d1f0      	bne.n	414e <_ZNK8SdVolume6fatGetEmPm+0x2a>
    416c:	e7e1      	b.n	4132 <_ZNK8SdVolume6fatGetEmPm+0xe>
    416e:	227f      	movs	r2, #127	; 0x7f
    4170:	4014      	ands	r4, r2
    4172:	00a4      	lsls	r4, r4, #2
    4174:	591b      	ldr	r3, [r3, r4]
    4176:	011b      	lsls	r3, r3, #4
    4178:	091b      	lsrs	r3, r3, #4
    417a:	e7ef      	b.n	415c <_ZNK8SdVolume6fatGetEmPm+0x38>
    417c:	20000048 	.word	0x20000048
    4180:	200007fc 	.word	0x200007fc

00004184 <_ZNK8SdVolume9chainSizeEmPm>:
    4184:	b5f7      	push	{r0, r1, r2, r4, r5, r6, r7, lr}
    4186:	2780      	movs	r7, #128	; 0x80
    4188:	0005      	movs	r5, r0
    418a:	0016      	movs	r6, r2
    418c:	2400      	movs	r4, #0
    418e:	9101      	str	r1, [sp, #4]
    4190:	00bf      	lsls	r7, r7, #2
    4192:	aa01      	add	r2, sp, #4
    4194:	9901      	ldr	r1, [sp, #4]
    4196:	0028      	movs	r0, r5
    4198:	f7ff ffc4 	bl	4124 <_ZNK8SdVolume6fatGetEmPm>
    419c:	2800      	cmp	r0, #0
    419e:	d00d      	beq.n	41bc <_ZNK8SdVolume9chainSizeEmPm+0x38>
    41a0:	003a      	movs	r2, r7
    41a2:	7c2b      	ldrb	r3, [r5, #16]
    41a4:	409a      	lsls	r2, r3
    41a6:	1c6b      	adds	r3, r5, #1
    41a8:	7fdb      	ldrb	r3, [r3, #31]
    41aa:	18a4      	adds	r4, r4, r2
    41ac:	9a01      	ldr	r2, [sp, #4]
    41ae:	2b10      	cmp	r3, #16
    41b0:	d005      	beq.n	41be <_ZNK8SdVolume9chainSizeEmPm+0x3a>
    41b2:	4b04      	ldr	r3, [pc, #16]	; (41c4 <_ZNK8SdVolume9chainSizeEmPm+0x40>)
    41b4:	429a      	cmp	r2, r3
    41b6:	d3ec      	bcc.n	4192 <_ZNK8SdVolume9chainSizeEmPm+0xe>
    41b8:	2001      	movs	r0, #1
    41ba:	6034      	str	r4, [r6, #0]
    41bc:	bdfe      	pop	{r1, r2, r3, r4, r5, r6, r7, pc}
    41be:	4b02      	ldr	r3, [pc, #8]	; (41c8 <_ZNK8SdVolume9chainSizeEmPm+0x44>)
    41c0:	e7f8      	b.n	41b4 <_ZNK8SdVolume9chainSizeEmPm+0x30>
    41c2:	46c0      	nop			; (mov r8, r8)
    41c4:	0ffffff8 	.word	0x0ffffff8
    41c8:	0000fff8 	.word	0x0000fff8

000041cc <_ZN8SdVolume6fatPutEmm>:
    41cc:	b5f7      	push	{r0, r1, r2, r4, r5, r6, r7, lr}
    41ce:	0006      	movs	r6, r0
    41d0:	000c      	movs	r4, r1
    41d2:	9201      	str	r2, [sp, #4]
    41d4:	2901      	cmp	r1, #1
    41d6:	d801      	bhi.n	41dc <_ZN8SdVolume6fatPutEmm+0x10>
    41d8:	2000      	movs	r0, #0
    41da:	bdfe      	pop	{r1, r2, r3, r4, r5, r6, r7, pc}
    41dc:	68c3      	ldr	r3, [r0, #12]
    41de:	3301      	adds	r3, #1
    41e0:	4299      	cmp	r1, r3
    41e2:	d8f9      	bhi.n	41d8 <_ZN8SdVolume6fatPutEmm+0xc>
    41e4:	1c47      	adds	r7, r0, #1
    41e6:	7ffa      	ldrb	r2, [r7, #31]
    41e8:	69c5      	ldr	r5, [r0, #28]
    41ea:	09cb      	lsrs	r3, r1, #7
    41ec:	2a10      	cmp	r2, #16
    41ee:	d100      	bne.n	41f2 <_ZN8SdVolume6fatPutEmm+0x26>
    41f0:	0a0b      	lsrs	r3, r1, #8
    41f2:	18ed      	adds	r5, r5, r3
    41f4:	4b13      	ldr	r3, [pc, #76]	; (4244 <_ZN8SdVolume6fatPutEmm+0x78>)
    41f6:	681b      	ldr	r3, [r3, #0]
    41f8:	429d      	cmp	r5, r3
    41fa:	d116      	bne.n	422a <_ZN8SdVolume6fatPutEmm+0x5e>
    41fc:	7ffa      	ldrb	r2, [r7, #31]
    41fe:	4b12      	ldr	r3, [pc, #72]	; (4248 <_ZN8SdVolume6fatPutEmm+0x7c>)
    4200:	2a10      	cmp	r2, #16
    4202:	d119      	bne.n	4238 <_ZN8SdVolume6fatPutEmm+0x6c>
    4204:	466a      	mov	r2, sp
    4206:	b2e4      	uxtb	r4, r4
    4208:	8892      	ldrh	r2, [r2, #4]
    420a:	0064      	lsls	r4, r4, #1
    420c:	531a      	strh	r2, [r3, r4]
    420e:	2301      	movs	r3, #1
    4210:	490e      	ldr	r1, [pc, #56]	; (424c <_ZN8SdVolume6fatPutEmm+0x80>)
    4212:	0018      	movs	r0, r3
    4214:	780a      	ldrb	r2, [r1, #0]
    4216:	431a      	orrs	r2, r3
    4218:	700a      	strb	r2, [r1, #0]
    421a:	7e32      	ldrb	r2, [r6, #24]
    421c:	429a      	cmp	r2, r3
    421e:	dddc      	ble.n	41da <_ZN8SdVolume6fatPutEmm+0xe>
    4220:	68b2      	ldr	r2, [r6, #8]
    4222:	1955      	adds	r5, r2, r5
    4224:	4a0a      	ldr	r2, [pc, #40]	; (4250 <_ZN8SdVolume6fatPutEmm+0x84>)
    4226:	6015      	str	r5, [r2, #0]
    4228:	e7d7      	b.n	41da <_ZN8SdVolume6fatPutEmm+0xe>
    422a:	2100      	movs	r1, #0
    422c:	0028      	movs	r0, r5
    422e:	f7ff ff33 	bl	4098 <_ZN8SdVolume13cacheRawBlockEmh>
    4232:	2800      	cmp	r0, #0
    4234:	d1e2      	bne.n	41fc <_ZN8SdVolume6fatPutEmm+0x30>
    4236:	e7cf      	b.n	41d8 <_ZN8SdVolume6fatPutEmm+0xc>
    4238:	227f      	movs	r2, #127	; 0x7f
    423a:	4014      	ands	r4, r2
    423c:	9a01      	ldr	r2, [sp, #4]
    423e:	00a4      	lsls	r4, r4, #2
    4240:	511a      	str	r2, [r3, r4]
    4242:	e7e4      	b.n	420e <_ZN8SdVolume6fatPutEmm+0x42>
    4244:	20000048 	.word	0x20000048
    4248:	200007fc 	.word	0x200007fc
    424c:	200007f8 	.word	0x200007f8
    4250:	200009fc 	.word	0x200009fc

00004254 <_ZN8SdVolume15allocContiguousEmPm>:
    4254:	b5f0      	push	{r4, r5, r6, r7, lr}
    4256:	6814      	ldr	r4, [r2, #0]
    4258:	b087      	sub	sp, #28
    425a:	0006      	movs	r6, r0
    425c:	9102      	str	r1, [sp, #8]
    425e:	9201      	str	r2, [sp, #4]
    4260:	2c00      	cmp	r4, #0
    4262:	d021      	beq.n	42a8 <_ZN8SdVolume15allocContiguousEmPm+0x54>
    4264:	2700      	movs	r7, #0
    4266:	3401      	adds	r4, #1
    4268:	68f3      	ldr	r3, [r6, #12]
    426a:	0025      	movs	r5, r4
    426c:	3301      	adds	r3, #1
    426e:	9303      	str	r3, [sp, #12]
    4270:	2300      	movs	r3, #0
    4272:	9300      	str	r3, [sp, #0]
    4274:	9b00      	ldr	r3, [sp, #0]
    4276:	68f2      	ldr	r2, [r6, #12]
    4278:	4293      	cmp	r3, r2
    427a:	d227      	bcs.n	42cc <_ZN8SdVolume15allocContiguousEmPm+0x78>
    427c:	9b03      	ldr	r3, [sp, #12]
    427e:	429d      	cmp	r5, r3
    4280:	d901      	bls.n	4286 <_ZN8SdVolume15allocContiguousEmPm+0x32>
    4282:	2502      	movs	r5, #2
    4284:	002c      	movs	r4, r5
    4286:	aa05      	add	r2, sp, #20
    4288:	0029      	movs	r1, r5
    428a:	0030      	movs	r0, r6
    428c:	f7ff ff4a 	bl	4124 <_ZNK8SdVolume6fatGetEmPm>
    4290:	2800      	cmp	r0, #0
    4292:	d01b      	beq.n	42cc <_ZN8SdVolume15allocContiguousEmPm+0x78>
    4294:	9a05      	ldr	r2, [sp, #20]
    4296:	1c6b      	adds	r3, r5, #1
    4298:	2a00      	cmp	r2, #0
    429a:	d00c      	beq.n	42b6 <_ZN8SdVolume15allocContiguousEmPm+0x62>
    429c:	001c      	movs	r4, r3
    429e:	9a00      	ldr	r2, [sp, #0]
    42a0:	001d      	movs	r5, r3
    42a2:	3201      	adds	r2, #1
    42a4:	9200      	str	r2, [sp, #0]
    42a6:	e7e5      	b.n	4274 <_ZN8SdVolume15allocContiguousEmPm+0x20>
    42a8:	9b02      	ldr	r3, [sp, #8]
    42aa:	6804      	ldr	r4, [r0, #0]
    42ac:	3b01      	subs	r3, #1
    42ae:	4259      	negs	r1, r3
    42b0:	4159      	adcs	r1, r3
    42b2:	b2cf      	uxtb	r7, r1
    42b4:	e7d8      	b.n	4268 <_ZN8SdVolume15allocContiguousEmPm+0x14>
    42b6:	9902      	ldr	r1, [sp, #8]
    42b8:	1b1a      	subs	r2, r3, r4
    42ba:	4291      	cmp	r1, r2
    42bc:	d1ef      	bne.n	429e <_ZN8SdVolume15allocContiguousEmPm+0x4a>
    42be:	4a15      	ldr	r2, [pc, #84]	; (4314 <_ZN8SdVolume15allocContiguousEmPm+0xc0>)
    42c0:	0029      	movs	r1, r5
    42c2:	0030      	movs	r0, r6
    42c4:	f7ff ff82 	bl	41cc <_ZN8SdVolume6fatPutEmm>
    42c8:	2800      	cmp	r0, #0
    42ca:	d103      	bne.n	42d4 <_ZN8SdVolume15allocContiguousEmPm+0x80>
    42cc:	2700      	movs	r7, #0
    42ce:	0038      	movs	r0, r7
    42d0:	b007      	add	sp, #28
    42d2:	bdf0      	pop	{r4, r5, r6, r7, pc}
    42d4:	42ac      	cmp	r4, r5
    42d6:	d208      	bcs.n	42ea <_ZN8SdVolume15allocContiguousEmPm+0x96>
    42d8:	1e6b      	subs	r3, r5, #1
    42da:	002a      	movs	r2, r5
    42dc:	0019      	movs	r1, r3
    42de:	0030      	movs	r0, r6
    42e0:	9300      	str	r3, [sp, #0]
    42e2:	f7ff ff73 	bl	41cc <_ZN8SdVolume6fatPutEmm>
    42e6:	9d00      	ldr	r5, [sp, #0]
    42e8:	e7ee      	b.n	42c8 <_ZN8SdVolume15allocContiguousEmPm+0x74>
    42ea:	9b01      	ldr	r3, [sp, #4]
    42ec:	6819      	ldr	r1, [r3, #0]
    42ee:	2900      	cmp	r1, #0
    42f0:	d105      	bne.n	42fe <_ZN8SdVolume15allocContiguousEmPm+0xaa>
    42f2:	9b01      	ldr	r3, [sp, #4]
    42f4:	601c      	str	r4, [r3, #0]
    42f6:	2f00      	cmp	r7, #0
    42f8:	d108      	bne.n	430c <_ZN8SdVolume15allocContiguousEmPm+0xb8>
    42fa:	3701      	adds	r7, #1
    42fc:	e7e7      	b.n	42ce <_ZN8SdVolume15allocContiguousEmPm+0x7a>
    42fe:	0022      	movs	r2, r4
    4300:	0030      	movs	r0, r6
    4302:	f7ff ff63 	bl	41cc <_ZN8SdVolume6fatPutEmm>
    4306:	2800      	cmp	r0, #0
    4308:	d1f3      	bne.n	42f2 <_ZN8SdVolume15allocContiguousEmPm+0x9e>
    430a:	e7df      	b.n	42cc <_ZN8SdVolume15allocContiguousEmPm+0x78>
    430c:	3401      	adds	r4, #1
    430e:	6034      	str	r4, [r6, #0]
    4310:	e7dd      	b.n	42ce <_ZN8SdVolume15allocContiguousEmPm+0x7a>
    4312:	46c0      	nop			; (mov r8, r8)
    4314:	0fffffff 	.word	0x0fffffff

00004318 <_ZN8SdVolume9freeChainEm>:
    4318:	2302      	movs	r3, #2
    431a:	b537      	push	{r0, r1, r2, r4, r5, lr}
    431c:	0005      	movs	r5, r0
    431e:	000c      	movs	r4, r1
    4320:	6003      	str	r3, [r0, #0]
    4322:	aa01      	add	r2, sp, #4
    4324:	0021      	movs	r1, r4
    4326:	0028      	movs	r0, r5
    4328:	f7ff fefc 	bl	4124 <_ZNK8SdVolume6fatGetEmPm>
    432c:	2800      	cmp	r0, #0
    432e:	d012      	beq.n	4356 <_ZN8SdVolume9freeChainEm+0x3e>
    4330:	2200      	movs	r2, #0
    4332:	0021      	movs	r1, r4
    4334:	0028      	movs	r0, r5
    4336:	f7ff ff49 	bl	41cc <_ZN8SdVolume6fatPutEmm>
    433a:	2800      	cmp	r0, #0
    433c:	d00b      	beq.n	4356 <_ZN8SdVolume9freeChainEm+0x3e>
    433e:	1c6b      	adds	r3, r5, #1
    4340:	7fdb      	ldrb	r3, [r3, #31]
    4342:	9c01      	ldr	r4, [sp, #4]
    4344:	2b10      	cmp	r3, #16
    4346:	d004      	beq.n	4352 <_ZN8SdVolume9freeChainEm+0x3a>
    4348:	4b04      	ldr	r3, [pc, #16]	; (435c <_ZN8SdVolume9freeChainEm+0x44>)
    434a:	429c      	cmp	r4, r3
    434c:	d3e9      	bcc.n	4322 <_ZN8SdVolume9freeChainEm+0xa>
    434e:	2001      	movs	r0, #1
    4350:	bd3e      	pop	{r1, r2, r3, r4, r5, pc}
    4352:	4b03      	ldr	r3, [pc, #12]	; (4360 <_ZN8SdVolume9freeChainEm+0x48>)
    4354:	e7f9      	b.n	434a <_ZN8SdVolume9freeChainEm+0x32>
    4356:	2000      	movs	r0, #0
    4358:	e7fa      	b.n	4350 <_ZN8SdVolume9freeChainEm+0x38>
    435a:	46c0      	nop			; (mov r8, r8)
    435c:	0ffffff8 	.word	0x0ffffff8
    4360:	0000fff8 	.word	0x0000fff8

00004364 <_ZN8SdVolume4initEP7Sd2Cardh>:
    4364:	b5f8      	push	{r3, r4, r5, r6, r7, lr}
    4366:	4b40      	ldr	r3, [pc, #256]	; (4468 <_ZN8SdVolume4initEP7Sd2Cardh+0x104>)
    4368:	0005      	movs	r5, r0
    436a:	1e14      	subs	r4, r2, #0
    436c:	6019      	str	r1, [r3, #0]
    436e:	d020      	beq.n	43b2 <_ZN8SdVolume4initEP7Sd2Cardh+0x4e>
    4370:	2a04      	cmp	r2, #4
    4372:	dd01      	ble.n	4378 <_ZN8SdVolume4initEP7Sd2Cardh+0x14>
    4374:	2000      	movs	r0, #0
    4376:	bdf8      	pop	{r3, r4, r5, r6, r7, pc}
    4378:	2100      	movs	r1, #0
    437a:	0008      	movs	r0, r1
    437c:	f7ff fe8c 	bl	4098 <_ZN8SdVolume13cacheRawBlockEmh>
    4380:	2800      	cmp	r0, #0
    4382:	d0f7      	beq.n	4374 <_ZN8SdVolume4initEP7Sd2Cardh+0x10>
    4384:	1e63      	subs	r3, r4, #1
    4386:	4a39      	ldr	r2, [pc, #228]	; (446c <_ZN8SdVolume4initEP7Sd2Cardh+0x108>)
    4388:	011b      	lsls	r3, r3, #4
    438a:	18d3      	adds	r3, r2, r3
    438c:	33bf      	adds	r3, #191	; 0xbf
    438e:	33ff      	adds	r3, #255	; 0xff
    4390:	781b      	ldrb	r3, [r3, #0]
    4392:	065b      	lsls	r3, r3, #25
    4394:	d1ee      	bne.n	4374 <_ZN8SdVolume4initEP7Sd2Cardh+0x10>
    4396:	341b      	adds	r4, #27
    4398:	0124      	lsls	r4, r4, #4
    439a:	1914      	adds	r4, r2, r4
    439c:	89a3      	ldrh	r3, [r4, #12]
    439e:	8962      	ldrh	r2, [r4, #10]
    43a0:	041b      	lsls	r3, r3, #16
    43a2:	4313      	orrs	r3, r2
    43a4:	2b63      	cmp	r3, #99	; 0x63
    43a6:	d9e5      	bls.n	4374 <_ZN8SdVolume4initEP7Sd2Cardh+0x10>
    43a8:	88e3      	ldrh	r3, [r4, #6]
    43aa:	8924      	ldrh	r4, [r4, #8]
    43ac:	0424      	lsls	r4, r4, #16
    43ae:	431c      	orrs	r4, r3
    43b0:	d0e0      	beq.n	4374 <_ZN8SdVolume4initEP7Sd2Cardh+0x10>
    43b2:	2100      	movs	r1, #0
    43b4:	0020      	movs	r0, r4
    43b6:	f7ff fe6f 	bl	4098 <_ZN8SdVolume13cacheRawBlockEmh>
    43ba:	2800      	cmp	r0, #0
    43bc:	d0da      	beq.n	4374 <_ZN8SdVolume4initEP7Sd2Cardh+0x10>
    43be:	2180      	movs	r1, #128	; 0x80
    43c0:	4b2a      	ldr	r3, [pc, #168]	; (446c <_ZN8SdVolume4initEP7Sd2Cardh+0x108>)
    43c2:	0089      	lsls	r1, r1, #2
    43c4:	7b1a      	ldrb	r2, [r3, #12]
    43c6:	7ad8      	ldrb	r0, [r3, #11]
    43c8:	0212      	lsls	r2, r2, #8
    43ca:	4302      	orrs	r2, r0
    43cc:	428a      	cmp	r2, r1
    43ce:	d1d1      	bne.n	4374 <_ZN8SdVolume4initEP7Sd2Cardh+0x10>
    43d0:	7c1a      	ldrb	r2, [r3, #16]
    43d2:	4694      	mov	ip, r2
    43d4:	2a00      	cmp	r2, #0
    43d6:	d0cd      	beq.n	4374 <_ZN8SdVolume4initEP7Sd2Cardh+0x10>
    43d8:	89d8      	ldrh	r0, [r3, #14]
    43da:	2800      	cmp	r0, #0
    43dc:	d0ca      	beq.n	4374 <_ZN8SdVolume4initEP7Sd2Cardh+0x10>
    43de:	7b5e      	ldrb	r6, [r3, #13]
    43e0:	2e00      	cmp	r6, #0
    43e2:	d0c7      	beq.n	4374 <_ZN8SdVolume4initEP7Sd2Cardh+0x10>
    43e4:	762a      	strb	r2, [r5, #24]
    43e6:	2200      	movs	r2, #0
    43e8:	2701      	movs	r7, #1
    43ea:	712e      	strb	r6, [r5, #4]
    43ec:	742a      	strb	r2, [r5, #16]
    43ee:	003a      	movs	r2, r7
    43f0:	7c29      	ldrb	r1, [r5, #16]
    43f2:	408a      	lsls	r2, r1
    43f4:	4296      	cmp	r6, r2
    43f6:	d004      	beq.n	4402 <_ZN8SdVolume4initEP7Sd2Cardh+0x9e>
    43f8:	1c4a      	adds	r2, r1, #1
    43fa:	742a      	strb	r2, [r5, #16]
    43fc:	2907      	cmp	r1, #7
    43fe:	ddf6      	ble.n	43ee <_ZN8SdVolume4initEP7Sd2Cardh+0x8a>
    4400:	e7b8      	b.n	4374 <_ZN8SdVolume4initEP7Sd2Cardh+0x10>
    4402:	8ada      	ldrh	r2, [r3, #22]
    4404:	2a00      	cmp	r2, #0
    4406:	d100      	bne.n	440a <_ZN8SdVolume4initEP7Sd2Cardh+0xa6>
    4408:	6a5a      	ldr	r2, [r3, #36]	; 0x24
    440a:	1900      	adds	r0, r0, r4
    440c:	60aa      	str	r2, [r5, #8]
    440e:	61e8      	str	r0, [r5, #28]
    4410:	691e      	ldr	r6, [r3, #16]
    4412:	0237      	lsls	r7, r6, #8
    4414:	0c3f      	lsrs	r7, r7, #16
    4416:	b2be      	uxth	r6, r7
    4418:	846f      	strh	r7, [r5, #34]	; 0x22
    441a:	4667      	mov	r7, ip
    441c:	437a      	muls	r2, r7
    441e:	1810      	adds	r0, r2, r0
    4420:	0172      	lsls	r2, r6, #5
    4422:	4e13      	ldr	r6, [pc, #76]	; (4470 <_ZN8SdVolume4initEP7Sd2Cardh+0x10c>)
    4424:	6268      	str	r0, [r5, #36]	; 0x24
    4426:	1992      	adds	r2, r2, r6
    4428:	1252      	asrs	r2, r2, #9
    442a:	1812      	adds	r2, r2, r0
    442c:	616a      	str	r2, [r5, #20]
    442e:	7d18      	ldrb	r0, [r3, #20]
    4430:	7cde      	ldrb	r6, [r3, #19]
    4432:	0200      	lsls	r0, r0, #8
    4434:	4330      	orrs	r0, r6
    4436:	d100      	bne.n	443a <_ZN8SdVolume4initEP7Sd2Cardh+0xd6>
    4438:	6a18      	ldr	r0, [r3, #32]
    443a:	1aa4      	subs	r4, r4, r2
    443c:	1824      	adds	r4, r4, r0
    443e:	40cc      	lsrs	r4, r1
    4440:	4a0c      	ldr	r2, [pc, #48]	; (4474 <_ZN8SdVolume4initEP7Sd2Cardh+0x110>)
    4442:	60ec      	str	r4, [r5, #12]
    4444:	1c6b      	adds	r3, r5, #1
    4446:	4294      	cmp	r4, r2
    4448:	d803      	bhi.n	4452 <_ZN8SdVolume4initEP7Sd2Cardh+0xee>
    444a:	220c      	movs	r2, #12
    444c:	77da      	strb	r2, [r3, #31]
    444e:	2001      	movs	r0, #1
    4450:	e791      	b.n	4376 <_ZN8SdVolume4initEP7Sd2Cardh+0x12>
    4452:	4a09      	ldr	r2, [pc, #36]	; (4478 <_ZN8SdVolume4initEP7Sd2Cardh+0x114>)
    4454:	4294      	cmp	r4, r2
    4456:	d801      	bhi.n	445c <_ZN8SdVolume4initEP7Sd2Cardh+0xf8>
    4458:	2210      	movs	r2, #16
    445a:	e7f7      	b.n	444c <_ZN8SdVolume4initEP7Sd2Cardh+0xe8>
    445c:	4a03      	ldr	r2, [pc, #12]	; (446c <_ZN8SdVolume4initEP7Sd2Cardh+0x108>)
    445e:	6ad2      	ldr	r2, [r2, #44]	; 0x2c
    4460:	626a      	str	r2, [r5, #36]	; 0x24
    4462:	2220      	movs	r2, #32
    4464:	e7f2      	b.n	444c <_ZN8SdVolume4initEP7Sd2Cardh+0xe8>
    4466:	46c0      	nop			; (mov r8, r8)
    4468:	20000a00 	.word	0x20000a00
    446c:	200007fc 	.word	0x200007fc
    4470:	000001ff 	.word	0x000001ff
    4474:	00000ff4 	.word	0x00000ff4
    4478:	0000fff4 	.word	0x0000fff4

0000447c <_ZN8SPIClass4initEv>:
    447c:	7a43      	ldrb	r3, [r0, #9]
    447e:	2b00      	cmp	r3, #0
    4480:	d104      	bne.n	448c <_ZN8SPIClass4initEv+0x10>
    4482:	7283      	strb	r3, [r0, #10]
    4484:	72c3      	strb	r3, [r0, #11]
    4486:	60c3      	str	r3, [r0, #12]
    4488:	3301      	adds	r3, #1
    448a:	7243      	strb	r3, [r0, #9]
    448c:	4770      	bx	lr

0000448e <_ZN8SPIClass6configE11SPISettings>:
    448e:	b530      	push	{r4, r5, lr}
    4490:	0004      	movs	r4, r0
    4492:	b085      	sub	sp, #20
    4494:	ad02      	add	r5, sp, #8
    4496:	6800      	ldr	r0, [r0, #0]
    4498:	9102      	str	r1, [sp, #8]
    449a:	9203      	str	r2, [sp, #12]
    449c:	f000 ff51 	bl	5342 <_ZN6SERCOM10disableSPIEv>
    44a0:	796b      	ldrb	r3, [r5, #5]
    44a2:	7a22      	ldrb	r2, [r4, #8]
    44a4:	79e1      	ldrb	r1, [r4, #7]
    44a6:	9300      	str	r3, [sp, #0]
    44a8:	6820      	ldr	r0, [r4, #0]
    44aa:	2300      	movs	r3, #0
    44ac:	f001 f8ae 	bl	560c <_ZN6SERCOM7initSPIE14SercomSpiTXPad11SercomRXPad17SercomSpiCharSize15SercomDataOrder>
    44b0:	7929      	ldrb	r1, [r5, #4]
    44b2:	9a02      	ldr	r2, [sp, #8]
    44b4:	6820      	ldr	r0, [r4, #0]
    44b6:	f000 ff19 	bl	52ec <_ZN6SERCOM12initSPIClockE18SercomSpiClockModem>
    44ba:	6820      	ldr	r0, [r4, #0]
    44bc:	f000 ff38 	bl	5330 <_ZN6SERCOM9enableSPIEv>
    44c0:	b005      	add	sp, #20
    44c2:	bd30      	pop	{r4, r5, pc}

000044c4 <_ZN8SPIClass5beginEv>:
    44c4:	b570      	push	{r4, r5, r6, lr}
    44c6:	2618      	movs	r6, #24
    44c8:	0004      	movs	r4, r0
    44ca:	f7ff ffd7 	bl	447c <_ZN8SPIClass4initEv>
    44ce:	0033      	movs	r3, r6
    44d0:	2108      	movs	r1, #8
    44d2:	7920      	ldrb	r0, [r4, #4]
    44d4:	4d0d      	ldr	r5, [pc, #52]	; (450c <_ZN8SPIClass5beginEv+0x48>)
    44d6:	4343      	muls	r3, r0
    44d8:	18eb      	adds	r3, r5, r3
    44da:	5659      	ldrsb	r1, [r3, r1]
    44dc:	f7fd ff74 	bl	23c8 <pinPeripheral>
    44e0:	0033      	movs	r3, r6
    44e2:	2108      	movs	r1, #8
    44e4:	79a0      	ldrb	r0, [r4, #6]
    44e6:	4343      	muls	r3, r0
    44e8:	18eb      	adds	r3, r5, r3
    44ea:	5659      	ldrsb	r1, [r3, r1]
    44ec:	f7fd ff6c 	bl	23c8 <pinPeripheral>
    44f0:	2108      	movs	r1, #8
    44f2:	7960      	ldrb	r0, [r4, #5]
    44f4:	4346      	muls	r6, r0
    44f6:	19ad      	adds	r5, r5, r6
    44f8:	5669      	ldrsb	r1, [r5, r1]
    44fa:	f7fd ff65 	bl	23c8 <pinPeripheral>
    44fe:	4b04      	ldr	r3, [pc, #16]	; (4510 <_ZN8SPIClass5beginEv+0x4c>)
    4500:	0020      	movs	r0, r4
    4502:	cb06      	ldmia	r3!, {r1, r2}
    4504:	f7ff ffc3 	bl	448e <_ZN8SPIClass6configE11SPISettings>
    4508:	bd70      	pop	{r4, r5, r6, pc}
    450a:	46c0      	nop			; (mov r8, r8)
    450c:	00006180 	.word	0x00006180
    4510:	20000a14 	.word	0x20000a14

00004514 <_ZN8SPIClass16beginTransactionE11SPISettings>:
    4514:	b507      	push	{r0, r1, r2, lr}
    4516:	7a83      	ldrb	r3, [r0, #10]
    4518:	9100      	str	r1, [sp, #0]
    451a:	9201      	str	r2, [sp, #4]
    451c:	2b00      	cmp	r3, #0
    451e:	d007      	beq.n	4530 <_ZN8SPIClass16beginTransactionE11SPISettings+0x1c>
    4520:	079a      	lsls	r2, r3, #30
    4522:	d50a      	bpl.n	453a <_ZN8SPIClass16beginTransactionE11SPISettings+0x26>
  __ASM volatile ("MRS %0, primask" : "=r" (result) );
    4524:	f3ef 8210 	mrs	r2, PRIMASK
    4528:	4253      	negs	r3, r2
    452a:	4153      	adcs	r3, r2
    452c:	72c3      	strb	r3, [r0, #11]
  __ASM volatile ("cpsid i" : : : "memory");
    452e:	b672      	cpsid	i
    4530:	9900      	ldr	r1, [sp, #0]
    4532:	9a01      	ldr	r2, [sp, #4]
    4534:	f7ff ffab 	bl	448e <_ZN8SPIClass6configE11SPISettings>
    4538:	bd07      	pop	{r0, r1, r2, pc}
    453a:	07db      	lsls	r3, r3, #31
    453c:	d5f8      	bpl.n	4530 <_ZN8SPIClass16beginTransactionE11SPISettings+0x1c>
    453e:	8983      	ldrh	r3, [r0, #12]
    4540:	4a01      	ldr	r2, [pc, #4]	; (4548 <_ZN8SPIClass16beginTransactionE11SPISettings+0x34>)
    4542:	6093      	str	r3, [r2, #8]
    4544:	e7f4      	b.n	4530 <_ZN8SPIClass16beginTransactionE11SPISettings+0x1c>
    4546:	46c0      	nop			; (mov r8, r8)
    4548:	40001800 	.word	0x40001800

0000454c <_ZN8SPIClass14endTransactionEv>:
    454c:	7a83      	ldrb	r3, [r0, #10]
    454e:	2b00      	cmp	r3, #0
    4550:	d005      	beq.n	455e <_ZN8SPIClass14endTransactionEv+0x12>
    4552:	079a      	lsls	r2, r3, #30
    4554:	d504      	bpl.n	4560 <_ZN8SPIClass14endTransactionEv+0x14>
    4556:	7ac3      	ldrb	r3, [r0, #11]
    4558:	2b00      	cmp	r3, #0
    455a:	d000      	beq.n	455e <_ZN8SPIClass14endTransactionEv+0x12>
  __ASM volatile ("cpsie i" : : : "memory");
    455c:	b662      	cpsie	i
    455e:	4770      	bx	lr
    4560:	07db      	lsls	r3, r3, #31
    4562:	d5fc      	bpl.n	455e <_ZN8SPIClass14endTransactionEv+0x12>
    4564:	68c3      	ldr	r3, [r0, #12]
    4566:	4a02      	ldr	r2, [pc, #8]	; (4570 <_ZN8SPIClass14endTransactionEv+0x24>)
    4568:	b29b      	uxth	r3, r3
    456a:	60d3      	str	r3, [r2, #12]
    456c:	e7f7      	b.n	455e <_ZN8SPIClass14endTransactionEv+0x12>
    456e:	46c0      	nop			; (mov r8, r8)
    4570:	40001800 	.word	0x40001800

00004574 <_ZN8SPIClass8transferEh>:
    4574:	b510      	push	{r4, lr}
    4576:	6800      	ldr	r0, [r0, #0]
    4578:	f000 feec 	bl	5354 <_ZN6SERCOM15transferDataSPIEh>
    457c:	bd10      	pop	{r4, pc}
	...

00004580 <_GLOBAL__sub_I__ZN8SPIClassC2EP6SERCOMhhh14SercomSpiTXPad11SercomRXPad>:
    4580:	4b09      	ldr	r3, [pc, #36]	; (45a8 <_GLOBAL__sub_I__ZN8SPIClassC2EP6SERCOMhhh14SercomSpiTXPad11SercomRXPad+0x28>)
    4582:	4a0a      	ldr	r2, [pc, #40]	; (45ac <_GLOBAL__sub_I__ZN8SPIClassC2EP6SERCOMhhh14SercomSpiTXPad11SercomRXPad+0x2c>)
    4584:	490a      	ldr	r1, [pc, #40]	; (45b0 <_GLOBAL__sub_I__ZN8SPIClassC2EP6SERCOMhhh14SercomSpiTXPad11SercomRXPad+0x30>)
    4586:	601a      	str	r2, [r3, #0]
    4588:	2200      	movs	r2, #0
    458a:	715a      	strb	r2, [r3, #5]
    458c:	711a      	strb	r2, [r3, #4]
    458e:	4b09      	ldr	r3, [pc, #36]	; (45b4 <_GLOBAL__sub_I__ZN8SPIClassC2EP6SERCOMhhh14SercomSpiTXPad11SercomRXPad+0x34>)
    4590:	6019      	str	r1, [r3, #0]
    4592:	2112      	movs	r1, #18
    4594:	7119      	strb	r1, [r3, #4]
    4596:	3102      	adds	r1, #2
    4598:	7199      	strb	r1, [r3, #6]
    459a:	3101      	adds	r1, #1
    459c:	7159      	strb	r1, [r3, #5]
    459e:	3914      	subs	r1, #20
    45a0:	725a      	strb	r2, [r3, #9]
    45a2:	71d9      	strb	r1, [r3, #7]
    45a4:	721a      	strb	r2, [r3, #8]
    45a6:	4770      	bx	lr
    45a8:	20000a14 	.word	0x20000a14
    45ac:	003d0900 	.word	0x003d0900
    45b0:	20000dd8 	.word	0x20000dd8
    45b4:	20000a04 	.word	0x20000a04

000045b8 <_ZN7TwoWire5writeEPKhj>:
    45b8:	b5f8      	push	{r3, r4, r5, r6, r7, lr}
    45ba:	0005      	movs	r5, r0
    45bc:	000e      	movs	r6, r1
    45be:	0017      	movs	r7, r2
    45c0:	2400      	movs	r4, #0
    45c2:	42bc      	cmp	r4, r7
    45c4:	d008      	beq.n	45d8 <_ZN7TwoWire5writeEPKhj+0x20>
    45c6:	682b      	ldr	r3, [r5, #0]
    45c8:	5d31      	ldrb	r1, [r6, r4]
    45ca:	681b      	ldr	r3, [r3, #0]
    45cc:	0028      	movs	r0, r5
    45ce:	4798      	blx	r3
    45d0:	2800      	cmp	r0, #0
    45d2:	d001      	beq.n	45d8 <_ZN7TwoWire5writeEPKhj+0x20>
    45d4:	3401      	adds	r4, #1
    45d6:	e7f4      	b.n	45c2 <_ZN7TwoWire5writeEPKhj+0xa>
    45d8:	0020      	movs	r0, r4
    45da:	bdf8      	pop	{r3, r4, r5, r6, r7, pc}

000045dc <_ZN7TwoWire5flushEv>:
    45dc:	4770      	bx	lr

000045de <_ZN7TwoWire4peekEv>:
    45de:	0003      	movs	r3, r0
    45e0:	33fc      	adds	r3, #252	; 0xfc
    45e2:	6a19      	ldr	r1, [r3, #32]
    45e4:	69da      	ldr	r2, [r3, #28]
    45e6:	4291      	cmp	r1, r2
    45e8:	d003      	beq.n	45f2 <_ZN7TwoWire4peekEv+0x14>
    45ea:	6a1b      	ldr	r3, [r3, #32]
    45ec:	18c0      	adds	r0, r0, r3
    45ee:	7e00      	ldrb	r0, [r0, #24]
    45f0:	4770      	bx	lr
    45f2:	2001      	movs	r0, #1
    45f4:	4240      	negs	r0, r0
    45f6:	e7fb      	b.n	45f0 <_ZN7TwoWire4peekEv+0x12>

000045f8 <_ZN7TwoWire9availableEv>:
    45f8:	0003      	movs	r3, r0
    45fa:	33fc      	adds	r3, #252	; 0xfc
    45fc:	69d8      	ldr	r0, [r3, #28]
    45fe:	6a1b      	ldr	r3, [r3, #32]
    4600:	1ac0      	subs	r0, r0, r3
    4602:	d501      	bpl.n	4608 <_ZN7TwoWire9availableEv+0x10>
    4604:	3001      	adds	r0, #1
    4606:	30ff      	adds	r0, #255	; 0xff
    4608:	4770      	bx	lr
	...

0000460c <_ZN7TwoWireC1EP6SERCOMhh>:
    460c:	b5f7      	push	{r0, r1, r2, r4, r5, r6, r7, lr}
    460e:	9301      	str	r3, [sp, #4]
    4610:	23fa      	movs	r3, #250	; 0xfa
    4612:	2680      	movs	r6, #128	; 0x80
    4614:	2500      	movs	r5, #0
    4616:	0004      	movs	r4, r0
    4618:	009b      	lsls	r3, r3, #2
    461a:	6083      	str	r3, [r0, #8]
    461c:	4b12      	ldr	r3, [pc, #72]	; (4668 <_ZN7TwoWireC1EP6SERCOMhh+0x5c>)
    461e:	0076      	lsls	r6, r6, #1
    4620:	3308      	adds	r3, #8
    4622:	000f      	movs	r7, r1
    4624:	6045      	str	r5, [r0, #4]
    4626:	0029      	movs	r1, r5
    4628:	9200      	str	r2, [sp, #0]
    462a:	6003      	str	r3, [r0, #0]
    462c:	0032      	movs	r2, r6
    462e:	3018      	adds	r0, #24
    4630:	f001 fb06 	bl	5c40 <memset>
    4634:	0023      	movs	r3, r4
    4636:	0020      	movs	r0, r4
    4638:	33fc      	adds	r3, #252	; 0xfc
    463a:	3021      	adds	r0, #33	; 0x21
    463c:	61dd      	str	r5, [r3, #28]
    463e:	0032      	movs	r2, r6
    4640:	621d      	str	r5, [r3, #32]
    4642:	0029      	movs	r1, r5
    4644:	30ff      	adds	r0, #255	; 0xff
    4646:	f001 fafb 	bl	5c40 <memset>
    464a:	2387      	movs	r3, #135	; 0x87
    464c:	009b      	lsls	r3, r3, #2
    464e:	18e3      	adds	r3, r4, r3
    4650:	605d      	str	r5, [r3, #4]
    4652:	609d      	str	r5, [r3, #8]
    4654:	466b      	mov	r3, sp
    4656:	781b      	ldrb	r3, [r3, #0]
    4658:	6127      	str	r7, [r4, #16]
    465a:	7523      	strb	r3, [r4, #20]
    465c:	466b      	mov	r3, sp
    465e:	791b      	ldrb	r3, [r3, #4]
    4660:	75a5      	strb	r5, [r4, #22]
    4662:	0020      	movs	r0, r4
    4664:	7563      	strb	r3, [r4, #21]
    4666:	bdfe      	pop	{r1, r2, r3, r4, r5, r6, r7, pc}
    4668:	0000615c 	.word	0x0000615c

0000466c <_ZN7TwoWire5beginEv>:
    466c:	b570      	push	{r4, r5, r6, lr}
    466e:	0006      	movs	r6, r0
    4670:	2518      	movs	r5, #24
    4672:	490c      	ldr	r1, [pc, #48]	; (46a4 <_ZN7TwoWire5beginEv+0x38>)
    4674:	6900      	ldr	r0, [r0, #16]
    4676:	f000 ffed 	bl	5654 <_ZN6SERCOM14initMasterWIREEm>
    467a:	6930      	ldr	r0, [r6, #16]
    467c:	f000 fe82 	bl	5384 <_ZN6SERCOM10enableWIREEv>
    4680:	002b      	movs	r3, r5
    4682:	2108      	movs	r1, #8
    4684:	7d30      	ldrb	r0, [r6, #20]
    4686:	4c08      	ldr	r4, [pc, #32]	; (46a8 <_ZN7TwoWire5beginEv+0x3c>)
    4688:	4343      	muls	r3, r0
    468a:	18e3      	adds	r3, r4, r3
    468c:	5659      	ldrsb	r1, [r3, r1]
    468e:	f7fd fe9b 	bl	23c8 <pinPeripheral>
    4692:	2108      	movs	r1, #8
    4694:	7d70      	ldrb	r0, [r6, #21]
    4696:	4345      	muls	r5, r0
    4698:	1964      	adds	r4, r4, r5
    469a:	5661      	ldrsb	r1, [r4, r1]
    469c:	f7fd fe94 	bl	23c8 <pinPeripheral>
    46a0:	bd70      	pop	{r4, r5, r6, pc}
    46a2:	46c0      	nop			; (mov r8, r8)
    46a4:	000186a0 	.word	0x000186a0
    46a8:	00006180 	.word	0x00006180

000046ac <_ZN7TwoWire17beginTransmissionEh>:
    46ac:	238a      	movs	r3, #138	; 0x8a
    46ae:	2200      	movs	r2, #0
    46b0:	009b      	lsls	r3, r3, #2
    46b2:	54c1      	strb	r1, [r0, r3]
    46b4:	3b0c      	subs	r3, #12
    46b6:	18c3      	adds	r3, r0, r3
    46b8:	605a      	str	r2, [r3, #4]
    46ba:	609a      	str	r2, [r3, #8]
    46bc:	2301      	movs	r3, #1
    46be:	7583      	strb	r3, [r0, #22]
    46c0:	4770      	bx	lr

000046c2 <_ZN11RingBufferNILi256EE10store_charEh>:
    46c2:	0002      	movs	r2, r0
    46c4:	32fc      	adds	r2, #252	; 0xfc
    46c6:	6853      	ldr	r3, [r2, #4]
    46c8:	b510      	push	{r4, lr}
    46ca:	3301      	adds	r3, #1
    46cc:	6894      	ldr	r4, [r2, #8]
    46ce:	b2db      	uxtb	r3, r3
    46d0:	429c      	cmp	r4, r3
    46d2:	d002      	beq.n	46da <_ZN11RingBufferNILi256EE10store_charEh+0x18>
    46d4:	6854      	ldr	r4, [r2, #4]
    46d6:	5501      	strb	r1, [r0, r4]
    46d8:	6053      	str	r3, [r2, #4]
    46da:	bd10      	pop	{r4, pc}

000046dc <_ZN7TwoWire11requestFromEhjb>:
    46dc:	b5f7      	push	{r0, r1, r2, r4, r5, r6, r7, lr}
    46de:	2500      	movs	r5, #0
    46e0:	0004      	movs	r4, r0
    46e2:	0017      	movs	r7, r2
    46e4:	9301      	str	r3, [sp, #4]
    46e6:	0028      	movs	r0, r5
    46e8:	42aa      	cmp	r2, r5
    46ea:	d027      	beq.n	473c <_ZN7TwoWire11requestFromEhjb+0x60>
    46ec:	0023      	movs	r3, r4
    46ee:	33fc      	adds	r3, #252	; 0xfc
    46f0:	61dd      	str	r5, [r3, #28]
    46f2:	2201      	movs	r2, #1
    46f4:	621d      	str	r5, [r3, #32]
    46f6:	6920      	ldr	r0, [r4, #16]
    46f8:	f000 fe86 	bl	5408 <_ZN6SERCOM21startTransmissionWIREEh23SercomWireReadWriteFlag>
    46fc:	42a8      	cmp	r0, r5
    46fe:	d01c      	beq.n	473a <_ZN7TwoWire11requestFromEhjb+0x5e>
    4700:	0026      	movs	r6, r4
    4702:	3618      	adds	r6, #24
    4704:	6920      	ldr	r0, [r4, #16]
    4706:	f000 feed 	bl	54e4 <_ZN6SERCOM12readDataWIREEv>
    470a:	3501      	adds	r5, #1
    470c:	0001      	movs	r1, r0
    470e:	0030      	movs	r0, r6
    4710:	f7ff ffd7 	bl	46c2 <_ZN11RingBufferNILi256EE10store_charEh>
    4714:	6920      	ldr	r0, [r4, #16]
    4716:	42af      	cmp	r7, r5
    4718:	d006      	beq.n	4728 <_ZN7TwoWire11requestFromEhjb+0x4c>
    471a:	f000 fe4f 	bl	53bc <_ZN6SERCOM17prepareAckBitWIREEv>
    471e:	2102      	movs	r1, #2
    4720:	6920      	ldr	r0, [r4, #16]
    4722:	f000 fe55 	bl	53d0 <_ZN6SERCOM22prepareCommandBitsWireEh>
    4726:	e7ed      	b.n	4704 <_ZN7TwoWire11requestFromEhjb+0x28>
    4728:	f000 fe3f 	bl	53aa <_ZN6SERCOM18prepareNackBitWIREEv>
    472c:	9b01      	ldr	r3, [sp, #4]
    472e:	2b00      	cmp	r3, #0
    4730:	d003      	beq.n	473a <_ZN7TwoWire11requestFromEhjb+0x5e>
    4732:	2103      	movs	r1, #3
    4734:	6920      	ldr	r0, [r4, #16]
    4736:	f000 fe4b 	bl	53d0 <_ZN6SERCOM22prepareCommandBitsWireEh>
    473a:	b2e8      	uxtb	r0, r5
    473c:	bdfe      	pop	{r1, r2, r3, r4, r5, r6, r7, pc}

0000473e <_ZN7TwoWire11requestFromEhj>:
    473e:	b510      	push	{r4, lr}
    4740:	2301      	movs	r3, #1
    4742:	f7ff ffcb 	bl	46dc <_ZN7TwoWire11requestFromEhjb>
    4746:	bd10      	pop	{r4, pc}

00004748 <_ZN7TwoWire5writeEh>:
    4748:	2200      	movs	r2, #0
    474a:	b510      	push	{r4, lr}
    474c:	7d83      	ldrb	r3, [r0, #22]
    474e:	4293      	cmp	r3, r2
    4750:	d00d      	beq.n	476e <_ZN7TwoWire5writeEh+0x26>
    4752:	2387      	movs	r3, #135	; 0x87
    4754:	009b      	lsls	r3, r3, #2
    4756:	18c4      	adds	r4, r0, r3
    4758:	6863      	ldr	r3, [r4, #4]
    475a:	68a4      	ldr	r4, [r4, #8]
    475c:	3301      	adds	r3, #1
    475e:	b2db      	uxtb	r3, r3
    4760:	42a3      	cmp	r3, r4
    4762:	d004      	beq.n	476e <_ZN7TwoWire5writeEh+0x26>
    4764:	3021      	adds	r0, #33	; 0x21
    4766:	30ff      	adds	r0, #255	; 0xff
    4768:	f7ff ffab 	bl	46c2 <_ZN11RingBufferNILi256EE10store_charEh>
    476c:	2201      	movs	r2, #1
    476e:	0010      	movs	r0, r2
    4770:	bd10      	pop	{r4, pc}

00004772 <_ZN11RingBufferNILi256EE9read_charEv>:
    4772:	0003      	movs	r3, r0
    4774:	33fc      	adds	r3, #252	; 0xfc
    4776:	6899      	ldr	r1, [r3, #8]
    4778:	685a      	ldr	r2, [r3, #4]
    477a:	4291      	cmp	r1, r2
    477c:	d006      	beq.n	478c <_ZN11RingBufferNILi256EE9read_charEv+0x1a>
    477e:	689a      	ldr	r2, [r3, #8]
    4780:	5c80      	ldrb	r0, [r0, r2]
    4782:	689a      	ldr	r2, [r3, #8]
    4784:	3201      	adds	r2, #1
    4786:	b2d2      	uxtb	r2, r2
    4788:	609a      	str	r2, [r3, #8]
    478a:	4770      	bx	lr
    478c:	2001      	movs	r0, #1
    478e:	4240      	negs	r0, r0
    4790:	e7fb      	b.n	478a <_ZN11RingBufferNILi256EE9read_charEv+0x18>

00004792 <_ZN7TwoWire15endTransmissionEb>:
    4792:	2200      	movs	r2, #0
    4794:	238a      	movs	r3, #138	; 0x8a
    4796:	b570      	push	{r4, r5, r6, lr}
    4798:	009b      	lsls	r3, r3, #2
    479a:	7582      	strb	r2, [r0, #22]
    479c:	0005      	movs	r5, r0
    479e:	000e      	movs	r6, r1
    47a0:	5cc1      	ldrb	r1, [r0, r3]
    47a2:	6900      	ldr	r0, [r0, #16]
    47a4:	f000 fe30 	bl	5408 <_ZN6SERCOM21startTransmissionWIREEh23SercomWireReadWriteFlag>
    47a8:	2800      	cmp	r0, #0
    47aa:	d106      	bne.n	47ba <_ZN7TwoWire15endTransmissionEb+0x28>
    47ac:	2103      	movs	r1, #3
    47ae:	6928      	ldr	r0, [r5, #16]
    47b0:	f000 fe0e 	bl	53d0 <_ZN6SERCOM22prepareCommandBitsWireEh>
    47b4:	2402      	movs	r4, #2
    47b6:	0020      	movs	r0, r4
    47b8:	bd70      	pop	{r4, r5, r6, pc}
    47ba:	2387      	movs	r3, #135	; 0x87
    47bc:	0028      	movs	r0, r5
    47be:	009b      	lsls	r3, r3, #2
    47c0:	18ea      	adds	r2, r5, r3
    47c2:	6853      	ldr	r3, [r2, #4]
    47c4:	6894      	ldr	r4, [r2, #8]
    47c6:	3021      	adds	r0, #33	; 0x21
    47c8:	30ff      	adds	r0, #255	; 0xff
    47ca:	1b1c      	subs	r4, r3, r4
    47cc:	d501      	bpl.n	47d2 <_ZN7TwoWire15endTransmissionEb+0x40>
    47ce:	3401      	adds	r4, #1
    47d0:	34ff      	adds	r4, #255	; 0xff
    47d2:	2c00      	cmp	r4, #0
    47d4:	d00e      	beq.n	47f4 <_ZN7TwoWire15endTransmissionEb+0x62>
    47d6:	692c      	ldr	r4, [r5, #16]
    47d8:	f7ff ffcb 	bl	4772 <_ZN11RingBufferNILi256EE9read_charEv>
    47dc:	b2c1      	uxtb	r1, r0
    47de:	0020      	movs	r0, r4
    47e0:	f000 fe3e 	bl	5460 <_ZN6SERCOM18sendDataMasterWIREEh>
    47e4:	2800      	cmp	r0, #0
    47e6:	d1e8      	bne.n	47ba <_ZN7TwoWire15endTransmissionEb+0x28>
    47e8:	2103      	movs	r1, #3
    47ea:	6928      	ldr	r0, [r5, #16]
    47ec:	f000 fdf0 	bl	53d0 <_ZN6SERCOM22prepareCommandBitsWireEh>
    47f0:	2403      	movs	r4, #3
    47f2:	e7e0      	b.n	47b6 <_ZN7TwoWire15endTransmissionEb+0x24>
    47f4:	2e00      	cmp	r6, #0
    47f6:	d0de      	beq.n	47b6 <_ZN7TwoWire15endTransmissionEb+0x24>
    47f8:	2103      	movs	r1, #3
    47fa:	6928      	ldr	r0, [r5, #16]
    47fc:	f000 fde8 	bl	53d0 <_ZN6SERCOM22prepareCommandBitsWireEh>
    4800:	e7d9      	b.n	47b6 <_ZN7TwoWire15endTransmissionEb+0x24>

00004802 <_ZN7TwoWire15endTransmissionEv>:
    4802:	b510      	push	{r4, lr}
    4804:	2101      	movs	r1, #1
    4806:	f7ff ffc4 	bl	4792 <_ZN7TwoWire15endTransmissionEb>
    480a:	bd10      	pop	{r4, pc}

0000480c <_ZN7TwoWire4readEv>:
    480c:	b510      	push	{r4, lr}
    480e:	3018      	adds	r0, #24
    4810:	f7ff ffaf 	bl	4772 <_ZN11RingBufferNILi256EE9read_charEv>
    4814:	bd10      	pop	{r4, pc}

00004816 <_ZN7TwoWire9onServiceEv>:
    4816:	b570      	push	{r4, r5, r6, lr}
    4818:	0004      	movs	r4, r0
    481a:	6900      	ldr	r0, [r0, #16]
    481c:	f000 fe40 	bl	54a0 <_ZN6SERCOM11isSlaveWIREEv>
    4820:	2800      	cmp	r0, #0
    4822:	d028      	beq.n	4876 <_ZN7TwoWire9onServiceEv+0x60>
    4824:	6920      	ldr	r0, [r4, #16]
    4826:	f000 fe49 	bl	54bc <_ZN6SERCOM18isStopDetectedWIREEv>
    482a:	2800      	cmp	r0, #0
    482c:	d10e      	bne.n	484c <_ZN7TwoWire9onServiceEv+0x36>
    482e:	6920      	ldr	r0, [r4, #16]
    4830:	f000 fe4e 	bl	54d0 <_ZN6SERCOM14isAddressMatchEv>
    4834:	2800      	cmp	r0, #0
    4836:	d055      	beq.n	48e4 <_ZN7TwoWire9onServiceEv+0xce>
    4838:	6920      	ldr	r0, [r4, #16]
    483a:	f000 fe44 	bl	54c6 <_ZN6SERCOM21isRestartDetectedWIREEv>
    483e:	2800      	cmp	r0, #0
    4840:	d050      	beq.n	48e4 <_ZN7TwoWire9onServiceEv+0xce>
    4842:	6920      	ldr	r0, [r4, #16]
    4844:	f000 fe49 	bl	54da <_ZN6SERCOM25isMasterReadOperationWIREEv>
    4848:	2800      	cmp	r0, #0
    484a:	d14b      	bne.n	48e4 <_ZN7TwoWire9onServiceEv+0xce>
    484c:	6920      	ldr	r0, [r4, #16]
    484e:	f000 fdb5 	bl	53bc <_ZN6SERCOM17prepareAckBitWIREEv>
    4852:	2103      	movs	r1, #3
    4854:	6920      	ldr	r0, [r4, #16]
    4856:	f000 fdbb 	bl	53d0 <_ZN6SERCOM22prepareCommandBitsWireEh>
    485a:	238c      	movs	r3, #140	; 0x8c
    485c:	009b      	lsls	r3, r3, #2
    485e:	58e5      	ldr	r5, [r4, r3]
    4860:	2d00      	cmp	r5, #0
    4862:	d004      	beq.n	486e <_ZN7TwoWire9onServiceEv+0x58>
    4864:	6823      	ldr	r3, [r4, #0]
    4866:	0020      	movs	r0, r4
    4868:	691b      	ldr	r3, [r3, #16]
    486a:	4798      	blx	r3
    486c:	47a8      	blx	r5
    486e:	2300      	movs	r3, #0
    4870:	34fc      	adds	r4, #252	; 0xfc
    4872:	61e3      	str	r3, [r4, #28]
    4874:	6223      	str	r3, [r4, #32]
    4876:	bd70      	pop	{r4, r5, r6, pc}
    4878:	6920      	ldr	r0, [r4, #16]
    487a:	f000 fd9f 	bl	53bc <_ZN6SERCOM17prepareAckBitWIREEv>
    487e:	6920      	ldr	r0, [r4, #16]
    4880:	2103      	movs	r1, #3
    4882:	f000 fda5 	bl	53d0 <_ZN6SERCOM22prepareCommandBitsWireEh>
    4886:	6920      	ldr	r0, [r4, #16]
    4888:	f000 fe27 	bl	54da <_ZN6SERCOM25isMasterReadOperationWIREEv>
    488c:	2800      	cmp	r0, #0
    488e:	d0f2      	beq.n	4876 <_ZN7TwoWire9onServiceEv+0x60>
    4890:	2387      	movs	r3, #135	; 0x87
    4892:	2200      	movs	r2, #0
    4894:	009b      	lsls	r3, r3, #2
    4896:	18e3      	adds	r3, r4, r3
    4898:	605a      	str	r2, [r3, #4]
    489a:	609a      	str	r2, [r3, #8]
    489c:	2301      	movs	r3, #1
    489e:	75a3      	strb	r3, [r4, #22]
    48a0:	238b      	movs	r3, #139	; 0x8b
    48a2:	009b      	lsls	r3, r3, #2
    48a4:	58e3      	ldr	r3, [r4, r3]
    48a6:	4293      	cmp	r3, r2
    48a8:	d0e5      	beq.n	4876 <_ZN7TwoWire9onServiceEv+0x60>
    48aa:	4798      	blx	r3
    48ac:	e7e3      	b.n	4876 <_ZN7TwoWire9onServiceEv+0x60>
    48ae:	0022      	movs	r2, r4
    48b0:	32fc      	adds	r2, #252	; 0xfc
    48b2:	69d3      	ldr	r3, [r2, #28]
    48b4:	6a12      	ldr	r2, [r2, #32]
    48b6:	3301      	adds	r3, #1
    48b8:	b2db      	uxtb	r3, r3
    48ba:	6920      	ldr	r0, [r4, #16]
    48bc:	4293      	cmp	r3, r2
    48be:	d106      	bne.n	48ce <_ZN7TwoWire9onServiceEv+0xb8>
    48c0:	f000 fd73 	bl	53aa <_ZN6SERCOM18prepareNackBitWIREEv>
    48c4:	2103      	movs	r1, #3
    48c6:	6920      	ldr	r0, [r4, #16]
    48c8:	f000 fd82 	bl	53d0 <_ZN6SERCOM22prepareCommandBitsWireEh>
    48cc:	e7d3      	b.n	4876 <_ZN7TwoWire9onServiceEv+0x60>
    48ce:	f000 fe09 	bl	54e4 <_ZN6SERCOM12readDataWIREEv>
    48d2:	0001      	movs	r1, r0
    48d4:	0020      	movs	r0, r4
    48d6:	3018      	adds	r0, #24
    48d8:	f7ff fef3 	bl	46c2 <_ZN11RingBufferNILi256EE10store_charEh>
    48dc:	6920      	ldr	r0, [r4, #16]
    48de:	f000 fd6d 	bl	53bc <_ZN6SERCOM17prepareAckBitWIREEv>
    48e2:	e7ef      	b.n	48c4 <_ZN7TwoWire9onServiceEv+0xae>
    48e4:	6920      	ldr	r0, [r4, #16]
    48e6:	f000 fdf3 	bl	54d0 <_ZN6SERCOM14isAddressMatchEv>
    48ea:	2800      	cmp	r0, #0
    48ec:	d1c4      	bne.n	4878 <_ZN7TwoWire9onServiceEv+0x62>
    48ee:	6920      	ldr	r0, [r4, #16]
    48f0:	f000 fddf 	bl	54b2 <_ZN6SERCOM15isDataReadyWIREEv>
    48f4:	2800      	cmp	r0, #0
    48f6:	d0be      	beq.n	4876 <_ZN7TwoWire9onServiceEv+0x60>
    48f8:	6920      	ldr	r0, [r4, #16]
    48fa:	f000 fdee 	bl	54da <_ZN6SERCOM25isMasterReadOperationWIREEv>
    48fe:	2800      	cmp	r0, #0
    4900:	d0d5      	beq.n	48ae <_ZN7TwoWire9onServiceEv+0x98>
    4902:	2387      	movs	r3, #135	; 0x87
    4904:	009b      	lsls	r3, r3, #2
    4906:	18e2      	adds	r2, r4, r3
    4908:	6853      	ldr	r3, [r2, #4]
    490a:	6892      	ldr	r2, [r2, #8]
    490c:	1a9b      	subs	r3, r3, r2
    490e:	d501      	bpl.n	4914 <_ZN7TwoWire9onServiceEv+0xfe>
    4910:	3301      	adds	r3, #1
    4912:	33ff      	adds	r3, #255	; 0xff
    4914:	21ff      	movs	r1, #255	; 0xff
    4916:	2b00      	cmp	r3, #0
    4918:	d005      	beq.n	4926 <_ZN7TwoWire9onServiceEv+0x110>
    491a:	0020      	movs	r0, r4
    491c:	3021      	adds	r0, #33	; 0x21
    491e:	30ff      	adds	r0, #255	; 0xff
    4920:	f7ff ff27 	bl	4772 <_ZN11RingBufferNILi256EE9read_charEv>
    4924:	b2c1      	uxtb	r1, r0
    4926:	6920      	ldr	r0, [r4, #16]
    4928:	f000 fdac 	bl	5484 <_ZN6SERCOM17sendDataSlaveWIREEh>
    492c:	75a0      	strb	r0, [r4, #22]
    492e:	e7a2      	b.n	4876 <_ZN7TwoWire9onServiceEv+0x60>

00004930 <SERCOM3_Handler>:
    4930:	b510      	push	{r4, lr}
    4932:	4802      	ldr	r0, [pc, #8]	; (493c <SERCOM3_Handler+0xc>)
    4934:	f7ff ff6f 	bl	4816 <_ZN7TwoWire9onServiceEv>
    4938:	bd10      	pop	{r4, pc}
    493a:	46c0      	nop			; (mov r8, r8)
    493c:	20000a1c 	.word	0x20000a1c

00004940 <_GLOBAL__sub_I__ZN7TwoWireC2EP6SERCOMhh>:
    4940:	b510      	push	{r4, lr}
    4942:	2311      	movs	r3, #17
    4944:	2210      	movs	r2, #16
    4946:	4902      	ldr	r1, [pc, #8]	; (4950 <_GLOBAL__sub_I__ZN7TwoWireC2EP6SERCOMhh+0x10>)
    4948:	4802      	ldr	r0, [pc, #8]	; (4954 <_GLOBAL__sub_I__ZN7TwoWireC2EP6SERCOMhh+0x14>)
    494a:	f7ff fe5f 	bl	460c <_ZN7TwoWireC1EP6SERCOMhh>
    494e:	bd10      	pop	{r4, pc}
    4950:	20000dd4 	.word	0x20000dd4
    4954:	20000a1c 	.word	0x20000a1c

00004958 <SERCOM0_Handler>:
    4958:	b510      	push	{r4, lr}
    495a:	4802      	ldr	r0, [pc, #8]	; (4964 <SERCOM0_Handler+0xc>)
    495c:	f7fc fb8a 	bl	1074 <_ZN4Uart10IrqHandlerEv>
    4960:	bd10      	pop	{r4, pc}
    4962:	46c0      	nop			; (mov r8, r8)
    4964:	20000d0c 	.word	0x20000d0c

00004968 <SERCOM5_Handler>:
    4968:	b510      	push	{r4, lr}
    496a:	4802      	ldr	r0, [pc, #8]	; (4974 <SERCOM5_Handler+0xc>)
    496c:	f7fc fb82 	bl	1074 <_ZN4Uart10IrqHandlerEv>
    4970:	bd10      	pop	{r4, pc}
    4972:	46c0      	nop			; (mov r8, r8)
    4974:	20000c50 	.word	0x20000c50

00004978 <_GLOBAL__sub_I_g_APinDescription>:
    4978:	b5f7      	push	{r0, r1, r2, r4, r5, r6, r7, lr}
    497a:	2401      	movs	r4, #1
    497c:	2603      	movs	r6, #3
    497e:	4f15      	ldr	r7, [pc, #84]	; (49d4 <_GLOBAL__sub_I_g_APinDescription+0x5c>)
    4980:	4915      	ldr	r1, [pc, #84]	; (49d8 <_GLOBAL__sub_I_g_APinDescription+0x60>)
    4982:	0038      	movs	r0, r7
    4984:	f000 fc39 	bl	51fa <_ZN6SERCOMC1EP6Sercom>
    4988:	4914      	ldr	r1, [pc, #80]	; (49dc <_GLOBAL__sub_I_g_APinDescription+0x64>)
    498a:	4815      	ldr	r0, [pc, #84]	; (49e0 <_GLOBAL__sub_I_g_APinDescription+0x68>)
    498c:	f000 fc35 	bl	51fa <_ZN6SERCOMC1EP6Sercom>
    4990:	4914      	ldr	r1, [pc, #80]	; (49e4 <_GLOBAL__sub_I_g_APinDescription+0x6c>)
    4992:	4815      	ldr	r0, [pc, #84]	; (49e8 <_GLOBAL__sub_I_g_APinDescription+0x70>)
    4994:	f000 fc31 	bl	51fa <_ZN6SERCOMC1EP6Sercom>
    4998:	4914      	ldr	r1, [pc, #80]	; (49ec <_GLOBAL__sub_I_g_APinDescription+0x74>)
    499a:	4815      	ldr	r0, [pc, #84]	; (49f0 <_GLOBAL__sub_I_g_APinDescription+0x78>)
    499c:	f000 fc2d 	bl	51fa <_ZN6SERCOMC1EP6Sercom>
    49a0:	4914      	ldr	r1, [pc, #80]	; (49f4 <_GLOBAL__sub_I_g_APinDescription+0x7c>)
    49a2:	4815      	ldr	r0, [pc, #84]	; (49f8 <_GLOBAL__sub_I_g_APinDescription+0x80>)
    49a4:	f000 fc29 	bl	51fa <_ZN6SERCOMC1EP6Sercom>
    49a8:	4d14      	ldr	r5, [pc, #80]	; (49fc <_GLOBAL__sub_I_g_APinDescription+0x84>)
    49aa:	4915      	ldr	r1, [pc, #84]	; (4a00 <_GLOBAL__sub_I_g_APinDescription+0x88>)
    49ac:	0028      	movs	r0, r5
    49ae:	f000 fc24 	bl	51fa <_ZN6SERCOMC1EP6Sercom>
    49b2:	0039      	movs	r1, r7
    49b4:	9600      	str	r6, [sp, #0]
    49b6:	0023      	movs	r3, r4
    49b8:	9401      	str	r4, [sp, #4]
    49ba:	2200      	movs	r2, #0
    49bc:	4811      	ldr	r0, [pc, #68]	; (4a04 <_GLOBAL__sub_I_g_APinDescription+0x8c>)
    49be:	f7fc fb01 	bl	fc4 <_ZN4UartC1EP6SERCOMhh11SercomRXPad15SercomUartTXPad>
    49c2:	9600      	str	r6, [sp, #0]
    49c4:	0029      	movs	r1, r5
    49c6:	9401      	str	r4, [sp, #4]
    49c8:	2323      	movs	r3, #35	; 0x23
    49ca:	2224      	movs	r2, #36	; 0x24
    49cc:	480e      	ldr	r0, [pc, #56]	; (4a08 <_GLOBAL__sub_I_g_APinDescription+0x90>)
    49ce:	f7fc faf9 	bl	fc4 <_ZN4UartC1EP6SERCOMhh11SercomRXPad15SercomUartTXPad>
    49d2:	bdf7      	pop	{r0, r1, r2, r4, r5, r6, r7, pc}
    49d4:	20000dc8 	.word	0x20000dc8
    49d8:	42000800 	.word	0x42000800
    49dc:	42000c00 	.word	0x42000c00
    49e0:	20000dcc 	.word	0x20000dcc
    49e4:	42001000 	.word	0x42001000
    49e8:	20000dd0 	.word	0x20000dd0
    49ec:	42001400 	.word	0x42001400
    49f0:	20000dd4 	.word	0x20000dd4
    49f4:	42001800 	.word	0x42001800
    49f8:	20000dd8 	.word	0x20000dd8
    49fc:	20000ddc 	.word	0x20000ddc
    4a00:	42001c00 	.word	0x42001c00
    4a04:	20000d0c 	.word	0x20000d0c
    4a08:	20000c50 	.word	0x20000c50

00004a0c <_ZN12Adafruit_GFX9writeLineEsssst>:
    4a0c:	b5f0      	push	{r4, r5, r6, r7, lr}
    4a0e:	0015      	movs	r5, r2
    4a10:	000c      	movs	r4, r1
    4a12:	001e      	movs	r6, r3
    4a14:	b089      	sub	sp, #36	; 0x24
    4a16:	ab0e      	add	r3, sp, #56	; 0x38
    4a18:	2200      	movs	r2, #0
    4a1a:	5e9b      	ldrsh	r3, [r3, r2]
    4a1c:	aa0f      	add	r2, sp, #60	; 0x3c
    4a1e:	8812      	ldrh	r2, [r2, #0]
    4a20:	9001      	str	r0, [sp, #4]
    4a22:	9205      	str	r2, [sp, #20]
    4a24:	1b5a      	subs	r2, r3, r5
    4a26:	17d1      	asrs	r1, r2, #31
    4a28:	1852      	adds	r2, r2, r1
    4a2a:	404a      	eors	r2, r1
    4a2c:	9202      	str	r2, [sp, #8]
    4a2e:	1b32      	subs	r2, r6, r4
    4a30:	17d1      	asrs	r1, r2, #31
    4a32:	1852      	adds	r2, r2, r1
    4a34:	404a      	eors	r2, r1
    4a36:	9203      	str	r2, [sp, #12]
    4a38:	9903      	ldr	r1, [sp, #12]
    4a3a:	9a02      	ldr	r2, [sp, #8]
    4a3c:	428a      	cmp	r2, r1
    4a3e:	dd05      	ble.n	4a4c <_ZN12Adafruit_GFX9writeLineEsssst+0x40>
    4a40:	0032      	movs	r2, r6
    4a42:	001e      	movs	r6, r3
    4a44:	0013      	movs	r3, r2
    4a46:	0022      	movs	r2, r4
    4a48:	002c      	movs	r4, r5
    4a4a:	0015      	movs	r5, r2
    4a4c:	42b4      	cmp	r4, r6
    4a4e:	dd05      	ble.n	4a5c <_ZN12Adafruit_GFX9writeLineEsssst+0x50>
    4a50:	002a      	movs	r2, r5
    4a52:	001d      	movs	r5, r3
    4a54:	0013      	movs	r3, r2
    4a56:	0022      	movs	r2, r4
    4a58:	0034      	movs	r4, r6
    4a5a:	0016      	movs	r6, r2
    4a5c:	1b32      	subs	r2, r6, r4
    4a5e:	b292      	uxth	r2, r2
    4a60:	9204      	str	r2, [sp, #16]
    4a62:	1b5a      	subs	r2, r3, r5
    4a64:	17d1      	asrs	r1, r2, #31
    4a66:	1852      	adds	r2, r2, r1
    4a68:	404a      	eors	r2, r1
    4a6a:	9207      	str	r2, [sp, #28]
    4a6c:	466a      	mov	r2, sp
    4a6e:	2110      	movs	r1, #16
    4a70:	5e51      	ldrsh	r1, [r2, r1]
    4a72:	0fca      	lsrs	r2, r1, #31
    4a74:	1852      	adds	r2, r2, r1
    4a76:	1052      	asrs	r2, r2, #1
    4a78:	0fd9      	lsrs	r1, r3, #31
    4a7a:	9200      	str	r2, [sp, #0]
    4a7c:	17ea      	asrs	r2, r5, #31
    4a7e:	429d      	cmp	r5, r3
    4a80:	414a      	adcs	r2, r1
    4a82:	2301      	movs	r3, #1
    4a84:	4252      	negs	r2, r2
    4a86:	4313      	orrs	r3, r2
    4a88:	9306      	str	r3, [sp, #24]
    4a8a:	42b4      	cmp	r4, r6
    4a8c:	dc21      	bgt.n	4ad2 <_ZN12Adafruit_GFX9writeLineEsssst+0xc6>
    4a8e:	9b01      	ldr	r3, [sp, #4]
    4a90:	9a02      	ldr	r2, [sp, #8]
    4a92:	681b      	ldr	r3, [r3, #0]
    4a94:	9903      	ldr	r1, [sp, #12]
    4a96:	699b      	ldr	r3, [r3, #24]
    4a98:	001f      	movs	r7, r3
    4a9a:	9b05      	ldr	r3, [sp, #20]
    4a9c:	428a      	cmp	r2, r1
    4a9e:	dd15      	ble.n	4acc <_ZN12Adafruit_GFX9writeLineEsssst+0xc0>
    4aa0:	0022      	movs	r2, r4
    4aa2:	0029      	movs	r1, r5
    4aa4:	9801      	ldr	r0, [sp, #4]
    4aa6:	47b8      	blx	r7
    4aa8:	9a00      	ldr	r2, [sp, #0]
    4aaa:	9b07      	ldr	r3, [sp, #28]
    4aac:	1ad3      	subs	r3, r2, r3
    4aae:	b29b      	uxth	r3, r3
    4ab0:	b21a      	sxth	r2, r3
    4ab2:	9200      	str	r2, [sp, #0]
    4ab4:	2a00      	cmp	r2, #0
    4ab6:	da06      	bge.n	4ac6 <_ZN12Adafruit_GFX9writeLineEsssst+0xba>
    4ab8:	9a06      	ldr	r2, [sp, #24]
    4aba:	18ad      	adds	r5, r5, r2
    4abc:	9a04      	ldr	r2, [sp, #16]
    4abe:	b22d      	sxth	r5, r5
    4ac0:	18d3      	adds	r3, r2, r3
    4ac2:	b21b      	sxth	r3, r3
    4ac4:	9300      	str	r3, [sp, #0]
    4ac6:	3401      	adds	r4, #1
    4ac8:	b224      	sxth	r4, r4
    4aca:	e7de      	b.n	4a8a <_ZN12Adafruit_GFX9writeLineEsssst+0x7e>
    4acc:	002a      	movs	r2, r5
    4ace:	0021      	movs	r1, r4
    4ad0:	e7e8      	b.n	4aa4 <_ZN12Adafruit_GFX9writeLineEsssst+0x98>
    4ad2:	b009      	add	sp, #36	; 0x24
    4ad4:	bdf0      	pop	{r4, r5, r6, r7, pc}

00004ad6 <_ZN12Adafruit_GFX10writePixelEsst>:
    4ad6:	b510      	push	{r4, lr}
    4ad8:	6804      	ldr	r4, [r0, #0]
    4ada:	6924      	ldr	r4, [r4, #16]
    4adc:	47a0      	blx	r4
    4ade:	bd10      	pop	{r4, pc}

00004ae0 <_ZN12Adafruit_GFX14writeFastVLineEssst>:
    4ae0:	b537      	push	{r0, r1, r2, r4, r5, lr}
    4ae2:	ac06      	add	r4, sp, #24
    4ae4:	8825      	ldrh	r5, [r4, #0]
    4ae6:	6804      	ldr	r4, [r0, #0]
    4ae8:	9500      	str	r5, [sp, #0]
    4aea:	6ba4      	ldr	r4, [r4, #56]	; 0x38
    4aec:	47a0      	blx	r4
    4aee:	bd37      	pop	{r0, r1, r2, r4, r5, pc}

00004af0 <_ZN12Adafruit_GFX14writeFastHLineEssst>:
    4af0:	b537      	push	{r0, r1, r2, r4, r5, lr}
    4af2:	ac06      	add	r4, sp, #24
    4af4:	8825      	ldrh	r5, [r4, #0]
    4af6:	6804      	ldr	r4, [r0, #0]
    4af8:	9500      	str	r5, [sp, #0]
    4afa:	6be4      	ldr	r4, [r4, #60]	; 0x3c
    4afc:	47a0      	blx	r4
    4afe:	bd37      	pop	{r0, r1, r2, r4, r5, pc}

00004b00 <_ZN12Adafruit_GFX13writeFillRectEsssst>:
    4b00:	b573      	push	{r0, r1, r4, r5, r6, lr}
    4b02:	ac06      	add	r4, sp, #24
    4b04:	2500      	movs	r5, #0
    4b06:	5f65      	ldrsh	r5, [r4, r5]
    4b08:	ac07      	add	r4, sp, #28
    4b0a:	8826      	ldrh	r6, [r4, #0]
    4b0c:	6804      	ldr	r4, [r0, #0]
    4b0e:	9601      	str	r6, [sp, #4]
    4b10:	9500      	str	r5, [sp, #0]
    4b12:	6c24      	ldr	r4, [r4, #64]	; 0x40
    4b14:	47a0      	blx	r4
    4b16:	bd73      	pop	{r0, r1, r4, r5, r6, pc}

00004b18 <_ZN12Adafruit_GFX10startWriteEv>:
    4b18:	4770      	bx	lr

00004b1a <_ZN12Adafruit_GFX13drawFastVLineEssst>:
    4b1a:	b5f0      	push	{r4, r5, r6, r7, lr}
    4b1c:	0016      	movs	r6, r2
    4b1e:	0004      	movs	r4, r0
    4b20:	000d      	movs	r5, r1
    4b22:	b085      	sub	sp, #20
    4b24:	9303      	str	r3, [sp, #12]
    4b26:	ab0a      	add	r3, sp, #40	; 0x28
    4b28:	881f      	ldrh	r7, [r3, #0]
    4b2a:	6803      	ldr	r3, [r0, #0]
    4b2c:	695b      	ldr	r3, [r3, #20]
    4b2e:	4798      	blx	r3
    4b30:	9b03      	ldr	r3, [sp, #12]
    4b32:	6822      	ldr	r2, [r4, #0]
    4b34:	3b01      	subs	r3, #1
    4b36:	199b      	adds	r3, r3, r6
    4b38:	b21b      	sxth	r3, r3
    4b3a:	9300      	str	r3, [sp, #0]
    4b3c:	9701      	str	r7, [sp, #4]
    4b3e:	6a97      	ldr	r7, [r2, #40]	; 0x28
    4b40:	002b      	movs	r3, r5
    4b42:	0032      	movs	r2, r6
    4b44:	0029      	movs	r1, r5
    4b46:	0020      	movs	r0, r4
    4b48:	47b8      	blx	r7
    4b4a:	6823      	ldr	r3, [r4, #0]
    4b4c:	0020      	movs	r0, r4
    4b4e:	6adb      	ldr	r3, [r3, #44]	; 0x2c
    4b50:	4798      	blx	r3
    4b52:	b005      	add	sp, #20
    4b54:	bdf0      	pop	{r4, r5, r6, r7, pc}

00004b56 <_ZN12Adafruit_GFX13drawFastHLineEssst>:
    4b56:	b5f0      	push	{r4, r5, r6, r7, lr}
    4b58:	0005      	movs	r5, r0
    4b5a:	001c      	movs	r4, r3
    4b5c:	000e      	movs	r6, r1
    4b5e:	0017      	movs	r7, r2
    4b60:	b085      	sub	sp, #20
    4b62:	ab0a      	add	r3, sp, #40	; 0x28
    4b64:	881b      	ldrh	r3, [r3, #0]
    4b66:	3c01      	subs	r4, #1
    4b68:	9303      	str	r3, [sp, #12]
    4b6a:	6803      	ldr	r3, [r0, #0]
    4b6c:	19a4      	adds	r4, r4, r6
    4b6e:	695b      	ldr	r3, [r3, #20]
    4b70:	4798      	blx	r3
    4b72:	9903      	ldr	r1, [sp, #12]
    4b74:	682a      	ldr	r2, [r5, #0]
    4b76:	9101      	str	r1, [sp, #4]
    4b78:	9700      	str	r7, [sp, #0]
    4b7a:	b223      	sxth	r3, r4
    4b7c:	0031      	movs	r1, r6
    4b7e:	6a94      	ldr	r4, [r2, #40]	; 0x28
    4b80:	0028      	movs	r0, r5
    4b82:	003a      	movs	r2, r7
    4b84:	47a0      	blx	r4
    4b86:	682b      	ldr	r3, [r5, #0]
    4b88:	0028      	movs	r0, r5
    4b8a:	6adb      	ldr	r3, [r3, #44]	; 0x2c
    4b8c:	4798      	blx	r3
    4b8e:	b005      	add	sp, #20
    4b90:	bdf0      	pop	{r4, r5, r6, r7, pc}

00004b92 <_ZN12Adafruit_GFX8fillRectEsssst>:
    4b92:	b5f0      	push	{r4, r5, r6, r7, lr}
    4b94:	000e      	movs	r6, r1
    4b96:	b087      	sub	sp, #28
    4b98:	9303      	str	r3, [sp, #12]
    4b9a:	ab0c      	add	r3, sp, #48	; 0x30
    4b9c:	9202      	str	r2, [sp, #8]
    4b9e:	2200      	movs	r2, #0
    4ba0:	5e9b      	ldrsh	r3, [r3, r2]
    4ba2:	0005      	movs	r5, r0
    4ba4:	9304      	str	r3, [sp, #16]
    4ba6:	ab0d      	add	r3, sp, #52	; 0x34
    4ba8:	881b      	ldrh	r3, [r3, #0]
    4baa:	0034      	movs	r4, r6
    4bac:	9305      	str	r3, [sp, #20]
    4bae:	6803      	ldr	r3, [r0, #0]
    4bb0:	695b      	ldr	r3, [r3, #20]
    4bb2:	4798      	blx	r3
    4bb4:	9b03      	ldr	r3, [sp, #12]
    4bb6:	682a      	ldr	r2, [r5, #0]
    4bb8:	18f3      	adds	r3, r6, r3
    4bba:	429c      	cmp	r4, r3
    4bbc:	da0a      	bge.n	4bd4 <_ZN12Adafruit_GFX8fillRectEsssst+0x42>
    4bbe:	9b05      	ldr	r3, [sp, #20]
    4bc0:	0021      	movs	r1, r4
    4bc2:	9300      	str	r3, [sp, #0]
    4bc4:	6a17      	ldr	r7, [r2, #32]
    4bc6:	9b04      	ldr	r3, [sp, #16]
    4bc8:	9a02      	ldr	r2, [sp, #8]
    4bca:	0028      	movs	r0, r5
    4bcc:	3401      	adds	r4, #1
    4bce:	47b8      	blx	r7
    4bd0:	b224      	sxth	r4, r4
    4bd2:	e7ef      	b.n	4bb4 <_ZN12Adafruit_GFX8fillRectEsssst+0x22>
    4bd4:	6ad3      	ldr	r3, [r2, #44]	; 0x2c
    4bd6:	0028      	movs	r0, r5
    4bd8:	4798      	blx	r3
    4bda:	b007      	add	sp, #28
    4bdc:	bdf0      	pop	{r4, r5, r6, r7, pc}

00004bde <_ZN12Adafruit_GFX10fillScreenEt>:
    4bde:	b513      	push	{r0, r1, r4, lr}
    4be0:	9101      	str	r1, [sp, #4]
    4be2:	240e      	movs	r4, #14
    4be4:	5f01      	ldrsh	r1, [r0, r4]
    4be6:	220c      	movs	r2, #12
    4be8:	5e83      	ldrsh	r3, [r0, r2]
    4bea:	6802      	ldr	r2, [r0, #0]
    4bec:	9100      	str	r1, [sp, #0]
    4bee:	6c14      	ldr	r4, [r2, #64]	; 0x40
    4bf0:	2200      	movs	r2, #0
    4bf2:	0011      	movs	r1, r2
    4bf4:	47a0      	blx	r4
    4bf6:	bd13      	pop	{r0, r1, r4, pc}

00004bf8 <_ZN12Adafruit_GFX8drawLineEsssst>:
    4bf8:	b5f0      	push	{r4, r5, r6, r7, lr}
    4bfa:	b085      	sub	sp, #20
    4bfc:	9302      	str	r3, [sp, #8]
    4bfe:	ab0a      	add	r3, sp, #40	; 0x28
    4c00:	2400      	movs	r4, #0
    4c02:	5f1c      	ldrsh	r4, [r3, r4]
    4c04:	ab0b      	add	r3, sp, #44	; 0x2c
    4c06:	881b      	ldrh	r3, [r3, #0]
    4c08:	0017      	movs	r7, r2
    4c0a:	9303      	str	r3, [sp, #12]
    4c0c:	9b02      	ldr	r3, [sp, #8]
    4c0e:	0005      	movs	r5, r0
    4c10:	000e      	movs	r6, r1
    4c12:	6802      	ldr	r2, [r0, #0]
    4c14:	4299      	cmp	r1, r3
    4c16:	d110      	bne.n	4c3a <_ZN12Adafruit_GFX8drawLineEsssst+0x42>
    4c18:	42a7      	cmp	r7, r4
    4c1a:	dd02      	ble.n	4c22 <_ZN12Adafruit_GFX8drawLineEsssst+0x2a>
    4c1c:	003b      	movs	r3, r7
    4c1e:	0027      	movs	r7, r4
    4c20:	001c      	movs	r4, r3
    4c22:	9903      	ldr	r1, [sp, #12]
    4c24:	3401      	adds	r4, #1
    4c26:	9100      	str	r1, [sp, #0]
    4c28:	1be3      	subs	r3, r4, r7
    4c2a:	6b94      	ldr	r4, [r2, #56]	; 0x38
    4c2c:	b21b      	sxth	r3, r3
    4c2e:	003a      	movs	r2, r7
    4c30:	0031      	movs	r1, r6
    4c32:	0028      	movs	r0, r5
    4c34:	47a0      	blx	r4
    4c36:	b005      	add	sp, #20
    4c38:	bdf0      	pop	{r4, r5, r6, r7, pc}
    4c3a:	42a7      	cmp	r7, r4
    4c3c:	d10c      	bne.n	4c58 <_ZN12Adafruit_GFX8drawLineEsssst+0x60>
    4c3e:	9b02      	ldr	r3, [sp, #8]
    4c40:	4299      	cmp	r1, r3
    4c42:	dd01      	ble.n	4c48 <_ZN12Adafruit_GFX8drawLineEsssst+0x50>
    4c44:	9e02      	ldr	r6, [sp, #8]
    4c46:	9102      	str	r1, [sp, #8]
    4c48:	9b02      	ldr	r3, [sp, #8]
    4c4a:	9903      	ldr	r1, [sp, #12]
    4c4c:	3301      	adds	r3, #1
    4c4e:	1b9b      	subs	r3, r3, r6
    4c50:	9100      	str	r1, [sp, #0]
    4c52:	b21b      	sxth	r3, r3
    4c54:	6bd4      	ldr	r4, [r2, #60]	; 0x3c
    4c56:	e7ea      	b.n	4c2e <_ZN12Adafruit_GFX8drawLineEsssst+0x36>
    4c58:	6953      	ldr	r3, [r2, #20]
    4c5a:	4798      	blx	r3
    4c5c:	9a03      	ldr	r2, [sp, #12]
    4c5e:	682b      	ldr	r3, [r5, #0]
    4c60:	9201      	str	r2, [sp, #4]
    4c62:	9400      	str	r4, [sp, #0]
    4c64:	6a9c      	ldr	r4, [r3, #40]	; 0x28
    4c66:	0028      	movs	r0, r5
    4c68:	9b02      	ldr	r3, [sp, #8]
    4c6a:	003a      	movs	r2, r7
    4c6c:	0031      	movs	r1, r6
    4c6e:	47a0      	blx	r4
    4c70:	682b      	ldr	r3, [r5, #0]
    4c72:	0028      	movs	r0, r5
    4c74:	6adb      	ldr	r3, [r3, #44]	; 0x2c
    4c76:	4798      	blx	r3
    4c78:	e7dd      	b.n	4c36 <_ZN12Adafruit_GFX8drawLineEsssst+0x3e>

00004c7a <_ZN12Adafruit_GFX8drawRectEsssst>:
    4c7a:	b5f0      	push	{r4, r5, r6, r7, lr}
    4c7c:	0004      	movs	r4, r0
    4c7e:	0015      	movs	r5, r2
    4c80:	000e      	movs	r6, r1
    4c82:	b087      	sub	sp, #28
    4c84:	9304      	str	r3, [sp, #16]
    4c86:	ab0c      	add	r3, sp, #48	; 0x30
    4c88:	2200      	movs	r2, #0
    4c8a:	5e9b      	ldrsh	r3, [r3, r2]
    4c8c:	9305      	str	r3, [sp, #20]
    4c8e:	ab0d      	add	r3, sp, #52	; 0x34
    4c90:	881b      	ldrh	r3, [r3, #0]
    4c92:	9303      	str	r3, [sp, #12]
    4c94:	6803      	ldr	r3, [r0, #0]
    4c96:	695b      	ldr	r3, [r3, #20]
    4c98:	4798      	blx	r3
    4c9a:	9a03      	ldr	r2, [sp, #12]
    4c9c:	6823      	ldr	r3, [r4, #0]
    4c9e:	9200      	str	r2, [sp, #0]
    4ca0:	6a5f      	ldr	r7, [r3, #36]	; 0x24
    4ca2:	002a      	movs	r2, r5
    4ca4:	9b04      	ldr	r3, [sp, #16]
    4ca6:	0031      	movs	r1, r6
    4ca8:	0020      	movs	r0, r4
    4caa:	47b8      	blx	r7
    4cac:	9b05      	ldr	r3, [sp, #20]
    4cae:	9903      	ldr	r1, [sp, #12]
    4cb0:	1e5a      	subs	r2, r3, #1
    4cb2:	6823      	ldr	r3, [r4, #0]
    4cb4:	9100      	str	r1, [sp, #0]
    4cb6:	1952      	adds	r2, r2, r5
    4cb8:	6a5f      	ldr	r7, [r3, #36]	; 0x24
    4cba:	0031      	movs	r1, r6
    4cbc:	9b04      	ldr	r3, [sp, #16]
    4cbe:	0020      	movs	r0, r4
    4cc0:	b212      	sxth	r2, r2
    4cc2:	47b8      	blx	r7
    4cc4:	9a03      	ldr	r2, [sp, #12]
    4cc6:	6823      	ldr	r3, [r4, #0]
    4cc8:	9200      	str	r2, [sp, #0]
    4cca:	6a1f      	ldr	r7, [r3, #32]
    4ccc:	002a      	movs	r2, r5
    4cce:	9b05      	ldr	r3, [sp, #20]
    4cd0:	0031      	movs	r1, r6
    4cd2:	0020      	movs	r0, r4
    4cd4:	47b8      	blx	r7
    4cd6:	9904      	ldr	r1, [sp, #16]
    4cd8:	9a03      	ldr	r2, [sp, #12]
    4cda:	6823      	ldr	r3, [r4, #0]
    4cdc:	3901      	subs	r1, #1
    4cde:	9200      	str	r2, [sp, #0]
    4ce0:	1989      	adds	r1, r1, r6
    4ce2:	b209      	sxth	r1, r1
    4ce4:	6a1f      	ldr	r7, [r3, #32]
    4ce6:	002a      	movs	r2, r5
    4ce8:	9b05      	ldr	r3, [sp, #20]
    4cea:	0020      	movs	r0, r4
    4cec:	47b8      	blx	r7
    4cee:	6823      	ldr	r3, [r4, #0]
    4cf0:	0020      	movs	r0, r4
    4cf2:	6adb      	ldr	r3, [r3, #44]	; 0x2c
    4cf4:	4798      	blx	r3
    4cf6:	b007      	add	sp, #28
    4cf8:	bdf0      	pop	{r4, r5, r6, r7, pc}

00004cfa <_ZN12Adafruit_GFX13invertDisplayEb>:
    4cfa:	4770      	bx	lr

00004cfc <_ZN12Adafruit_GFX11setRotationEh>:
    4cfc:	2303      	movs	r3, #3
    4cfe:	4019      	ands	r1, r3
    4d00:	7641      	strb	r1, [r0, #25]
    4d02:	8903      	ldrh	r3, [r0, #8]
    4d04:	8942      	ldrh	r2, [r0, #10]
    4d06:	2901      	cmp	r1, #1
    4d08:	d004      	beq.n	4d14 <_ZN12Adafruit_GFX11setRotationEh+0x18>
    4d0a:	2903      	cmp	r1, #3
    4d0c:	d002      	beq.n	4d14 <_ZN12Adafruit_GFX11setRotationEh+0x18>
    4d0e:	8183      	strh	r3, [r0, #12]
    4d10:	81c2      	strh	r2, [r0, #14]
    4d12:	4770      	bx	lr
    4d14:	8182      	strh	r2, [r0, #12]
    4d16:	81c3      	strh	r3, [r0, #14]
    4d18:	e7fb      	b.n	4d12 <_ZN12Adafruit_GFX11setRotationEh+0x16>
	...

00004d1c <_ZN12Adafruit_GFXC1Ess>:
    4d1c:	8101      	strh	r1, [r0, #8]
    4d1e:	8181      	strh	r1, [r0, #12]
    4d20:	2101      	movs	r1, #1
    4d22:	2300      	movs	r3, #0
    4d24:	8142      	strh	r2, [r0, #10]
    4d26:	81c2      	strh	r2, [r0, #14]
    4d28:	2201      	movs	r2, #1
    4d2a:	b510      	push	{r4, lr}
    4d2c:	4c07      	ldr	r4, [pc, #28]	; (4d4c <_ZN12Adafruit_GFXC1Ess+0x30>)
    4d2e:	4249      	negs	r1, r1
    4d30:	3408      	adds	r4, #8
    4d32:	6043      	str	r3, [r0, #4]
    4d34:	6004      	str	r4, [r0, #0]
    4d36:	7643      	strb	r3, [r0, #25]
    4d38:	8203      	strh	r3, [r0, #16]
    4d3a:	8243      	strh	r3, [r0, #18]
    4d3c:	7602      	strb	r2, [r0, #24]
    4d3e:	82c1      	strh	r1, [r0, #22]
    4d40:	8281      	strh	r1, [r0, #20]
    4d42:	7682      	strb	r2, [r0, #26]
    4d44:	76c3      	strb	r3, [r0, #27]
    4d46:	61c3      	str	r3, [r0, #28]
    4d48:	bd10      	pop	{r4, pc}
    4d4a:	46c0      	nop			; (mov r8, r8)
    4d4c:	00006b00 	.word	0x00006b00

00004d50 <_ZN12Adafruit_GFX8drawCharEsshtth>:
    4d50:	b5f0      	push	{r4, r5, r6, r7, lr}
    4d52:	b095      	sub	sp, #84	; 0x54
    4d54:	001d      	movs	r5, r3
    4d56:	ab1a      	add	r3, sp, #104	; 0x68
    4d58:	881b      	ldrh	r3, [r3, #0]
    4d5a:	0004      	movs	r4, r0
    4d5c:	9304      	str	r3, [sp, #16]
    4d5e:	ab1b      	add	r3, sp, #108	; 0x6c
    4d60:	881b      	ldrh	r3, [r3, #0]
    4d62:	9108      	str	r1, [sp, #32]
    4d64:	9305      	str	r3, [sp, #20]
    4d66:	ab1c      	add	r3, sp, #112	; 0x70
    4d68:	781f      	ldrb	r7, [r3, #0]
    4d6a:	69c3      	ldr	r3, [r0, #28]
    4d6c:	9203      	str	r2, [sp, #12]
    4d6e:	2b00      	cmp	r3, #0
    4d70:	d000      	beq.n	4d74 <_ZN12Adafruit_GFX8drawCharEsshtth+0x24>
    4d72:	e0bd      	b.n	4ef0 <_ZN12Adafruit_GFX8drawCharEsshtth+0x1a0>
    4d74:	220c      	movs	r2, #12
    4d76:	5e83      	ldrsh	r3, [r0, r2]
    4d78:	428b      	cmp	r3, r1
    4d7a:	dc00      	bgt.n	4d7e <_ZN12Adafruit_GFX8drawCharEsshtth+0x2e>
    4d7c:	e082      	b.n	4e84 <_ZN12Adafruit_GFX8drawCharEsshtth+0x134>
    4d7e:	220e      	movs	r2, #14
    4d80:	5e83      	ldrsh	r3, [r0, r2]
    4d82:	9a03      	ldr	r2, [sp, #12]
    4d84:	4293      	cmp	r3, r2
    4d86:	dc00      	bgt.n	4d8a <_ZN12Adafruit_GFX8drawCharEsshtth+0x3a>
    4d88:	e07c      	b.n	4e84 <_ZN12Adafruit_GFX8drawCharEsshtth+0x134>
    4d8a:	2306      	movs	r3, #6
    4d8c:	437b      	muls	r3, r7
    4d8e:	185b      	adds	r3, r3, r1
    4d90:	2b00      	cmp	r3, #0
    4d92:	dd77      	ble.n	4e84 <_ZN12Adafruit_GFX8drawCharEsshtth+0x134>
    4d94:	9a03      	ldr	r2, [sp, #12]
    4d96:	00fb      	lsls	r3, r7, #3
    4d98:	189b      	adds	r3, r3, r2
    4d9a:	2b00      	cmp	r3, #0
    4d9c:	dd72      	ble.n	4e84 <_ZN12Adafruit_GFX8drawCharEsshtth+0x134>
    4d9e:	7ec3      	ldrb	r3, [r0, #27]
    4da0:	2b00      	cmp	r3, #0
    4da2:	d103      	bne.n	4dac <_ZN12Adafruit_GFX8drawCharEsshtth+0x5c>
    4da4:	2daf      	cmp	r5, #175	; 0xaf
    4da6:	dd01      	ble.n	4dac <_ZN12Adafruit_GFX8drawCharEsshtth+0x5c>
    4da8:	3501      	adds	r5, #1
    4daa:	b2ed      	uxtb	r5, r5
    4dac:	6823      	ldr	r3, [r4, #0]
    4dae:	0020      	movs	r0, r4
    4db0:	695b      	ldr	r3, [r3, #20]
    4db2:	4798      	blx	r3
    4db4:	2305      	movs	r3, #5
    4db6:	435d      	muls	r5, r3
    4db8:	930e      	str	r3, [sp, #56]	; 0x38
    4dba:	2300      	movs	r3, #0
    4dbc:	930a      	str	r3, [sp, #40]	; 0x28
    4dbe:	4b8e      	ldr	r3, [pc, #568]	; (4ff8 <_ZN12Adafruit_GFX8drawCharEsshtth+0x2a8>)
    4dc0:	195b      	adds	r3, r3, r5
    4dc2:	9311      	str	r3, [sp, #68]	; 0x44
    4dc4:	9a0a      	ldr	r2, [sp, #40]	; 0x28
    4dc6:	9b11      	ldr	r3, [sp, #68]	; 0x44
    4dc8:	5c9b      	ldrb	r3, [r3, r2]
    4dca:	b2ba      	uxth	r2, r7
    4dcc:	930c      	str	r3, [sp, #48]	; 0x30
    4dce:	466b      	mov	r3, sp
    4dd0:	8d1b      	ldrh	r3, [r3, #40]	; 0x28
    4dd2:	930b      	str	r3, [sp, #44]	; 0x2c
    4dd4:	b2bb      	uxth	r3, r7
    4dd6:	9309      	str	r3, [sp, #36]	; 0x24
    4dd8:	466b      	mov	r3, sp
    4dda:	8c1b      	ldrh	r3, [r3, #32]
    4ddc:	9306      	str	r3, [sp, #24]
    4dde:	9b0b      	ldr	r3, [sp, #44]	; 0x2c
    4de0:	4353      	muls	r3, r2
    4de2:	9a06      	ldr	r2, [sp, #24]
    4de4:	18d3      	adds	r3, r2, r3
    4de6:	b21b      	sxth	r3, r3
    4de8:	930f      	str	r3, [sp, #60]	; 0x3c
    4dea:	466b      	mov	r3, sp
    4dec:	899d      	ldrh	r5, [r3, #12]
    4dee:	002b      	movs	r3, r5
    4df0:	3308      	adds	r3, #8
    4df2:	b29b      	uxth	r3, r3
    4df4:	9310      	str	r3, [sp, #64]	; 0x40
    4df6:	9507      	str	r5, [sp, #28]
    4df8:	950d      	str	r5, [sp, #52]	; 0x34
    4dfa:	2201      	movs	r2, #1
    4dfc:	9b0c      	ldr	r3, [sp, #48]	; 0x30
    4dfe:	4213      	tst	r3, r2
    4e00:	d04d      	beq.n	4e9e <_ZN12Adafruit_GFX8drawCharEsshtth+0x14e>
    4e02:	6820      	ldr	r0, [r4, #0]
    4e04:	4297      	cmp	r7, r2
    4e06:	d13f      	bne.n	4e88 <_ZN12Adafruit_GFX8drawCharEsshtth+0x138>
    4e08:	466b      	mov	r3, sp
    4e0a:	8b9b      	ldrh	r3, [r3, #28]
    4e0c:	9906      	ldr	r1, [sp, #24]
    4e0e:	b21a      	sxth	r2, r3
    4e10:	9b0b      	ldr	r3, [sp, #44]	; 0x2c
    4e12:	1859      	adds	r1, r3, r1
    4e14:	6983      	ldr	r3, [r0, #24]
    4e16:	b209      	sxth	r1, r1
    4e18:	001e      	movs	r6, r3
    4e1a:	9b04      	ldr	r3, [sp, #16]
    4e1c:	0020      	movs	r0, r4
    4e1e:	47b0      	blx	r6
    4e20:	9a09      	ldr	r2, [sp, #36]	; 0x24
    4e22:	9b0c      	ldr	r3, [sp, #48]	; 0x30
    4e24:	4694      	mov	ip, r2
    4e26:	085b      	lsrs	r3, r3, #1
    4e28:	930c      	str	r3, [sp, #48]	; 0x30
    4e2a:	9b09      	ldr	r3, [sp, #36]	; 0x24
    4e2c:	9e07      	ldr	r6, [sp, #28]
    4e2e:	195d      	adds	r5, r3, r5
    4e30:	9b0d      	ldr	r3, [sp, #52]	; 0x34
    4e32:	3601      	adds	r6, #1
    4e34:	4463      	add	r3, ip
    4e36:	b29b      	uxth	r3, r3
    4e38:	930d      	str	r3, [sp, #52]	; 0x34
    4e3a:	b2b3      	uxth	r3, r6
    4e3c:	9307      	str	r3, [sp, #28]
    4e3e:	9a07      	ldr	r2, [sp, #28]
    4e40:	9b10      	ldr	r3, [sp, #64]	; 0x40
    4e42:	b2ad      	uxth	r5, r5
    4e44:	4293      	cmp	r3, r2
    4e46:	d1d8      	bne.n	4dfa <_ZN12Adafruit_GFX8drawCharEsshtth+0xaa>
    4e48:	9b0a      	ldr	r3, [sp, #40]	; 0x28
    4e4a:	3301      	adds	r3, #1
    4e4c:	b25b      	sxtb	r3, r3
    4e4e:	930a      	str	r3, [sp, #40]	; 0x28
    4e50:	9b0e      	ldr	r3, [sp, #56]	; 0x38
    4e52:	3b01      	subs	r3, #1
    4e54:	b2db      	uxtb	r3, r3
    4e56:	930e      	str	r3, [sp, #56]	; 0x38
    4e58:	2b00      	cmp	r3, #0
    4e5a:	d1b3      	bne.n	4dc4 <_ZN12Adafruit_GFX8drawCharEsshtth+0x74>
    4e5c:	9b04      	ldr	r3, [sp, #16]
    4e5e:	9a05      	ldr	r2, [sp, #20]
    4e60:	4293      	cmp	r3, r2
    4e62:	d00b      	beq.n	4e7c <_ZN12Adafruit_GFX8drawCharEsshtth+0x12c>
    4e64:	6820      	ldr	r0, [r4, #0]
    4e66:	2f01      	cmp	r7, #1
    4e68:	d131      	bne.n	4ece <_ZN12Adafruit_GFX8drawCharEsshtth+0x17e>
    4e6a:	9906      	ldr	r1, [sp, #24]
    4e6c:	9200      	str	r2, [sp, #0]
    4e6e:	3105      	adds	r1, #5
    4e70:	6a05      	ldr	r5, [r0, #32]
    4e72:	b209      	sxth	r1, r1
    4e74:	2308      	movs	r3, #8
    4e76:	9a03      	ldr	r2, [sp, #12]
    4e78:	0020      	movs	r0, r4
    4e7a:	47a8      	blx	r5
    4e7c:	6823      	ldr	r3, [r4, #0]
    4e7e:	0020      	movs	r0, r4
    4e80:	6adb      	ldr	r3, [r3, #44]	; 0x2c
    4e82:	4798      	blx	r3
    4e84:	b015      	add	sp, #84	; 0x54
    4e86:	bdf0      	pop	{r4, r5, r6, r7, pc}
    4e88:	9904      	ldr	r1, [sp, #16]
    4e8a:	b23b      	sxth	r3, r7
    4e8c:	b22a      	sxth	r2, r5
    4e8e:	9101      	str	r1, [sp, #4]
    4e90:	9300      	str	r3, [sp, #0]
    4e92:	69c1      	ldr	r1, [r0, #28]
    4e94:	0020      	movs	r0, r4
    4e96:	000e      	movs	r6, r1
    4e98:	990f      	ldr	r1, [sp, #60]	; 0x3c
    4e9a:	47b0      	blx	r6
    4e9c:	e7c0      	b.n	4e20 <_ZN12Adafruit_GFX8drawCharEsshtth+0xd0>
    4e9e:	9b04      	ldr	r3, [sp, #16]
    4ea0:	9a05      	ldr	r2, [sp, #20]
    4ea2:	4293      	cmp	r3, r2
    4ea4:	d0bc      	beq.n	4e20 <_ZN12Adafruit_GFX8drawCharEsshtth+0xd0>
    4ea6:	6820      	ldr	r0, [r4, #0]
    4ea8:	2f01      	cmp	r7, #1
    4eaa:	d10a      	bne.n	4ec2 <_ZN12Adafruit_GFX8drawCharEsshtth+0x172>
    4eac:	466b      	mov	r3, sp
    4eae:	8b9b      	ldrh	r3, [r3, #28]
    4eb0:	9906      	ldr	r1, [sp, #24]
    4eb2:	b21a      	sxth	r2, r3
    4eb4:	9b0b      	ldr	r3, [sp, #44]	; 0x2c
    4eb6:	1859      	adds	r1, r3, r1
    4eb8:	6983      	ldr	r3, [r0, #24]
    4eba:	b209      	sxth	r1, r1
    4ebc:	001e      	movs	r6, r3
    4ebe:	9b05      	ldr	r3, [sp, #20]
    4ec0:	e7ac      	b.n	4e1c <_ZN12Adafruit_GFX8drawCharEsshtth+0xcc>
    4ec2:	466a      	mov	r2, sp
    4ec4:	b23b      	sxth	r3, r7
    4ec6:	2134      	movs	r1, #52	; 0x34
    4ec8:	5e52      	ldrsh	r2, [r2, r1]
    4eca:	9905      	ldr	r1, [sp, #20]
    4ecc:	e7df      	b.n	4e8e <_ZN12Adafruit_GFX8drawCharEsshtth+0x13e>
    4ece:	2105      	movs	r1, #5
    4ed0:	9a09      	ldr	r2, [sp, #36]	; 0x24
    4ed2:	b23b      	sxth	r3, r7
    4ed4:	4351      	muls	r1, r2
    4ed6:	9a06      	ldr	r2, [sp, #24]
    4ed8:	1851      	adds	r1, r2, r1
    4eda:	9a05      	ldr	r2, [sp, #20]
    4edc:	b209      	sxth	r1, r1
    4ede:	9201      	str	r2, [sp, #4]
    4ee0:	9a09      	ldr	r2, [sp, #36]	; 0x24
    4ee2:	00d2      	lsls	r2, r2, #3
    4ee4:	9200      	str	r2, [sp, #0]
    4ee6:	69c5      	ldr	r5, [r0, #28]
    4ee8:	9a03      	ldr	r2, [sp, #12]
    4eea:	0020      	movs	r0, r4
    4eec:	47a8      	blx	r5
    4eee:	e7c5      	b.n	4e7c <_ZN12Adafruit_GFX8drawCharEsshtth+0x12c>
    4ef0:	7a1a      	ldrb	r2, [r3, #8]
    4ef2:	1aad      	subs	r5, r5, r2
    4ef4:	b2ed      	uxtb	r5, r5
    4ef6:	685a      	ldr	r2, [r3, #4]
    4ef8:	00ed      	lsls	r5, r5, #3
    4efa:	681b      	ldr	r3, [r3, #0]
    4efc:	18ad      	adds	r5, r5, r2
    4efe:	930e      	str	r3, [sp, #56]	; 0x38
    4f00:	882b      	ldrh	r3, [r5, #0]
    4f02:	9307      	str	r3, [sp, #28]
    4f04:	78ab      	ldrb	r3, [r5, #2]
    4f06:	930f      	str	r3, [sp, #60]	; 0x3c
    4f08:	78eb      	ldrb	r3, [r5, #3]
    4f0a:	9310      	str	r3, [sp, #64]	; 0x40
    4f0c:	2305      	movs	r3, #5
    4f0e:	56eb      	ldrsb	r3, [r5, r3]
    4f10:	930b      	str	r3, [sp, #44]	; 0x2c
    4f12:	2306      	movs	r3, #6
    4f14:	56eb      	ldrsb	r3, [r5, r3]
    4f16:	930c      	str	r3, [sp, #48]	; 0x30
    4f18:	2f01      	cmp	r7, #1
    4f1a:	dd51      	ble.n	4fc0 <_ZN12Adafruit_GFX8drawCharEsshtth+0x270>
    4f1c:	466b      	mov	r3, sp
    4f1e:	222c      	movs	r2, #44	; 0x2c
    4f20:	5e9b      	ldrsh	r3, [r3, r2]
    4f22:	9309      	str	r3, [sp, #36]	; 0x24
    4f24:	466b      	mov	r3, sp
    4f26:	2230      	movs	r2, #48	; 0x30
    4f28:	5e9b      	ldrsh	r3, [r3, r2]
    4f2a:	930a      	str	r3, [sp, #40]	; 0x28
    4f2c:	2600      	movs	r6, #0
    4f2e:	6823      	ldr	r3, [r4, #0]
    4f30:	0020      	movs	r0, r4
    4f32:	695b      	ldr	r3, [r3, #20]
    4f34:	4798      	blx	r3
    4f36:	9606      	str	r6, [sp, #24]
    4f38:	9605      	str	r6, [sp, #20]
    4f3a:	9b10      	ldr	r3, [sp, #64]	; 0x40
    4f3c:	9a05      	ldr	r2, [sp, #20]
    4f3e:	429a      	cmp	r2, r3
    4f40:	da9c      	bge.n	4e7c <_ZN12Adafruit_GFX8drawCharEsshtth+0x12c>
    4f42:	b2bb      	uxth	r3, r7
    4f44:	9312      	str	r3, [sp, #72]	; 0x48
    4f46:	466b      	mov	r3, sp
    4f48:	899b      	ldrh	r3, [r3, #12]
    4f4a:	930d      	str	r3, [sp, #52]	; 0x34
    4f4c:	9b0a      	ldr	r3, [sp, #40]	; 0x28
    4f4e:	189b      	adds	r3, r3, r2
    4f50:	b2ba      	uxth	r2, r7
    4f52:	4353      	muls	r3, r2
    4f54:	9a0d      	ldr	r2, [sp, #52]	; 0x34
    4f56:	18d3      	adds	r3, r2, r3
    4f58:	b21b      	sxth	r3, r3
    4f5a:	9313      	str	r3, [sp, #76]	; 0x4c
    4f5c:	0033      	movs	r3, r6
    4f5e:	1b99      	subs	r1, r3, r6
    4f60:	9a0f      	ldr	r2, [sp, #60]	; 0x3c
    4f62:	b2c9      	uxtb	r1, r1
    4f64:	4291      	cmp	r1, r2
    4f66:	da41      	bge.n	4fec <_ZN12Adafruit_GFX8drawCharEsshtth+0x29c>
    4f68:	1c5a      	adds	r2, r3, #1
    4f6a:	b2d2      	uxtb	r2, r2
    4f6c:	9211      	str	r2, [sp, #68]	; 0x44
    4f6e:	2207      	movs	r2, #7
    4f70:	4213      	tst	r3, r2
    4f72:	d107      	bne.n	4f84 <_ZN12Adafruit_GFX8drawCharEsshtth+0x234>
    4f74:	9b07      	ldr	r3, [sp, #28]
    4f76:	9807      	ldr	r0, [sp, #28]
    4f78:	9a0e      	ldr	r2, [sp, #56]	; 0x38
    4f7a:	3301      	adds	r3, #1
    4f7c:	5c12      	ldrb	r2, [r2, r0]
    4f7e:	b29b      	uxth	r3, r3
    4f80:	9206      	str	r2, [sp, #24]
    4f82:	9307      	str	r3, [sp, #28]
    4f84:	466b      	mov	r3, sp
    4f86:	7e1b      	ldrb	r3, [r3, #24]
    4f88:	b25b      	sxtb	r3, r3
    4f8a:	2b00      	cmp	r3, #0
    4f8c:	da12      	bge.n	4fb4 <_ZN12Adafruit_GFX8drawCharEsshtth+0x264>
    4f8e:	2f01      	cmp	r7, #1
    4f90:	d11a      	bne.n	4fc8 <_ZN12Adafruit_GFX8drawCharEsshtth+0x278>
    4f92:	9b0d      	ldr	r3, [sp, #52]	; 0x34
    4f94:	9a0c      	ldr	r2, [sp, #48]	; 0x30
    4f96:	9808      	ldr	r0, [sp, #32]
    4f98:	189a      	adds	r2, r3, r2
    4f9a:	9b05      	ldr	r3, [sp, #20]
    4f9c:	18d2      	adds	r2, r2, r3
    4f9e:	9b0b      	ldr	r3, [sp, #44]	; 0x2c
    4fa0:	b212      	sxth	r2, r2
    4fa2:	181b      	adds	r3, r3, r0
    4fa4:	1859      	adds	r1, r3, r1
    4fa6:	6823      	ldr	r3, [r4, #0]
    4fa8:	b209      	sxth	r1, r1
    4faa:	699b      	ldr	r3, [r3, #24]
    4fac:	0020      	movs	r0, r4
    4fae:	001d      	movs	r5, r3
    4fb0:	9b04      	ldr	r3, [sp, #16]
    4fb2:	47a8      	blx	r5
    4fb4:	9b06      	ldr	r3, [sp, #24]
    4fb6:	005b      	lsls	r3, r3, #1
    4fb8:	b2db      	uxtb	r3, r3
    4fba:	9306      	str	r3, [sp, #24]
    4fbc:	9b11      	ldr	r3, [sp, #68]	; 0x44
    4fbe:	e7ce      	b.n	4f5e <_ZN12Adafruit_GFX8drawCharEsshtth+0x20e>
    4fc0:	2300      	movs	r3, #0
    4fc2:	930a      	str	r3, [sp, #40]	; 0x28
    4fc4:	9309      	str	r3, [sp, #36]	; 0x24
    4fc6:	e7b1      	b.n	4f2c <_ZN12Adafruit_GFX8drawCharEsshtth+0x1dc>
    4fc8:	9a09      	ldr	r2, [sp, #36]	; 0x24
    4fca:	9804      	ldr	r0, [sp, #16]
    4fcc:	1851      	adds	r1, r2, r1
    4fce:	9a12      	ldr	r2, [sp, #72]	; 0x48
    4fd0:	b23b      	sxth	r3, r7
    4fd2:	4351      	muls	r1, r2
    4fd4:	9a08      	ldr	r2, [sp, #32]
    4fd6:	9001      	str	r0, [sp, #4]
    4fd8:	1889      	adds	r1, r1, r2
    4fda:	6822      	ldr	r2, [r4, #0]
    4fdc:	9300      	str	r3, [sp, #0]
    4fde:	69d2      	ldr	r2, [r2, #28]
    4fe0:	b209      	sxth	r1, r1
    4fe2:	0015      	movs	r5, r2
    4fe4:	0020      	movs	r0, r4
    4fe6:	9a13      	ldr	r2, [sp, #76]	; 0x4c
    4fe8:	47a8      	blx	r5
    4fea:	e7e3      	b.n	4fb4 <_ZN12Adafruit_GFX8drawCharEsshtth+0x264>
    4fec:	9d05      	ldr	r5, [sp, #20]
    4fee:	001e      	movs	r6, r3
    4ff0:	3501      	adds	r5, #1
    4ff2:	b2ea      	uxtb	r2, r5
    4ff4:	9205      	str	r2, [sp, #20]
    4ff6:	e7a0      	b.n	4f3a <_ZN12Adafruit_GFX8drawCharEsshtth+0x1ea>
    4ff8:	00006600 	.word	0x00006600

00004ffc <_ZN12Adafruit_GFX5writeEh>:
    4ffc:	b5f0      	push	{r4, r5, r6, r7, lr}
    4ffe:	69c2      	ldr	r2, [r0, #28]
    5000:	b085      	sub	sp, #20
    5002:	0004      	movs	r4, r0
    5004:	000b      	movs	r3, r1
    5006:	2a00      	cmp	r2, #0
    5008:	d131      	bne.n	506e <_ZN12Adafruit_GFX5writeEh+0x72>
    500a:	290a      	cmp	r1, #10
    500c:	d108      	bne.n	5020 <_ZN12Adafruit_GFX5writeEh+0x24>
    500e:	7e03      	ldrb	r3, [r0, #24]
    5010:	8202      	strh	r2, [r0, #16]
    5012:	00db      	lsls	r3, r3, #3
    5014:	8a62      	ldrh	r2, [r4, #18]
    5016:	189b      	adds	r3, r3, r2
    5018:	8263      	strh	r3, [r4, #18]
    501a:	2001      	movs	r0, #1
    501c:	b005      	add	sp, #20
    501e:	bdf0      	pop	{r4, r5, r6, r7, pc}
    5020:	290d      	cmp	r1, #13
    5022:	d0fa      	beq.n	501a <_ZN12Adafruit_GFX5writeEh+0x1e>
    5024:	7e81      	ldrb	r1, [r0, #26]
    5026:	7e00      	ldrb	r0, [r0, #24]
    5028:	2900      	cmp	r1, #0
    502a:	d00d      	beq.n	5048 <_ZN12Adafruit_GFX5writeEh+0x4c>
    502c:	2510      	movs	r5, #16
    502e:	5f61      	ldrsh	r1, [r4, r5]
    5030:	2506      	movs	r5, #6
    5032:	4345      	muls	r5, r0
    5034:	1949      	adds	r1, r1, r5
    5036:	260c      	movs	r6, #12
    5038:	5fa5      	ldrsh	r5, [r4, r6]
    503a:	42a9      	cmp	r1, r5
    503c:	dd04      	ble.n	5048 <_ZN12Adafruit_GFX5writeEh+0x4c>
    503e:	8222      	strh	r2, [r4, #16]
    5040:	8a62      	ldrh	r2, [r4, #18]
    5042:	00c1      	lsls	r1, r0, #3
    5044:	1852      	adds	r2, r2, r1
    5046:	8262      	strh	r2, [r4, #18]
    5048:	9002      	str	r0, [sp, #8]
    504a:	8ae0      	ldrh	r0, [r4, #22]
    504c:	2112      	movs	r1, #18
    504e:	5e62      	ldrsh	r2, [r4, r1]
    5050:	9001      	str	r0, [sp, #4]
    5052:	8aa0      	ldrh	r0, [r4, #20]
    5054:	2510      	movs	r5, #16
    5056:	5f61      	ldrsh	r1, [r4, r5]
    5058:	9000      	str	r0, [sp, #0]
    505a:	0020      	movs	r0, r4
    505c:	f7ff fe78 	bl	4d50 <_ZN12Adafruit_GFX8drawCharEsshtth>
    5060:	2206      	movs	r2, #6
    5062:	7e23      	ldrb	r3, [r4, #24]
    5064:	4353      	muls	r3, r2
    5066:	8a22      	ldrh	r2, [r4, #16]
    5068:	189b      	adds	r3, r3, r2
    506a:	8223      	strh	r3, [r4, #16]
    506c:	e7d5      	b.n	501a <_ZN12Adafruit_GFX5writeEh+0x1e>
    506e:	290a      	cmp	r1, #10
    5070:	d105      	bne.n	507e <_ZN12Adafruit_GFX5writeEh+0x82>
    5072:	2300      	movs	r3, #0
    5074:	8203      	strh	r3, [r0, #16]
    5076:	7a92      	ldrb	r2, [r2, #10]
    5078:	7e03      	ldrb	r3, [r0, #24]
    507a:	4353      	muls	r3, r2
    507c:	e7ca      	b.n	5014 <_ZN12Adafruit_GFX5writeEh+0x18>
    507e:	290d      	cmp	r1, #13
    5080:	d0cb      	beq.n	501a <_ZN12Adafruit_GFX5writeEh+0x1e>
    5082:	7a15      	ldrb	r5, [r2, #8]
    5084:	42a9      	cmp	r1, r5
    5086:	dbc8      	blt.n	501a <_ZN12Adafruit_GFX5writeEh+0x1e>
    5088:	7a51      	ldrb	r1, [r2, #9]
    508a:	428b      	cmp	r3, r1
    508c:	dcc5      	bgt.n	501a <_ZN12Adafruit_GFX5writeEh+0x1e>
    508e:	1b5d      	subs	r5, r3, r5
    5090:	6851      	ldr	r1, [r2, #4]
    5092:	00ed      	lsls	r5, r5, #3
    5094:	186d      	adds	r5, r5, r1
    5096:	78ae      	ldrb	r6, [r5, #2]
    5098:	2e00      	cmp	r6, #0
    509a:	d024      	beq.n	50e6 <_ZN12Adafruit_GFX5writeEh+0xea>
    509c:	78e9      	ldrb	r1, [r5, #3]
    509e:	2900      	cmp	r1, #0
    50a0:	d021      	beq.n	50e6 <_ZN12Adafruit_GFX5writeEh+0xea>
    50a2:	7e81      	ldrb	r1, [r0, #26]
    50a4:	7e00      	ldrb	r0, [r0, #24]
    50a6:	2900      	cmp	r1, #0
    50a8:	d011      	beq.n	50ce <_ZN12Adafruit_GFX5writeEh+0xd2>
    50aa:	2105      	movs	r1, #5
    50ac:	5669      	ldrsb	r1, [r5, r1]
    50ae:	1989      	adds	r1, r1, r6
    50b0:	4341      	muls	r1, r0
    50b2:	2710      	movs	r7, #16
    50b4:	5fe6      	ldrsh	r6, [r4, r7]
    50b6:	1989      	adds	r1, r1, r6
    50b8:	270c      	movs	r7, #12
    50ba:	5fe6      	ldrsh	r6, [r4, r7]
    50bc:	42b1      	cmp	r1, r6
    50be:	dd06      	ble.n	50ce <_ZN12Adafruit_GFX5writeEh+0xd2>
    50c0:	2100      	movs	r1, #0
    50c2:	8221      	strh	r1, [r4, #16]
    50c4:	7a92      	ldrb	r2, [r2, #10]
    50c6:	8a61      	ldrh	r1, [r4, #18]
    50c8:	4342      	muls	r2, r0
    50ca:	1852      	adds	r2, r2, r1
    50cc:	8262      	strh	r2, [r4, #18]
    50ce:	9002      	str	r0, [sp, #8]
    50d0:	8ae0      	ldrh	r0, [r4, #22]
    50d2:	2112      	movs	r1, #18
    50d4:	5e62      	ldrsh	r2, [r4, r1]
    50d6:	9001      	str	r0, [sp, #4]
    50d8:	8aa0      	ldrh	r0, [r4, #20]
    50da:	2610      	movs	r6, #16
    50dc:	5fa1      	ldrsh	r1, [r4, r6]
    50de:	9000      	str	r0, [sp, #0]
    50e0:	0020      	movs	r0, r4
    50e2:	f7ff fe35 	bl	4d50 <_ZN12Adafruit_GFX8drawCharEsshtth>
    50e6:	792b      	ldrb	r3, [r5, #4]
    50e8:	7e22      	ldrb	r2, [r4, #24]
    50ea:	e7bb      	b.n	5064 <_ZN12Adafruit_GFX5writeEh+0x68>

000050ec <_ZNK12Adafruit_GFX5widthEv>:
    50ec:	230c      	movs	r3, #12
    50ee:	5ec0      	ldrsh	r0, [r0, r3]
    50f0:	4770      	bx	lr

000050f2 <_ZNK12Adafruit_GFX6heightEv>:
    50f2:	230e      	movs	r3, #14
    50f4:	5ec0      	ldrsh	r0, [r0, r3]
    50f6:	4770      	bx	lr

000050f8 <__cxa_pure_virtual>:
    50f8:	e7fe      	b.n	50f8 <__cxa_pure_virtual>

000050fa <ltoa>:
    50fa:	b5f0      	push	{r4, r5, r6, r7, lr}
    50fc:	b08d      	sub	sp, #52	; 0x34
    50fe:	1e0e      	subs	r6, r1, #0
    5100:	9200      	str	r2, [sp, #0]
    5102:	d02d      	beq.n	5160 <ltoa+0x66>
    5104:	0013      	movs	r3, r2
    5106:	3b02      	subs	r3, #2
    5108:	2b22      	cmp	r3, #34	; 0x22
    510a:	d833      	bhi.n	5174 <ltoa+0x7a>
    510c:	2a0a      	cmp	r2, #10
    510e:	d133      	bne.n	5178 <ltoa+0x7e>
    5110:	2800      	cmp	r0, #0
    5112:	da31      	bge.n	5178 <ltoa+0x7e>
    5114:	2301      	movs	r3, #1
    5116:	4244      	negs	r4, r0
    5118:	9301      	str	r3, [sp, #4]
    511a:	af03      	add	r7, sp, #12
    511c:	e00e      	b.n	513c <ltoa+0x42>
    511e:	0020      	movs	r0, r4
    5120:	9900      	ldr	r1, [sp, #0]
    5122:	f000 fc4d 	bl	59c0 <__aeabi_uidivmod>
    5126:	0020      	movs	r0, r4
    5128:	000d      	movs	r5, r1
    512a:	9900      	ldr	r1, [sp, #0]
    512c:	f000 fbc2 	bl	58b4 <__udivsi3>
    5130:	0004      	movs	r4, r0
    5132:	2d09      	cmp	r5, #9
    5134:	d817      	bhi.n	5166 <ltoa+0x6c>
    5136:	3530      	adds	r5, #48	; 0x30
    5138:	703d      	strb	r5, [r7, #0]
    513a:	3701      	adds	r7, #1
    513c:	003a      	movs	r2, r7
    513e:	2c00      	cmp	r4, #0
    5140:	d1ed      	bne.n	511e <ltoa+0x24>
    5142:	ab03      	add	r3, sp, #12
    5144:	42bb      	cmp	r3, r7
    5146:	d0ea      	beq.n	511e <ltoa+0x24>
    5148:	9901      	ldr	r1, [sp, #4]
    514a:	0033      	movs	r3, r6
    514c:	2900      	cmp	r1, #0
    514e:	d002      	beq.n	5156 <ltoa+0x5c>
    5150:	212d      	movs	r1, #45	; 0x2d
    5152:	1c73      	adds	r3, r6, #1
    5154:	7031      	strb	r1, [r6, #0]
    5156:	a903      	add	r1, sp, #12
    5158:	428a      	cmp	r2, r1
    515a:	d806      	bhi.n	516a <ltoa+0x70>
    515c:	2200      	movs	r2, #0
    515e:	701a      	strb	r2, [r3, #0]
    5160:	0030      	movs	r0, r6
    5162:	b00d      	add	sp, #52	; 0x34
    5164:	bdf0      	pop	{r4, r5, r6, r7, pc}
    5166:	3557      	adds	r5, #87	; 0x57
    5168:	e7e6      	b.n	5138 <ltoa+0x3e>
    516a:	3a01      	subs	r2, #1
    516c:	7811      	ldrb	r1, [r2, #0]
    516e:	7019      	strb	r1, [r3, #0]
    5170:	3301      	adds	r3, #1
    5172:	e7f0      	b.n	5156 <ltoa+0x5c>
    5174:	2600      	movs	r6, #0
    5176:	e7f3      	b.n	5160 <ltoa+0x66>
    5178:	0004      	movs	r4, r0
    517a:	2300      	movs	r3, #0
    517c:	e7cc      	b.n	5118 <ltoa+0x1e>

0000517e <itoa>:
    517e:	b510      	push	{r4, lr}
    5180:	f7ff ffbb 	bl	50fa <ltoa>
    5184:	bd10      	pop	{r4, pc}

00005186 <ultoa>:
    5186:	b5f0      	push	{r4, r5, r6, r7, lr}
    5188:	b08d      	sub	sp, #52	; 0x34
    518a:	0007      	movs	r7, r0
    518c:	1e0e      	subs	r6, r1, #0
    518e:	9201      	str	r2, [sp, #4]
    5190:	d021      	beq.n	51d6 <ultoa+0x50>
    5192:	0013      	movs	r3, r2
    5194:	3b02      	subs	r3, #2
    5196:	ad03      	add	r5, sp, #12
    5198:	2b22      	cmp	r3, #34	; 0x22
    519a:	d910      	bls.n	51be <ultoa+0x38>
    519c:	2600      	movs	r6, #0
    519e:	e01a      	b.n	51d6 <ultoa+0x50>
    51a0:	0038      	movs	r0, r7
    51a2:	9901      	ldr	r1, [sp, #4]
    51a4:	f000 fc0c 	bl	59c0 <__aeabi_uidivmod>
    51a8:	0038      	movs	r0, r7
    51aa:	000c      	movs	r4, r1
    51ac:	9901      	ldr	r1, [sp, #4]
    51ae:	f000 fb81 	bl	58b4 <__udivsi3>
    51b2:	0007      	movs	r7, r0
    51b4:	2c09      	cmp	r4, #9
    51b6:	d811      	bhi.n	51dc <ultoa+0x56>
    51b8:	3430      	adds	r4, #48	; 0x30
    51ba:	702c      	strb	r4, [r5, #0]
    51bc:	3501      	adds	r5, #1
    51be:	002b      	movs	r3, r5
    51c0:	2f00      	cmp	r7, #0
    51c2:	d1ed      	bne.n	51a0 <ultoa+0x1a>
    51c4:	aa03      	add	r2, sp, #12
    51c6:	42aa      	cmp	r2, r5
    51c8:	d0ea      	beq.n	51a0 <ultoa+0x1a>
    51ca:	0032      	movs	r2, r6
    51cc:	a903      	add	r1, sp, #12
    51ce:	428b      	cmp	r3, r1
    51d0:	d806      	bhi.n	51e0 <ultoa+0x5a>
    51d2:	2300      	movs	r3, #0
    51d4:	7013      	strb	r3, [r2, #0]
    51d6:	0030      	movs	r0, r6
    51d8:	b00d      	add	sp, #52	; 0x34
    51da:	bdf0      	pop	{r4, r5, r6, r7, pc}
    51dc:	3457      	adds	r4, #87	; 0x57
    51de:	e7ec      	b.n	51ba <ultoa+0x34>
    51e0:	3b01      	subs	r3, #1
    51e2:	7819      	ldrb	r1, [r3, #0]
    51e4:	7011      	strb	r1, [r2, #0]
    51e6:	3201      	adds	r2, #1
    51e8:	e7f0      	b.n	51cc <ultoa+0x46>

000051ea <utoa>:
    51ea:	b510      	push	{r4, lr}
    51ec:	f7ff ffcb 	bl	5186 <ultoa>
    51f0:	bd10      	pop	{r4, pc}

000051f2 <_Znwj>:
    51f2:	b510      	push	{r4, lr}
    51f4:	f000 fcf8 	bl	5be8 <malloc>
    51f8:	bd10      	pop	{r4, pc}

000051fa <_ZN6SERCOMC1EP6Sercom>:
    51fa:	6001      	str	r1, [r0, #0]
    51fc:	4770      	bx	lr

000051fe <_ZN6SERCOM9initFrameE18SercomUartCharSize15SercomDataOrder16SercomParityMode19SercomNumberStopBit>:
    51fe:	b5f0      	push	{r4, r5, r6, r7, lr}
    5200:	ac05      	add	r4, sp, #20
    5202:	7825      	ldrb	r5, [r4, #0]
    5204:	6804      	ldr	r4, [r0, #0]
    5206:	1e98      	subs	r0, r3, #2
    5208:	1e47      	subs	r7, r0, #1
    520a:	41b8      	sbcs	r0, r7
    520c:	6826      	ldr	r6, [r4, #0]
    520e:	0792      	lsls	r2, r2, #30
    5210:	0600      	lsls	r0, r0, #24
    5212:	4332      	orrs	r2, r6
    5214:	4302      	orrs	r2, r0
    5216:	2007      	movs	r0, #7
    5218:	6022      	str	r2, [r4, #0]
    521a:	4001      	ands	r1, r0
    521c:	01ad      	lsls	r5, r5, #6
    521e:	6862      	ldr	r2, [r4, #4]
    5220:	4329      	orrs	r1, r5
    5222:	2000      	movs	r0, #0
    5224:	2b02      	cmp	r3, #2
    5226:	d000      	beq.n	522a <_ZN6SERCOM9initFrameE18SercomUartCharSize15SercomDataOrder16SercomParityMode19SercomNumberStopBit+0x2c>
    5228:	0358      	lsls	r0, r3, #13
    522a:	4311      	orrs	r1, r2
    522c:	4301      	orrs	r1, r0
    522e:	6061      	str	r1, [r4, #4]
    5230:	bdf0      	pop	{r4, r5, r6, r7, pc}

00005232 <_ZN6SERCOM8initPadsE15SercomUartTXPad11SercomRXPad>:
    5232:	b510      	push	{r4, lr}
    5234:	24c0      	movs	r4, #192	; 0xc0
    5236:	6803      	ldr	r3, [r0, #0]
    5238:	03a4      	lsls	r4, r4, #14
    523a:	6818      	ldr	r0, [r3, #0]
    523c:	0512      	lsls	r2, r2, #20
    523e:	4022      	ands	r2, r4
    5240:	4302      	orrs	r2, r0
    5242:	20c0      	movs	r0, #192	; 0xc0
    5244:	0409      	lsls	r1, r1, #16
    5246:	0280      	lsls	r0, r0, #10
    5248:	4001      	ands	r1, r0
    524a:	4311      	orrs	r1, r2
    524c:	6019      	str	r1, [r3, #0]
    524e:	685a      	ldr	r2, [r3, #4]
    5250:	4310      	orrs	r0, r2
    5252:	6058      	str	r0, [r3, #4]
    5254:	bd10      	pop	{r4, pc}

00005256 <_ZN6SERCOM9resetUARTEv>:
    5256:	2201      	movs	r2, #1
    5258:	6803      	ldr	r3, [r0, #0]
    525a:	6819      	ldr	r1, [r3, #0]
    525c:	430a      	orrs	r2, r1
    525e:	601a      	str	r2, [r3, #0]
    5260:	681a      	ldr	r2, [r3, #0]
    5262:	07d2      	lsls	r2, r2, #31
    5264:	d4fc      	bmi.n	5260 <_ZN6SERCOM9resetUARTEv+0xa>
    5266:	69da      	ldr	r2, [r3, #28]
    5268:	07d2      	lsls	r2, r2, #31
    526a:	d4f9      	bmi.n	5260 <_ZN6SERCOM9resetUARTEv+0xa>
    526c:	4770      	bx	lr

0000526e <_ZN6SERCOM10enableUARTEv>:
    526e:	2202      	movs	r2, #2
    5270:	6803      	ldr	r3, [r0, #0]
    5272:	6819      	ldr	r1, [r3, #0]
    5274:	430a      	orrs	r2, r1
    5276:	601a      	str	r2, [r3, #0]
    5278:	69da      	ldr	r2, [r3, #28]
    527a:	0792      	lsls	r2, r2, #30
    527c:	d4fc      	bmi.n	5278 <_ZN6SERCOM10enableUARTEv+0xa>
    527e:	4770      	bx	lr

00005280 <_ZN6SERCOM9flushUARTEv>:
    5280:	6803      	ldr	r3, [r0, #0]
    5282:	7e1a      	ldrb	r2, [r3, #24]
    5284:	07d2      	lsls	r2, r2, #31
    5286:	d402      	bmi.n	528e <_ZN6SERCOM9flushUARTEv+0xe>
    5288:	7e1a      	ldrb	r2, [r3, #24]
    528a:	0792      	lsls	r2, r2, #30
    528c:	d5fc      	bpl.n	5288 <_ZN6SERCOM9flushUARTEv+0x8>
    528e:	4770      	bx	lr

00005290 <_ZN6SERCOM15clearStatusUARTEv>:
    5290:	2200      	movs	r2, #0
    5292:	6803      	ldr	r3, [r0, #0]
    5294:	835a      	strh	r2, [r3, #26]
    5296:	4770      	bx	lr

00005298 <_ZN6SERCOM17availableDataUARTEv>:
    5298:	6803      	ldr	r3, [r0, #0]
    529a:	7e18      	ldrb	r0, [r3, #24]
    529c:	0740      	lsls	r0, r0, #29
    529e:	0fc0      	lsrs	r0, r0, #31
    52a0:	4770      	bx	lr

000052a2 <_ZN6SERCOM11isUARTErrorEv>:
    52a2:	6803      	ldr	r3, [r0, #0]
    52a4:	7e18      	ldrb	r0, [r3, #24]
    52a6:	09c0      	lsrs	r0, r0, #7
    52a8:	4770      	bx	lr

000052aa <_ZN6SERCOM20acknowledgeUARTErrorEv>:
    52aa:	2380      	movs	r3, #128	; 0x80
    52ac:	6802      	ldr	r2, [r0, #0]
    52ae:	425b      	negs	r3, r3
    52b0:	7e11      	ldrb	r1, [r2, #24]
    52b2:	430b      	orrs	r3, r1
    52b4:	7613      	strb	r3, [r2, #24]
    52b6:	4770      	bx	lr

000052b8 <_ZN6SERCOM23isDataRegisterEmptyUARTEv>:
    52b8:	6803      	ldr	r3, [r0, #0]
    52ba:	7e18      	ldrb	r0, [r3, #24]
    52bc:	07c0      	lsls	r0, r0, #31
    52be:	0fc0      	lsrs	r0, r0, #31
    52c0:	4770      	bx	lr

000052c2 <_ZN6SERCOM12readDataUARTEv>:
    52c2:	6803      	ldr	r3, [r0, #0]
    52c4:	8d18      	ldrh	r0, [r3, #40]	; 0x28
    52c6:	b2c0      	uxtb	r0, r0
    52c8:	4770      	bx	lr

000052ca <_ZN6SERCOM13writeDataUARTEh>:
    52ca:	6803      	ldr	r3, [r0, #0]
    52cc:	7e1a      	ldrb	r2, [r3, #24]
    52ce:	07d2      	lsls	r2, r2, #31
    52d0:	d5fc      	bpl.n	52cc <_ZN6SERCOM13writeDataUARTEh+0x2>
    52d2:	b289      	uxth	r1, r1
    52d4:	2001      	movs	r0, #1
    52d6:	8519      	strh	r1, [r3, #40]	; 0x28
    52d8:	4770      	bx	lr

000052da <_ZN6SERCOM36enableDataRegisterEmptyInterruptUARTEv>:
    52da:	2201      	movs	r2, #1
    52dc:	6803      	ldr	r3, [r0, #0]
    52de:	759a      	strb	r2, [r3, #22]
    52e0:	4770      	bx	lr

000052e2 <_ZN6SERCOM37disableDataRegisterEmptyInterruptUARTEv>:
    52e2:	2201      	movs	r2, #1
    52e4:	6803      	ldr	r3, [r0, #0]
    52e6:	751a      	strb	r2, [r3, #20]
    52e8:	4770      	bx	lr
	...

000052ec <_ZN6SERCOM12initSPIClockE18SercomSpiClockModem>:
    52ec:	b570      	push	{r4, r5, r6, lr}
    52ee:	2501      	movs	r5, #1
    52f0:	6804      	ldr	r4, [r0, #0]
    52f2:	084b      	lsrs	r3, r1, #1
    52f4:	402b      	ands	r3, r5
    52f6:	4029      	ands	r1, r5
    52f8:	6820      	ldr	r0, [r4, #0]
    52fa:	0709      	lsls	r1, r1, #28
    52fc:	075b      	lsls	r3, r3, #29
    52fe:	430b      	orrs	r3, r1
    5300:	4303      	orrs	r3, r0
    5302:	6023      	str	r3, [r4, #0]
    5304:	0051      	lsls	r1, r2, #1
    5306:	4803      	ldr	r0, [pc, #12]	; (5314 <_ZN6SERCOM12initSPIClockE18SercomSpiClockModem+0x28>)
    5308:	f000 fad4 	bl	58b4 <__udivsi3>
    530c:	3801      	subs	r0, #1
    530e:	b2c0      	uxtb	r0, r0
    5310:	7320      	strb	r0, [r4, #12]
    5312:	bd70      	pop	{r4, r5, r6, pc}
    5314:	02dc6c00 	.word	0x02dc6c00

00005318 <_ZN6SERCOM8resetSPIEv>:
    5318:	2201      	movs	r2, #1
    531a:	6803      	ldr	r3, [r0, #0]
    531c:	6819      	ldr	r1, [r3, #0]
    531e:	430a      	orrs	r2, r1
    5320:	601a      	str	r2, [r3, #0]
    5322:	681a      	ldr	r2, [r3, #0]
    5324:	07d2      	lsls	r2, r2, #31
    5326:	d4fc      	bmi.n	5322 <_ZN6SERCOM8resetSPIEv+0xa>
    5328:	69da      	ldr	r2, [r3, #28]
    532a:	07d2      	lsls	r2, r2, #31
    532c:	d4f9      	bmi.n	5322 <_ZN6SERCOM8resetSPIEv+0xa>
    532e:	4770      	bx	lr

00005330 <_ZN6SERCOM9enableSPIEv>:
    5330:	2202      	movs	r2, #2
    5332:	6803      	ldr	r3, [r0, #0]
    5334:	6819      	ldr	r1, [r3, #0]
    5336:	430a      	orrs	r2, r1
    5338:	601a      	str	r2, [r3, #0]
    533a:	69da      	ldr	r2, [r3, #28]
    533c:	0792      	lsls	r2, r2, #30
    533e:	d4fc      	bmi.n	533a <_ZN6SERCOM9enableSPIEv+0xa>
    5340:	4770      	bx	lr

00005342 <_ZN6SERCOM10disableSPIEv>:
    5342:	6803      	ldr	r3, [r0, #0]
    5344:	69da      	ldr	r2, [r3, #28]
    5346:	0792      	lsls	r2, r2, #30
    5348:	d4fc      	bmi.n	5344 <_ZN6SERCOM10disableSPIEv+0x2>
    534a:	2102      	movs	r1, #2
    534c:	681a      	ldr	r2, [r3, #0]
    534e:	438a      	bics	r2, r1
    5350:	601a      	str	r2, [r3, #0]
    5352:	4770      	bx	lr

00005354 <_ZN6SERCOM15transferDataSPIEh>:
    5354:	6802      	ldr	r2, [r0, #0]
    5356:	6a93      	ldr	r3, [r2, #40]	; 0x28
    5358:	0a5b      	lsrs	r3, r3, #9
    535a:	025b      	lsls	r3, r3, #9
    535c:	4319      	orrs	r1, r3
    535e:	6291      	str	r1, [r2, #40]	; 0x28
    5360:	7e13      	ldrb	r3, [r2, #24]
    5362:	075b      	lsls	r3, r3, #29
    5364:	d5fc      	bpl.n	5360 <_ZN6SERCOM15transferDataSPIEh+0xc>
    5366:	6a90      	ldr	r0, [r2, #40]	; 0x28
    5368:	b2c0      	uxtb	r0, r0
    536a:	4770      	bx	lr

0000536c <_ZN6SERCOM9resetWIREEv>:
    536c:	2201      	movs	r2, #1
    536e:	6803      	ldr	r3, [r0, #0]
    5370:	6819      	ldr	r1, [r3, #0]
    5372:	430a      	orrs	r2, r1
    5374:	601a      	str	r2, [r3, #0]
    5376:	681a      	ldr	r2, [r3, #0]
    5378:	07d2      	lsls	r2, r2, #31
    537a:	d4fc      	bmi.n	5376 <_ZN6SERCOM9resetWIREEv+0xa>
    537c:	69da      	ldr	r2, [r3, #28]
    537e:	07d2      	lsls	r2, r2, #31
    5380:	d4f9      	bmi.n	5376 <_ZN6SERCOM9resetWIREEv+0xa>
    5382:	4770      	bx	lr

00005384 <_ZN6SERCOM10enableWIREEv>:
    5384:	2202      	movs	r2, #2
    5386:	6803      	ldr	r3, [r0, #0]
    5388:	6819      	ldr	r1, [r3, #0]
    538a:	430a      	orrs	r2, r1
    538c:	601a      	str	r2, [r3, #0]
    538e:	69da      	ldr	r2, [r3, #28]
    5390:	0792      	lsls	r2, r2, #30
    5392:	d4fc      	bmi.n	538e <_ZN6SERCOM10enableWIREEv+0xa>
    5394:	2130      	movs	r1, #48	; 0x30
    5396:	8b5a      	ldrh	r2, [r3, #26]
    5398:	438a      	bics	r2, r1
    539a:	0011      	movs	r1, r2
    539c:	2210      	movs	r2, #16
    539e:	430a      	orrs	r2, r1
    53a0:	835a      	strh	r2, [r3, #26]
    53a2:	69da      	ldr	r2, [r3, #28]
    53a4:	0752      	lsls	r2, r2, #29
    53a6:	d4fc      	bmi.n	53a2 <_ZN6SERCOM10enableWIREEv+0x1e>
    53a8:	4770      	bx	lr

000053aa <_ZN6SERCOM18prepareNackBitWIREEv>:
    53aa:	2380      	movs	r3, #128	; 0x80
    53ac:	6802      	ldr	r2, [r0, #0]
    53ae:	02db      	lsls	r3, r3, #11
    53b0:	6811      	ldr	r1, [r2, #0]
    53b2:	6851      	ldr	r1, [r2, #4]
    53b4:	430b      	orrs	r3, r1
    53b6:	6053      	str	r3, [r2, #4]
    53b8:	4770      	bx	lr
	...

000053bc <_ZN6SERCOM17prepareAckBitWIREEv>:
    53bc:	6803      	ldr	r3, [r0, #0]
    53be:	4903      	ldr	r1, [pc, #12]	; (53cc <_ZN6SERCOM17prepareAckBitWIREEv+0x10>)
    53c0:	681a      	ldr	r2, [r3, #0]
    53c2:	685a      	ldr	r2, [r3, #4]
    53c4:	400a      	ands	r2, r1
    53c6:	605a      	str	r2, [r3, #4]
    53c8:	4770      	bx	lr
    53ca:	46c0      	nop			; (mov r8, r8)
    53cc:	fffbffff 	.word	0xfffbffff

000053d0 <_ZN6SERCOM22prepareCommandBitsWireEh>:
    53d0:	6803      	ldr	r3, [r0, #0]
    53d2:	b510      	push	{r4, lr}
    53d4:	6818      	ldr	r0, [r3, #0]
    53d6:	2203      	movs	r2, #3
    53d8:	06c0      	lsls	r0, r0, #27
    53da:	0f40      	lsrs	r0, r0, #29
    53dc:	4c09      	ldr	r4, [pc, #36]	; (5404 <_ZN6SERCOM22prepareCommandBitsWireEh+0x34>)
    53de:	2805      	cmp	r0, #5
    53e0:	d109      	bne.n	53f6 <_ZN6SERCOM22prepareCommandBitsWireEh+0x26>
    53e2:	6858      	ldr	r0, [r3, #4]
    53e4:	4011      	ands	r1, r2
    53e6:	0409      	lsls	r1, r1, #16
    53e8:	4020      	ands	r0, r4
    53ea:	4301      	orrs	r1, r0
    53ec:	6059      	str	r1, [r3, #4]
    53ee:	69da      	ldr	r2, [r3, #28]
    53f0:	0752      	lsls	r2, r2, #29
    53f2:	d4fc      	bmi.n	53ee <_ZN6SERCOM22prepareCommandBitsWireEh+0x1e>
    53f4:	bd10      	pop	{r4, pc}
    53f6:	6858      	ldr	r0, [r3, #4]
    53f8:	4011      	ands	r1, r2
    53fa:	0409      	lsls	r1, r1, #16
    53fc:	4020      	ands	r0, r4
    53fe:	4301      	orrs	r1, r0
    5400:	6059      	str	r1, [r3, #4]
    5402:	e7f7      	b.n	53f4 <_ZN6SERCOM22prepareCommandBitsWireEh+0x24>
    5404:	fffcffff 	.word	0xfffcffff

00005408 <_ZN6SERCOM21startTransmissionWIREEh23SercomWireReadWriteFlag>:
    5408:	0049      	lsls	r1, r1, #1
    540a:	4311      	orrs	r1, r2
    540c:	6803      	ldr	r3, [r0, #0]
    540e:	b510      	push	{r4, lr}
    5410:	b2cc      	uxtb	r4, r1
    5412:	8b59      	ldrh	r1, [r3, #26]
    5414:	0689      	lsls	r1, r1, #26
    5416:	0f89      	lsrs	r1, r1, #30
    5418:	2901      	cmp	r1, #1
    541a:	d004      	beq.n	5426 <_ZN6SERCOM21startTransmissionWIREEh23SercomWireReadWriteFlag+0x1e>
    541c:	8b59      	ldrh	r1, [r3, #26]
    541e:	0689      	lsls	r1, r1, #26
    5420:	0f89      	lsrs	r1, r1, #30
    5422:	2902      	cmp	r1, #2
    5424:	d1f5      	bne.n	5412 <_ZN6SERCOM21startTransmissionWIREEh23SercomWireReadWriteFlag+0xa>
    5426:	6a59      	ldr	r1, [r3, #36]	; 0x24
    5428:	0ac9      	lsrs	r1, r1, #11
    542a:	02c9      	lsls	r1, r1, #11
    542c:	4321      	orrs	r1, r4
    542e:	6259      	str	r1, [r3, #36]	; 0x24
    5430:	2a00      	cmp	r2, #0
    5432:	d00c      	beq.n	544e <_ZN6SERCOM21startTransmissionWIREEh23SercomWireReadWriteFlag+0x46>
    5434:	7e18      	ldrb	r0, [r3, #24]
    5436:	0780      	lsls	r0, r0, #30
    5438:	0fc0      	lsrs	r0, r0, #31
    543a:	d10b      	bne.n	5454 <_ZN6SERCOM21startTransmissionWIREEh23SercomWireReadWriteFlag+0x4c>
    543c:	7e1a      	ldrb	r2, [r3, #24]
    543e:	07d2      	lsls	r2, r2, #31
    5440:	d5f8      	bpl.n	5434 <_ZN6SERCOM21startTransmissionWIREEh23SercomWireReadWriteFlag+0x2c>
    5442:	22c0      	movs	r2, #192	; 0xc0
    5444:	6859      	ldr	r1, [r3, #4]
    5446:	0292      	lsls	r2, r2, #10
    5448:	430a      	orrs	r2, r1
    544a:	605a      	str	r2, [r3, #4]
    544c:	bd10      	pop	{r4, pc}
    544e:	7e1a      	ldrb	r2, [r3, #24]
    5450:	07d2      	lsls	r2, r2, #31
    5452:	d5fc      	bpl.n	544e <_ZN6SERCOM21startTransmissionWIREEh23SercomWireReadWriteFlag+0x46>
    5454:	8b58      	ldrh	r0, [r3, #26]
    5456:	0740      	lsls	r0, r0, #29
    5458:	0fc3      	lsrs	r3, r0, #31
    545a:	2001      	movs	r0, #1
    545c:	4058      	eors	r0, r3
    545e:	e7f5      	b.n	544c <_ZN6SERCOM21startTransmissionWIREEh23SercomWireReadWriteFlag+0x44>

00005460 <_ZN6SERCOM18sendDataMasterWIREEh>:
    5460:	6803      	ldr	r3, [r0, #0]
    5462:	001a      	movs	r2, r3
    5464:	3228      	adds	r2, #40	; 0x28
    5466:	7011      	strb	r1, [r2, #0]
    5468:	7e18      	ldrb	r0, [r3, #24]
    546a:	07c0      	lsls	r0, r0, #31
    546c:	0fc0      	lsrs	r0, r0, #31
    546e:	d103      	bne.n	5478 <_ZN6SERCOM18sendDataMasterWIREEh+0x18>
    5470:	8b5a      	ldrh	r2, [r3, #26]
    5472:	07d2      	lsls	r2, r2, #31
    5474:	d5f8      	bpl.n	5468 <_ZN6SERCOM18sendDataMasterWIREEh+0x8>
    5476:	4770      	bx	lr
    5478:	8b58      	ldrh	r0, [r3, #26]
    547a:	0740      	lsls	r0, r0, #29
    547c:	0fc3      	lsrs	r3, r0, #31
    547e:	2001      	movs	r0, #1
    5480:	4058      	eors	r0, r3
    5482:	e7f8      	b.n	5476 <_ZN6SERCOM18sendDataMasterWIREEh+0x16>

00005484 <_ZN6SERCOM17sendDataSlaveWIREEh>:
    5484:	6803      	ldr	r3, [r0, #0]
    5486:	2000      	movs	r0, #0
    5488:	001a      	movs	r2, r3
    548a:	3228      	adds	r2, #40	; 0x28
    548c:	7011      	strb	r1, [r2, #0]
    548e:	7e1a      	ldrb	r2, [r3, #24]
    5490:	0752      	lsls	r2, r2, #29
    5492:	d504      	bpl.n	549e <_ZN6SERCOM17sendDataSlaveWIREEh+0x1a>
    5494:	8b58      	ldrh	r0, [r3, #26]
    5496:	2301      	movs	r3, #1
    5498:	0740      	lsls	r0, r0, #29
    549a:	0fc0      	lsrs	r0, r0, #31
    549c:	4058      	eors	r0, r3
    549e:	4770      	bx	lr

000054a0 <_ZN6SERCOM11isSlaveWIREEv>:
    54a0:	6803      	ldr	r3, [r0, #0]
    54a2:	6818      	ldr	r0, [r3, #0]
    54a4:	06c0      	lsls	r0, r0, #27
    54a6:	0f40      	lsrs	r0, r0, #29
    54a8:	3804      	subs	r0, #4
    54aa:	4243      	negs	r3, r0
    54ac:	4158      	adcs	r0, r3
    54ae:	b2c0      	uxtb	r0, r0
    54b0:	4770      	bx	lr

000054b2 <_ZN6SERCOM15isDataReadyWIREEv>:
    54b2:	6803      	ldr	r3, [r0, #0]
    54b4:	7e18      	ldrb	r0, [r3, #24]
    54b6:	0740      	lsls	r0, r0, #29
    54b8:	0fc0      	lsrs	r0, r0, #31
    54ba:	4770      	bx	lr

000054bc <_ZN6SERCOM18isStopDetectedWIREEv>:
    54bc:	6803      	ldr	r3, [r0, #0]
    54be:	7e18      	ldrb	r0, [r3, #24]
    54c0:	07c0      	lsls	r0, r0, #31
    54c2:	0fc0      	lsrs	r0, r0, #31
    54c4:	4770      	bx	lr

000054c6 <_ZN6SERCOM21isRestartDetectedWIREEv>:
    54c6:	6803      	ldr	r3, [r0, #0]
    54c8:	8b58      	ldrh	r0, [r3, #26]
    54ca:	06c0      	lsls	r0, r0, #27
    54cc:	0fc0      	lsrs	r0, r0, #31
    54ce:	4770      	bx	lr

000054d0 <_ZN6SERCOM14isAddressMatchEv>:
    54d0:	6803      	ldr	r3, [r0, #0]
    54d2:	7e18      	ldrb	r0, [r3, #24]
    54d4:	0780      	lsls	r0, r0, #30
    54d6:	0fc0      	lsrs	r0, r0, #31
    54d8:	4770      	bx	lr

000054da <_ZN6SERCOM25isMasterReadOperationWIREEv>:
    54da:	6803      	ldr	r3, [r0, #0]
    54dc:	8b58      	ldrh	r0, [r3, #26]
    54de:	0700      	lsls	r0, r0, #28
    54e0:	0fc0      	lsrs	r0, r0, #31
    54e2:	4770      	bx	lr

000054e4 <_ZN6SERCOM12readDataWIREEv>:
    54e4:	6803      	ldr	r3, [r0, #0]
    54e6:	681a      	ldr	r2, [r3, #0]
    54e8:	06d2      	lsls	r2, r2, #27
    54ea:	0f52      	lsrs	r2, r2, #29
    54ec:	2a05      	cmp	r2, #5
    54ee:	d102      	bne.n	54f6 <_ZN6SERCOM12readDataWIREEv+0x12>
    54f0:	7e1a      	ldrb	r2, [r3, #24]
    54f2:	0792      	lsls	r2, r2, #30
    54f4:	d5fc      	bpl.n	54f0 <_ZN6SERCOM12readDataWIREEv+0xc>
    54f6:	3328      	adds	r3, #40	; 0x28
    54f8:	7818      	ldrb	r0, [r3, #0]
    54fa:	b2c0      	uxtb	r0, r0
    54fc:	4770      	bx	lr
	...

00005500 <_ZN6SERCOM13initClockNVICEv>:
    5500:	6803      	ldr	r3, [r0, #0]
    5502:	4a21      	ldr	r2, [pc, #132]	; (5588 <_ZN6SERCOM13initClockNVICEv+0x88>)
    5504:	b530      	push	{r4, r5, lr}
    5506:	4293      	cmp	r3, r2
    5508:	d011      	beq.n	552e <_ZN6SERCOM13initClockNVICEv+0x2e>
    550a:	4a20      	ldr	r2, [pc, #128]	; (558c <_ZN6SERCOM13initClockNVICEv+0x8c>)
    550c:	4293      	cmp	r3, r2
    550e:	d02f      	beq.n	5570 <_ZN6SERCOM13initClockNVICEv+0x70>
    5510:	4a1f      	ldr	r2, [pc, #124]	; (5590 <_ZN6SERCOM13initClockNVICEv+0x90>)
    5512:	4293      	cmp	r3, r2
    5514:	d02f      	beq.n	5576 <_ZN6SERCOM13initClockNVICEv+0x76>
    5516:	4a1f      	ldr	r2, [pc, #124]	; (5594 <_ZN6SERCOM13initClockNVICEv+0x94>)
    5518:	4293      	cmp	r3, r2
    551a:	d02f      	beq.n	557c <_ZN6SERCOM13initClockNVICEv+0x7c>
    551c:	4a1e      	ldr	r2, [pc, #120]	; (5598 <_ZN6SERCOM13initClockNVICEv+0x98>)
    551e:	4293      	cmp	r3, r2
    5520:	d02f      	beq.n	5582 <_ZN6SERCOM13initClockNVICEv+0x82>
    5522:	4a1e      	ldr	r2, [pc, #120]	; (559c <_ZN6SERCOM13initClockNVICEv+0x9c>)
    5524:	4293      	cmp	r3, r2
    5526:	d122      	bne.n	556e <_ZN6SERCOM13initClockNVICEv+0x6e>
    5528:	230e      	movs	r3, #14
    552a:	2219      	movs	r2, #25
    552c:	e001      	b.n	5532 <_ZN6SERCOM13initClockNVICEv+0x32>
    552e:	2309      	movs	r3, #9
    5530:	2214      	movs	r2, #20
    NVIC->ISER[0U] = (uint32_t)(1UL << (((uint32_t)(int32_t)IRQn) & 0x1FUL));
    5532:	2101      	movs	r1, #1
    NVIC->IP[_IP_IDX(IRQn)]  = ((uint32_t)(NVIC->IP[_IP_IDX(IRQn)]  & ~(0xFFUL << _BIT_SHIFT(IRQn))) |
    5534:	2503      	movs	r5, #3
    NVIC->ISER[0U] = (uint32_t)(1UL << (((uint32_t)(int32_t)IRQn) & 0x1FUL));
    5536:	4099      	lsls	r1, r3
    5538:	4819      	ldr	r0, [pc, #100]	; (55a0 <_ZN6SERCOM13initClockNVICEv+0xa0>)
    NVIC->IP[_IP_IDX(IRQn)]  = ((uint32_t)(NVIC->IP[_IP_IDX(IRQn)]  & ~(0xFFUL << _BIT_SHIFT(IRQn))) |
    553a:	24c0      	movs	r4, #192	; 0xc0
    NVIC->ISER[0U] = (uint32_t)(1UL << (((uint32_t)(int32_t)IRQn) & 0x1FUL));
    553c:	6001      	str	r1, [r0, #0]
    NVIC->IP[_IP_IDX(IRQn)]  = ((uint32_t)(NVIC->IP[_IP_IDX(IRQn)]  & ~(0xFFUL << _BIT_SHIFT(IRQn))) |
    553e:	0899      	lsrs	r1, r3, #2
    5540:	402b      	ands	r3, r5
    5542:	40ab      	lsls	r3, r5
    5544:	35fc      	adds	r5, #252	; 0xfc
    5546:	409d      	lsls	r5, r3
    5548:	0089      	lsls	r1, r1, #2
    554a:	1809      	adds	r1, r1, r0
    554c:	00a4      	lsls	r4, r4, #2
    554e:	5908      	ldr	r0, [r1, r4]
    5550:	43a8      	bics	r0, r5
       (((priority << (8U - __NVIC_PRIO_BITS)) & (uint32_t)0xFFUL) << _BIT_SHIFT(IRQn)));
    5552:	25c0      	movs	r5, #192	; 0xc0
    5554:	409d      	lsls	r5, r3
    5556:	002b      	movs	r3, r5
    NVIC->IP[_IP_IDX(IRQn)]  = ((uint32_t)(NVIC->IP[_IP_IDX(IRQn)]  & ~(0xFFUL << _BIT_SHIFT(IRQn))) |
    5558:	4303      	orrs	r3, r0
    555a:	510b      	str	r3, [r1, r4]
    555c:	2380      	movs	r3, #128	; 0x80
    555e:	01db      	lsls	r3, r3, #7
    5560:	431a      	orrs	r2, r3
    5562:	4b10      	ldr	r3, [pc, #64]	; (55a4 <_ZN6SERCOM13initClockNVICEv+0xa4>)
    5564:	805a      	strh	r2, [r3, #2]
    5566:	785a      	ldrb	r2, [r3, #1]
    5568:	b252      	sxtb	r2, r2
    556a:	2a00      	cmp	r2, #0
    556c:	dbfb      	blt.n	5566 <_ZN6SERCOM13initClockNVICEv+0x66>
    556e:	bd30      	pop	{r4, r5, pc}
    5570:	230a      	movs	r3, #10
    5572:	2215      	movs	r2, #21
    5574:	e7dd      	b.n	5532 <_ZN6SERCOM13initClockNVICEv+0x32>
    5576:	230b      	movs	r3, #11
    5578:	2216      	movs	r2, #22
    557a:	e7da      	b.n	5532 <_ZN6SERCOM13initClockNVICEv+0x32>
    557c:	230c      	movs	r3, #12
    557e:	2217      	movs	r2, #23
    5580:	e7d7      	b.n	5532 <_ZN6SERCOM13initClockNVICEv+0x32>
    5582:	230d      	movs	r3, #13
    5584:	2218      	movs	r2, #24
    5586:	e7d4      	b.n	5532 <_ZN6SERCOM13initClockNVICEv+0x32>
    5588:	42000800 	.word	0x42000800
    558c:	42000c00 	.word	0x42000c00
    5590:	42001000 	.word	0x42001000
    5594:	42001400 	.word	0x42001400
    5598:	42001800 	.word	0x42001800
    559c:	42001c00 	.word	0x42001c00
    55a0:	e000e100 	.word	0xe000e100
    55a4:	40000c00 	.word	0x40000c00

000055a8 <_ZN6SERCOM8initUARTE14SercomUartMode20SercomUartSampleRatem>:
    55a8:	b5f8      	push	{r3, r4, r5, r6, r7, lr}
    55aa:	0004      	movs	r4, r0
    55ac:	0016      	movs	r6, r2
    55ae:	000f      	movs	r7, r1
    55b0:	001d      	movs	r5, r3
    55b2:	f7ff ffa5 	bl	5500 <_ZN6SERCOM13initClockNVICEv>
    55b6:	0020      	movs	r0, r4
    55b8:	f7ff fe4d 	bl	5256 <_ZN6SERCOM9resetUARTEv>
    55bc:	221c      	movs	r2, #28
    55be:	00bb      	lsls	r3, r7, #2
    55c0:	4013      	ands	r3, r2
    55c2:	0772      	lsls	r2, r6, #29
    55c4:	6824      	ldr	r4, [r4, #0]
    55c6:	0c12      	lsrs	r2, r2, #16
    55c8:	4313      	orrs	r3, r2
    55ca:	6023      	str	r3, [r4, #0]
    55cc:	2384      	movs	r3, #132	; 0x84
    55ce:	75a3      	strb	r3, [r4, #22]
    55d0:	2f01      	cmp	r7, #1
    55d2:	d118      	bne.n	5606 <_ZN6SERCOM8initUARTE14SercomUartMode20SercomUartSampleRatem+0x5e>
    55d4:	2110      	movs	r1, #16
    55d6:	2e01      	cmp	r6, #1
    55d8:	d000      	beq.n	55dc <_ZN6SERCOM8initUARTE14SercomUartMode20SercomUartSampleRatem+0x34>
    55da:	3908      	subs	r1, #8
    55dc:	4b0a      	ldr	r3, [pc, #40]	; (5608 <_ZN6SERCOM8initUARTE14SercomUartMode20SercomUartSampleRatem+0x60>)
    55de:	4369      	muls	r1, r5
    55e0:	6818      	ldr	r0, [r3, #0]
    55e2:	00c0      	lsls	r0, r0, #3
    55e4:	f000 f966 	bl	58b4 <__udivsi3>
    55e8:	2207      	movs	r2, #7
    55ea:	89a3      	ldrh	r3, [r4, #12]
    55ec:	4002      	ands	r2, r0
    55ee:	04db      	lsls	r3, r3, #19
    55f0:	0352      	lsls	r2, r2, #13
    55f2:	0cdb      	lsrs	r3, r3, #19
    55f4:	4313      	orrs	r3, r2
    55f6:	81a3      	strh	r3, [r4, #12]
    55f8:	0403      	lsls	r3, r0, #16
    55fa:	89a0      	ldrh	r0, [r4, #12]
    55fc:	0cdb      	lsrs	r3, r3, #19
    55fe:	0b40      	lsrs	r0, r0, #13
    5600:	0340      	lsls	r0, r0, #13
    5602:	4318      	orrs	r0, r3
    5604:	81a0      	strh	r0, [r4, #12]
    5606:	bdf8      	pop	{r3, r4, r5, r6, r7, pc}
    5608:	20000044 	.word	0x20000044

0000560c <_ZN6SERCOM7initSPIE14SercomSpiTXPad11SercomRXPad17SercomSpiCharSize15SercomDataOrder>:
    560c:	b5f7      	push	{r0, r1, r2, r4, r5, r6, r7, lr}
    560e:	0007      	movs	r7, r0
    5610:	9301      	str	r3, [sp, #4]
    5612:	ab08      	add	r3, sp, #32
    5614:	781e      	ldrb	r6, [r3, #0]
    5616:	000d      	movs	r5, r1
    5618:	0014      	movs	r4, r2
    561a:	f7ff fe7d 	bl	5318 <_ZN6SERCOM8resetSPIEv>
    561e:	0038      	movs	r0, r7
    5620:	f7ff ff6e 	bl	5500 <_ZN6SERCOM13initClockNVICEv>
    5624:	22c0      	movs	r2, #192	; 0xc0
    5626:	0524      	lsls	r4, r4, #20
    5628:	0392      	lsls	r2, r2, #14
    562a:	4014      	ands	r4, r2
    562c:	07b2      	lsls	r2, r6, #30
    562e:	260c      	movs	r6, #12
    5630:	2107      	movs	r1, #7
    5632:	4316      	orrs	r6, r2
    5634:	9a01      	ldr	r2, [sp, #4]
    5636:	4334      	orrs	r4, r6
    5638:	400a      	ands	r2, r1
    563a:	26c0      	movs	r6, #192	; 0xc0
    563c:	0011      	movs	r1, r2
    563e:	2280      	movs	r2, #128	; 0x80
    5640:	02b6      	lsls	r6, r6, #10
    5642:	042d      	lsls	r5, r5, #16
    5644:	683b      	ldr	r3, [r7, #0]
    5646:	4035      	ands	r5, r6
    5648:	0292      	lsls	r2, r2, #10
    564a:	4325      	orrs	r5, r4
    564c:	430a      	orrs	r2, r1
    564e:	601d      	str	r5, [r3, #0]
    5650:	605a      	str	r2, [r3, #4]
    5652:	bdf7      	pop	{r0, r1, r2, r4, r5, r6, r7, pc}

00005654 <_ZN6SERCOM14initMasterWIREEm>:
    5654:	b570      	push	{r4, r5, r6, lr}
    5656:	0005      	movs	r5, r0
    5658:	000c      	movs	r4, r1
    565a:	f7ff ff51 	bl	5500 <_ZN6SERCOM13initClockNVICEv>
    565e:	0028      	movs	r0, r5
    5660:	f7ff fe84 	bl	536c <_ZN6SERCOM9resetWIREEv>
    5664:	2314      	movs	r3, #20
    5666:	682d      	ldr	r5, [r5, #0]
    5668:	0061      	lsls	r1, r4, #1
    566a:	602b      	str	r3, [r5, #0]
    566c:	4b0c      	ldr	r3, [pc, #48]	; (56a0 <_ZN6SERCOM14initMasterWIREEm+0x4c>)
    566e:	681e      	ldr	r6, [r3, #0]
    5670:	0030      	movs	r0, r6
    5672:	f000 f91f 	bl	58b4 <__udivsi3>
    5676:	490b      	ldr	r1, [pc, #44]	; (56a4 <_ZN6SERCOM14initMasterWIREEm+0x50>)
    5678:	0004      	movs	r4, r0
    567a:	0030      	movs	r0, r6
    567c:	f000 f91a 	bl	58b4 <__udivsi3>
    5680:	237d      	movs	r3, #125	; 0x7d
    5682:	21fa      	movs	r1, #250	; 0xfa
    5684:	4358      	muls	r0, r3
    5686:	00c9      	lsls	r1, r1, #3
    5688:	f000 f914 	bl	58b4 <__udivsi3>
    568c:	23ff      	movs	r3, #255	; 0xff
    568e:	1a24      	subs	r4, r4, r0
    5690:	68e8      	ldr	r0, [r5, #12]
    5692:	3c05      	subs	r4, #5
    5694:	401c      	ands	r4, r3
    5696:	4398      	bics	r0, r3
    5698:	4304      	orrs	r4, r0
    569a:	60ec      	str	r4, [r5, #12]
    569c:	bd70      	pop	{r4, r5, r6, pc}
    569e:	46c0      	nop			; (mov r8, r8)
    56a0:	20000044 	.word	0x20000044
    56a4:	000f4240 	.word	0x000f4240

000056a8 <_ZN7Serial_17availableForWriteEv>:
    56a8:	203f      	movs	r0, #63	; 0x3f
    56aa:	4770      	bx	lr

000056ac <_ZN7Serial_5writeEh>:
    56ac:	b513      	push	{r0, r1, r4, lr}
    56ae:	466b      	mov	r3, sp
    56b0:	6802      	ldr	r2, [r0, #0]
    56b2:	71d9      	strb	r1, [r3, #7]
    56b4:	3307      	adds	r3, #7
    56b6:	6854      	ldr	r4, [r2, #4]
    56b8:	0019      	movs	r1, r3
    56ba:	2201      	movs	r2, #1
    56bc:	47a0      	blx	r4
    56be:	bd16      	pop	{r1, r2, r4, pc}

000056c0 <_ZN7Serial_9availableEv>:
    56c0:	b510      	push	{r4, lr}
    56c2:	2102      	movs	r1, #2
    56c4:	6900      	ldr	r0, [r0, #16]
    56c6:	f7fc f94b 	bl	1960 <_ZN14USBDeviceClass9availableEm>
    56ca:	bd10      	pop	{r4, pc}

000056cc <_ZN7Serial_5flushEv>:
    56cc:	b510      	push	{r4, lr}
    56ce:	2103      	movs	r1, #3
    56d0:	6900      	ldr	r0, [r0, #16]
    56d2:	f7fc f95b 	bl	198c <_ZN14USBDeviceClass5flushEm>
    56d6:	bd10      	pop	{r4, pc}

000056d8 <_ZN7Serial_5writeEPKhj>:
    56d8:	b510      	push	{r4, lr}
    56da:	0013      	movs	r3, r2
    56dc:	0004      	movs	r4, r0
    56de:	000a      	movs	r2, r1
    56e0:	6900      	ldr	r0, [r0, #16]
    56e2:	2103      	movs	r1, #3
    56e4:	f7fc fa4c 	bl	1b80 <_ZN14USBDeviceClass4sendEmPKvm>
    56e8:	2800      	cmp	r0, #0
    56ea:	d101      	bne.n	56f0 <_ZN7Serial_5writeEPKhj+0x18>
    56ec:	2301      	movs	r3, #1
    56ee:	6063      	str	r3, [r4, #4]
    56f0:	bd10      	pop	{r4, pc}
	...

000056f4 <_ZN7Serial_4peekEv>:
    56f4:	b510      	push	{r4, lr}
    56f6:	4c05      	ldr	r4, [pc, #20]	; (570c <_ZN7Serial_4peekEv+0x18>)
    56f8:	6823      	ldr	r3, [r4, #0]
    56fa:	1c5a      	adds	r2, r3, #1
    56fc:	d104      	bne.n	5708 <_ZN7Serial_4peekEv+0x14>
    56fe:	6803      	ldr	r3, [r0, #0]
    5700:	695b      	ldr	r3, [r3, #20]
    5702:	4798      	blx	r3
    5704:	0003      	movs	r3, r0
    5706:	6020      	str	r0, [r4, #0]
    5708:	0018      	movs	r0, r3
    570a:	bd10      	pop	{r4, pc}
    570c:	2000009c 	.word	0x2000009c

00005710 <_ZN7Serial_4readEv>:
    5710:	4b07      	ldr	r3, [pc, #28]	; (5730 <_ZN7Serial_4readEv+0x20>)
    5712:	0002      	movs	r2, r0
    5714:	6818      	ldr	r0, [r3, #0]
    5716:	b510      	push	{r4, lr}
    5718:	1c41      	adds	r1, r0, #1
    571a:	d003      	beq.n	5724 <_ZN7Serial_4readEv+0x14>
    571c:	2201      	movs	r2, #1
    571e:	4252      	negs	r2, r2
    5720:	601a      	str	r2, [r3, #0]
    5722:	bd10      	pop	{r4, pc}
    5724:	2102      	movs	r1, #2
    5726:	6910      	ldr	r0, [r2, #16]
    5728:	f7fc fa1c 	bl	1b64 <_ZN14USBDeviceClass4recvEm>
    572c:	e7f9      	b.n	5722 <_ZN7Serial_4readEv+0x12>
    572e:	46c0      	nop			; (mov r8, r8)
    5730:	2000009c 	.word	0x2000009c

00005734 <_Z16CDC_GetInterfacePh>:
    5734:	b510      	push	{r4, lr}
    5736:	7803      	ldrb	r3, [r0, #0]
    5738:	2242      	movs	r2, #66	; 0x42
    573a:	3302      	adds	r3, #2
    573c:	7003      	strb	r3, [r0, #0]
    573e:	4902      	ldr	r1, [pc, #8]	; (5748 <_Z16CDC_GetInterfacePh+0x14>)
    5740:	4802      	ldr	r0, [pc, #8]	; (574c <_Z16CDC_GetInterfacePh+0x18>)
    5742:	f7fc fac9 	bl	1cd8 <_ZN14USBDeviceClass11sendControlEPKvm>
    5746:	bd10      	pop	{r4, pc}
    5748:	20000058 	.word	0x20000058
    574c:	200001c8 	.word	0x200001c8

00005750 <_Z9CDC_SetupR8USBSetup>:
    5750:	b510      	push	{r4, lr}
    5752:	7801      	ldrb	r1, [r0, #0]
    5754:	0003      	movs	r3, r0
    5756:	7842      	ldrb	r2, [r0, #1]
    5758:	2000      	movs	r0, #0
    575a:	29a1      	cmp	r1, #161	; 0xa1
    575c:	d108      	bne.n	5770 <_Z9CDC_SetupR8USBSetup+0x20>
    575e:	2a21      	cmp	r2, #33	; 0x21
    5760:	d105      	bne.n	576e <_Z9CDC_SetupR8USBSetup+0x1e>
    5762:	3a1a      	subs	r2, #26
    5764:	4916      	ldr	r1, [pc, #88]	; (57c0 <_Z9CDC_SetupR8USBSetup+0x70>)
    5766:	4817      	ldr	r0, [pc, #92]	; (57c4 <_Z9CDC_SetupR8USBSetup+0x74>)
    5768:	f7fc fab6 	bl	1cd8 <_ZN14USBDeviceClass11sendControlEPKvm>
    576c:	2001      	movs	r0, #1
    576e:	bd10      	pop	{r4, pc}
    5770:	2921      	cmp	r1, #33	; 0x21
    5772:	d1fc      	bne.n	576e <_Z9CDC_SetupR8USBSetup+0x1e>
    5774:	2a20      	cmp	r2, #32
    5776:	d111      	bne.n	579c <_Z9CDC_SetupR8USBSetup+0x4c>
    5778:	3a19      	subs	r2, #25
    577a:	4911      	ldr	r1, [pc, #68]	; (57c0 <_Z9CDC_SetupR8USBSetup+0x70>)
    577c:	4811      	ldr	r0, [pc, #68]	; (57c4 <_Z9CDC_SetupR8USBSetup+0x74>)
    577e:	f7fc f949 	bl	1a14 <_ZN14USBDeviceClass11recvControlEPvm>
    5782:	2296      	movs	r2, #150	; 0x96
    5784:	4b0e      	ldr	r3, [pc, #56]	; (57c0 <_Z9CDC_SetupR8USBSetup+0x70>)
    5786:	00d2      	lsls	r2, r2, #3
    5788:	6819      	ldr	r1, [r3, #0]
    578a:	4291      	cmp	r1, r2
    578c:	d103      	bne.n	5796 <_Z9CDC_SetupR8USBSetup+0x46>
    578e:	2401      	movs	r4, #1
    5790:	79d8      	ldrb	r0, [r3, #7]
    5792:	4004      	ands	r4, r0
    5794:	d00e      	beq.n	57b4 <_Z9CDC_SetupR8USBSetup+0x64>
    5796:	f7fb fa55 	bl	c44 <cancelReset>
    579a:	e00e      	b.n	57ba <_Z9CDC_SetupR8USBSetup+0x6a>
    579c:	2a22      	cmp	r2, #34	; 0x22
    579e:	d103      	bne.n	57a8 <_Z9CDC_SetupR8USBSetup+0x58>
    57a0:	789a      	ldrb	r2, [r3, #2]
    57a2:	4b07      	ldr	r3, [pc, #28]	; (57c0 <_Z9CDC_SetupR8USBSetup+0x70>)
    57a4:	71da      	strb	r2, [r3, #7]
    57a6:	e7ec      	b.n	5782 <_Z9CDC_SetupR8USBSetup+0x32>
    57a8:	2a23      	cmp	r2, #35	; 0x23
    57aa:	d1e0      	bne.n	576e <_Z9CDC_SetupR8USBSetup+0x1e>
    57ac:	885a      	ldrh	r2, [r3, #2]
    57ae:	4b06      	ldr	r3, [pc, #24]	; (57c8 <_Z9CDC_SetupR8USBSetup+0x78>)
    57b0:	601a      	str	r2, [r3, #0]
    57b2:	e7dc      	b.n	576e <_Z9CDC_SetupR8USBSetup+0x1e>
    57b4:	20fa      	movs	r0, #250	; 0xfa
    57b6:	f7fb fa3f 	bl	c38 <initiateReset>
    57ba:	2000      	movs	r0, #0
    57bc:	e7d7      	b.n	576e <_Z9CDC_SetupR8USBSetup+0x1e>
    57be:	46c0      	nop			; (mov r8, r8)
    57c0:	20000050 	.word	0x20000050
    57c4:	200001c8 	.word	0x200001c8
    57c8:	2000004c 	.word	0x2000004c

000057cc <_GLOBAL__sub_I__Z17_CDC_GetInterfacev>:
    57cc:	22fa      	movs	r2, #250	; 0xfa
    57ce:	2100      	movs	r1, #0
    57d0:	4b05      	ldr	r3, [pc, #20]	; (57e8 <_GLOBAL__sub_I__Z17_CDC_GetInterfacev+0x1c>)
    57d2:	0092      	lsls	r2, r2, #2
    57d4:	609a      	str	r2, [r3, #8]
    57d6:	4a05      	ldr	r2, [pc, #20]	; (57ec <_GLOBAL__sub_I__Z17_CDC_GetInterfacev+0x20>)
    57d8:	6059      	str	r1, [r3, #4]
    57da:	3208      	adds	r2, #8
    57dc:	601a      	str	r2, [r3, #0]
    57de:	4a04      	ldr	r2, [pc, #16]	; (57f0 <_GLOBAL__sub_I__Z17_CDC_GetInterfacev+0x24>)
    57e0:	7619      	strb	r1, [r3, #24]
    57e2:	611a      	str	r2, [r3, #16]
    57e4:	4770      	bx	lr
    57e6:	46c0      	nop			; (mov r8, r8)
    57e8:	20000de0 	.word	0x20000de0
    57ec:	00006b58 	.word	0x00006b58
    57f0:	200001c8 	.word	0x200001c8

000057f4 <_ZN13PluggableUSB_12getInterfaceEPh>:
    57f4:	b570      	push	{r4, r5, r6, lr}
    57f6:	000e      	movs	r6, r1
    57f8:	2500      	movs	r5, #0
    57fa:	6844      	ldr	r4, [r0, #4]
    57fc:	2c00      	cmp	r4, #0
    57fe:	d00b      	beq.n	5818 <_ZN13PluggableUSB_12getInterfaceEPh+0x24>
    5800:	6823      	ldr	r3, [r4, #0]
    5802:	0031      	movs	r1, r6
    5804:	685b      	ldr	r3, [r3, #4]
    5806:	0020      	movs	r0, r4
    5808:	4798      	blx	r3
    580a:	2800      	cmp	r0, #0
    580c:	db02      	blt.n	5814 <_ZN13PluggableUSB_12getInterfaceEPh+0x20>
    580e:	182d      	adds	r5, r5, r0
    5810:	68e4      	ldr	r4, [r4, #12]
    5812:	e7f3      	b.n	57fc <_ZN13PluggableUSB_12getInterfaceEPh+0x8>
    5814:	2501      	movs	r5, #1
    5816:	426d      	negs	r5, r5
    5818:	0028      	movs	r0, r5
    581a:	bd70      	pop	{r4, r5, r6, pc}

0000581c <_ZN13PluggableUSB_13getDescriptorER8USBSetup>:
    581c:	b570      	push	{r4, r5, r6, lr}
    581e:	000d      	movs	r5, r1
    5820:	6844      	ldr	r4, [r0, #4]
    5822:	2c00      	cmp	r4, #0
    5824:	d008      	beq.n	5838 <_ZN13PluggableUSB_13getDescriptorER8USBSetup+0x1c>
    5826:	6823      	ldr	r3, [r4, #0]
    5828:	0029      	movs	r1, r5
    582a:	689b      	ldr	r3, [r3, #8]
    582c:	0020      	movs	r0, r4
    582e:	4798      	blx	r3
    5830:	2800      	cmp	r0, #0
    5832:	d102      	bne.n	583a <_ZN13PluggableUSB_13getDescriptorER8USBSetup+0x1e>
    5834:	68e4      	ldr	r4, [r4, #12]
    5836:	e7f4      	b.n	5822 <_ZN13PluggableUSB_13getDescriptorER8USBSetup+0x6>
    5838:	0020      	movs	r0, r4
    583a:	bd70      	pop	{r4, r5, r6, pc}

0000583c <_ZN13PluggableUSB_12getShortNameEPc>:
    583c:	b570      	push	{r4, r5, r6, lr}
    583e:	000d      	movs	r5, r1
    5840:	6844      	ldr	r4, [r0, #4]
    5842:	2c00      	cmp	r4, #0
    5844:	d007      	beq.n	5856 <_ZN13PluggableUSB_12getShortNameEPc+0x1a>
    5846:	6823      	ldr	r3, [r4, #0]
    5848:	0029      	movs	r1, r5
    584a:	0020      	movs	r0, r4
    584c:	68db      	ldr	r3, [r3, #12]
    584e:	4798      	blx	r3
    5850:	68e4      	ldr	r4, [r4, #12]
    5852:	182d      	adds	r5, r5, r0
    5854:	e7f5      	b.n	5842 <_ZN13PluggableUSB_12getShortNameEPc+0x6>
    5856:	702c      	strb	r4, [r5, #0]
    5858:	bd70      	pop	{r4, r5, r6, pc}

0000585a <_ZN13PluggableUSB_5setupER8USBSetup>:
    585a:	b570      	push	{r4, r5, r6, lr}
    585c:	000d      	movs	r5, r1
    585e:	6844      	ldr	r4, [r0, #4]
    5860:	2c00      	cmp	r4, #0
    5862:	d008      	beq.n	5876 <_ZN13PluggableUSB_5setupER8USBSetup+0x1c>
    5864:	6823      	ldr	r3, [r4, #0]
    5866:	0029      	movs	r1, r5
    5868:	681b      	ldr	r3, [r3, #0]
    586a:	0020      	movs	r0, r4
    586c:	4798      	blx	r3
    586e:	2800      	cmp	r0, #0
    5870:	d102      	bne.n	5878 <_ZN13PluggableUSB_5setupER8USBSetup+0x1e>
    5872:	68e4      	ldr	r4, [r4, #12]
    5874:	e7f4      	b.n	5860 <_ZN13PluggableUSB_5setupER8USBSetup+0x6>
    5876:	0020      	movs	r0, r4
    5878:	bd70      	pop	{r4, r5, r6, pc}
	...

0000587c <_Z12PluggableUSBv>:
    587c:	2101      	movs	r1, #1
    587e:	4a06      	ldr	r2, [pc, #24]	; (5898 <_Z12PluggableUSBv+0x1c>)
    5880:	b510      	push	{r4, lr}
    5882:	6813      	ldr	r3, [r2, #0]
    5884:	4805      	ldr	r0, [pc, #20]	; (589c <_Z12PluggableUSBv+0x20>)
    5886:	400b      	ands	r3, r1
    5888:	d105      	bne.n	5896 <_Z12PluggableUSBv+0x1a>
    588a:	2402      	movs	r4, #2
    588c:	7004      	strb	r4, [r0, #0]
    588e:	1924      	adds	r4, r4, r4
    5890:	7044      	strb	r4, [r0, #1]
    5892:	6043      	str	r3, [r0, #4]
    5894:	6011      	str	r1, [r2, #0]
    5896:	bd10      	pop	{r4, pc}
    5898:	20000dfc 	.word	0x20000dfc
    589c:	20000e00 	.word	0x20000e00

000058a0 <__gnu_thumb1_case_uqi>:
    58a0:	b402      	push	{r1}
    58a2:	4671      	mov	r1, lr
    58a4:	0849      	lsrs	r1, r1, #1
    58a6:	0049      	lsls	r1, r1, #1
    58a8:	5c09      	ldrb	r1, [r1, r0]
    58aa:	0049      	lsls	r1, r1, #1
    58ac:	448e      	add	lr, r1
    58ae:	bc02      	pop	{r1}
    58b0:	4770      	bx	lr
    58b2:	46c0      	nop			; (mov r8, r8)

000058b4 <__udivsi3>:
    58b4:	2200      	movs	r2, #0
    58b6:	0843      	lsrs	r3, r0, #1
    58b8:	428b      	cmp	r3, r1
    58ba:	d374      	bcc.n	59a6 <__udivsi3+0xf2>
    58bc:	0903      	lsrs	r3, r0, #4
    58be:	428b      	cmp	r3, r1
    58c0:	d35f      	bcc.n	5982 <__udivsi3+0xce>
    58c2:	0a03      	lsrs	r3, r0, #8
    58c4:	428b      	cmp	r3, r1
    58c6:	d344      	bcc.n	5952 <__udivsi3+0x9e>
    58c8:	0b03      	lsrs	r3, r0, #12
    58ca:	428b      	cmp	r3, r1
    58cc:	d328      	bcc.n	5920 <__udivsi3+0x6c>
    58ce:	0c03      	lsrs	r3, r0, #16
    58d0:	428b      	cmp	r3, r1
    58d2:	d30d      	bcc.n	58f0 <__udivsi3+0x3c>
    58d4:	22ff      	movs	r2, #255	; 0xff
    58d6:	0209      	lsls	r1, r1, #8
    58d8:	ba12      	rev	r2, r2
    58da:	0c03      	lsrs	r3, r0, #16
    58dc:	428b      	cmp	r3, r1
    58de:	d302      	bcc.n	58e6 <__udivsi3+0x32>
    58e0:	1212      	asrs	r2, r2, #8
    58e2:	0209      	lsls	r1, r1, #8
    58e4:	d065      	beq.n	59b2 <__udivsi3+0xfe>
    58e6:	0b03      	lsrs	r3, r0, #12
    58e8:	428b      	cmp	r3, r1
    58ea:	d319      	bcc.n	5920 <__udivsi3+0x6c>
    58ec:	e000      	b.n	58f0 <__udivsi3+0x3c>
    58ee:	0a09      	lsrs	r1, r1, #8
    58f0:	0bc3      	lsrs	r3, r0, #15
    58f2:	428b      	cmp	r3, r1
    58f4:	d301      	bcc.n	58fa <__udivsi3+0x46>
    58f6:	03cb      	lsls	r3, r1, #15
    58f8:	1ac0      	subs	r0, r0, r3
    58fa:	4152      	adcs	r2, r2
    58fc:	0b83      	lsrs	r3, r0, #14
    58fe:	428b      	cmp	r3, r1
    5900:	d301      	bcc.n	5906 <__udivsi3+0x52>
    5902:	038b      	lsls	r3, r1, #14
    5904:	1ac0      	subs	r0, r0, r3
    5906:	4152      	adcs	r2, r2
    5908:	0b43      	lsrs	r3, r0, #13
    590a:	428b      	cmp	r3, r1
    590c:	d301      	bcc.n	5912 <__udivsi3+0x5e>
    590e:	034b      	lsls	r3, r1, #13
    5910:	1ac0      	subs	r0, r0, r3
    5912:	4152      	adcs	r2, r2
    5914:	0b03      	lsrs	r3, r0, #12
    5916:	428b      	cmp	r3, r1
    5918:	d301      	bcc.n	591e <__udivsi3+0x6a>
    591a:	030b      	lsls	r3, r1, #12
    591c:	1ac0      	subs	r0, r0, r3
    591e:	4152      	adcs	r2, r2
    5920:	0ac3      	lsrs	r3, r0, #11
    5922:	428b      	cmp	r3, r1
    5924:	d301      	bcc.n	592a <__udivsi3+0x76>
    5926:	02cb      	lsls	r3, r1, #11
    5928:	1ac0      	subs	r0, r0, r3
    592a:	4152      	adcs	r2, r2
    592c:	0a83      	lsrs	r3, r0, #10
    592e:	428b      	cmp	r3, r1
    5930:	d301      	bcc.n	5936 <__udivsi3+0x82>
    5932:	028b      	lsls	r3, r1, #10
    5934:	1ac0      	subs	r0, r0, r3
    5936:	4152      	adcs	r2, r2
    5938:	0a43      	lsrs	r3, r0, #9
    593a:	428b      	cmp	r3, r1
    593c:	d301      	bcc.n	5942 <__udivsi3+0x8e>
    593e:	024b      	lsls	r3, r1, #9
    5940:	1ac0      	subs	r0, r0, r3
    5942:	4152      	adcs	r2, r2
    5944:	0a03      	lsrs	r3, r0, #8
    5946:	428b      	cmp	r3, r1
    5948:	d301      	bcc.n	594e <__udivsi3+0x9a>
    594a:	020b      	lsls	r3, r1, #8
    594c:	1ac0      	subs	r0, r0, r3
    594e:	4152      	adcs	r2, r2
    5950:	d2cd      	bcs.n	58ee <__udivsi3+0x3a>
    5952:	09c3      	lsrs	r3, r0, #7
    5954:	428b      	cmp	r3, r1
    5956:	d301      	bcc.n	595c <__udivsi3+0xa8>
    5958:	01cb      	lsls	r3, r1, #7
    595a:	1ac0      	subs	r0, r0, r3
    595c:	4152      	adcs	r2, r2
    595e:	0983      	lsrs	r3, r0, #6
    5960:	428b      	cmp	r3, r1
    5962:	d301      	bcc.n	5968 <__udivsi3+0xb4>
    5964:	018b      	lsls	r3, r1, #6
    5966:	1ac0      	subs	r0, r0, r3
    5968:	4152      	adcs	r2, r2
    596a:	0943      	lsrs	r3, r0, #5
    596c:	428b      	cmp	r3, r1
    596e:	d301      	bcc.n	5974 <__udivsi3+0xc0>
    5970:	014b      	lsls	r3, r1, #5
    5972:	1ac0      	subs	r0, r0, r3
    5974:	4152      	adcs	r2, r2
    5976:	0903      	lsrs	r3, r0, #4
    5978:	428b      	cmp	r3, r1
    597a:	d301      	bcc.n	5980 <__udivsi3+0xcc>
    597c:	010b      	lsls	r3, r1, #4
    597e:	1ac0      	subs	r0, r0, r3
    5980:	4152      	adcs	r2, r2
    5982:	08c3      	lsrs	r3, r0, #3
    5984:	428b      	cmp	r3, r1
    5986:	d301      	bcc.n	598c <__udivsi3+0xd8>
    5988:	00cb      	lsls	r3, r1, #3
    598a:	1ac0      	subs	r0, r0, r3
    598c:	4152      	adcs	r2, r2
    598e:	0883      	lsrs	r3, r0, #2
    5990:	428b      	cmp	r3, r1
    5992:	d301      	bcc.n	5998 <__udivsi3+0xe4>
    5994:	008b      	lsls	r3, r1, #2
    5996:	1ac0      	subs	r0, r0, r3
    5998:	4152      	adcs	r2, r2
    599a:	0843      	lsrs	r3, r0, #1
    599c:	428b      	cmp	r3, r1
    599e:	d301      	bcc.n	59a4 <__udivsi3+0xf0>
    59a0:	004b      	lsls	r3, r1, #1
    59a2:	1ac0      	subs	r0, r0, r3
    59a4:	4152      	adcs	r2, r2
    59a6:	1a41      	subs	r1, r0, r1
    59a8:	d200      	bcs.n	59ac <__udivsi3+0xf8>
    59aa:	4601      	mov	r1, r0
    59ac:	4152      	adcs	r2, r2
    59ae:	4610      	mov	r0, r2
    59b0:	4770      	bx	lr
    59b2:	e7ff      	b.n	59b4 <__udivsi3+0x100>
    59b4:	b501      	push	{r0, lr}
    59b6:	2000      	movs	r0, #0
    59b8:	f000 f8f0 	bl	5b9c <__aeabi_idiv0>
    59bc:	bd02      	pop	{r1, pc}
    59be:	46c0      	nop			; (mov r8, r8)

000059c0 <__aeabi_uidivmod>:
    59c0:	2900      	cmp	r1, #0
    59c2:	d0f7      	beq.n	59b4 <__udivsi3+0x100>
    59c4:	e776      	b.n	58b4 <__udivsi3>
    59c6:	4770      	bx	lr

000059c8 <__divsi3>:
    59c8:	4603      	mov	r3, r0
    59ca:	430b      	orrs	r3, r1
    59cc:	d47f      	bmi.n	5ace <__divsi3+0x106>
    59ce:	2200      	movs	r2, #0
    59d0:	0843      	lsrs	r3, r0, #1
    59d2:	428b      	cmp	r3, r1
    59d4:	d374      	bcc.n	5ac0 <__divsi3+0xf8>
    59d6:	0903      	lsrs	r3, r0, #4
    59d8:	428b      	cmp	r3, r1
    59da:	d35f      	bcc.n	5a9c <__divsi3+0xd4>
    59dc:	0a03      	lsrs	r3, r0, #8
    59de:	428b      	cmp	r3, r1
    59e0:	d344      	bcc.n	5a6c <__divsi3+0xa4>
    59e2:	0b03      	lsrs	r3, r0, #12
    59e4:	428b      	cmp	r3, r1
    59e6:	d328      	bcc.n	5a3a <__divsi3+0x72>
    59e8:	0c03      	lsrs	r3, r0, #16
    59ea:	428b      	cmp	r3, r1
    59ec:	d30d      	bcc.n	5a0a <__divsi3+0x42>
    59ee:	22ff      	movs	r2, #255	; 0xff
    59f0:	0209      	lsls	r1, r1, #8
    59f2:	ba12      	rev	r2, r2
    59f4:	0c03      	lsrs	r3, r0, #16
    59f6:	428b      	cmp	r3, r1
    59f8:	d302      	bcc.n	5a00 <__divsi3+0x38>
    59fa:	1212      	asrs	r2, r2, #8
    59fc:	0209      	lsls	r1, r1, #8
    59fe:	d065      	beq.n	5acc <__divsi3+0x104>
    5a00:	0b03      	lsrs	r3, r0, #12
    5a02:	428b      	cmp	r3, r1
    5a04:	d319      	bcc.n	5a3a <__divsi3+0x72>
    5a06:	e000      	b.n	5a0a <__divsi3+0x42>
    5a08:	0a09      	lsrs	r1, r1, #8
    5a0a:	0bc3      	lsrs	r3, r0, #15
    5a0c:	428b      	cmp	r3, r1
    5a0e:	d301      	bcc.n	5a14 <__divsi3+0x4c>
    5a10:	03cb      	lsls	r3, r1, #15
    5a12:	1ac0      	subs	r0, r0, r3
    5a14:	4152      	adcs	r2, r2
    5a16:	0b83      	lsrs	r3, r0, #14
    5a18:	428b      	cmp	r3, r1
    5a1a:	d301      	bcc.n	5a20 <__divsi3+0x58>
    5a1c:	038b      	lsls	r3, r1, #14
    5a1e:	1ac0      	subs	r0, r0, r3
    5a20:	4152      	adcs	r2, r2
    5a22:	0b43      	lsrs	r3, r0, #13
    5a24:	428b      	cmp	r3, r1
    5a26:	d301      	bcc.n	5a2c <__divsi3+0x64>
    5a28:	034b      	lsls	r3, r1, #13
    5a2a:	1ac0      	subs	r0, r0, r3
    5a2c:	4152      	adcs	r2, r2
    5a2e:	0b03      	lsrs	r3, r0, #12
    5a30:	428b      	cmp	r3, r1
    5a32:	d301      	bcc.n	5a38 <__divsi3+0x70>
    5a34:	030b      	lsls	r3, r1, #12
    5a36:	1ac0      	subs	r0, r0, r3
    5a38:	4152      	adcs	r2, r2
    5a3a:	0ac3      	lsrs	r3, r0, #11
    5a3c:	428b      	cmp	r3, r1
    5a3e:	d301      	bcc.n	5a44 <__divsi3+0x7c>
    5a40:	02cb      	lsls	r3, r1, #11
    5a42:	1ac0      	subs	r0, r0, r3
    5a44:	4152      	adcs	r2, r2
    5a46:	0a83      	lsrs	r3, r0, #10
    5a48:	428b      	cmp	r3, r1
    5a4a:	d301      	bcc.n	5a50 <__divsi3+0x88>
    5a4c:	028b      	lsls	r3, r1, #10
    5a4e:	1ac0      	subs	r0, r0, r3
    5a50:	4152      	adcs	r2, r2
    5a52:	0a43      	lsrs	r3, r0, #9
    5a54:	428b      	cmp	r3, r1
    5a56:	d301      	bcc.n	5a5c <__divsi3+0x94>
    5a58:	024b      	lsls	r3, r1, #9
    5a5a:	1ac0      	subs	r0, r0, r3
    5a5c:	4152      	adcs	r2, r2
    5a5e:	0a03      	lsrs	r3, r0, #8
    5a60:	428b      	cmp	r3, r1
    5a62:	d301      	bcc.n	5a68 <__divsi3+0xa0>
    5a64:	020b      	lsls	r3, r1, #8
    5a66:	1ac0      	subs	r0, r0, r3
    5a68:	4152      	adcs	r2, r2
    5a6a:	d2cd      	bcs.n	5a08 <__divsi3+0x40>
    5a6c:	09c3      	lsrs	r3, r0, #7
    5a6e:	428b      	cmp	r3, r1
    5a70:	d301      	bcc.n	5a76 <__divsi3+0xae>
    5a72:	01cb      	lsls	r3, r1, #7
    5a74:	1ac0      	subs	r0, r0, r3
    5a76:	4152      	adcs	r2, r2
    5a78:	0983      	lsrs	r3, r0, #6
    5a7a:	428b      	cmp	r3, r1
    5a7c:	d301      	bcc.n	5a82 <__divsi3+0xba>
    5a7e:	018b      	lsls	r3, r1, #6
    5a80:	1ac0      	subs	r0, r0, r3
    5a82:	4152      	adcs	r2, r2
    5a84:	0943      	lsrs	r3, r0, #5
    5a86:	428b      	cmp	r3, r1
    5a88:	d301      	bcc.n	5a8e <__divsi3+0xc6>
    5a8a:	014b      	lsls	r3, r1, #5
    5a8c:	1ac0      	subs	r0, r0, r3
    5a8e:	4152      	adcs	r2, r2
    5a90:	0903      	lsrs	r3, r0, #4
    5a92:	428b      	cmp	r3, r1
    5a94:	d301      	bcc.n	5a9a <__divsi3+0xd2>
    5a96:	010b      	lsls	r3, r1, #4
    5a98:	1ac0      	subs	r0, r0, r3
    5a9a:	4152      	adcs	r2, r2
    5a9c:	08c3      	lsrs	r3, r0, #3
    5a9e:	428b      	cmp	r3, r1
    5aa0:	d301      	bcc.n	5aa6 <__divsi3+0xde>
    5aa2:	00cb      	lsls	r3, r1, #3
    5aa4:	1ac0      	subs	r0, r0, r3
    5aa6:	4152      	adcs	r2, r2
    5aa8:	0883      	lsrs	r3, r0, #2
    5aaa:	428b      	cmp	r3, r1
    5aac:	d301      	bcc.n	5ab2 <__divsi3+0xea>
    5aae:	008b      	lsls	r3, r1, #2
    5ab0:	1ac0      	subs	r0, r0, r3
    5ab2:	4152      	adcs	r2, r2
    5ab4:	0843      	lsrs	r3, r0, #1
    5ab6:	428b      	cmp	r3, r1
    5ab8:	d301      	bcc.n	5abe <__divsi3+0xf6>
    5aba:	004b      	lsls	r3, r1, #1
    5abc:	1ac0      	subs	r0, r0, r3
    5abe:	4152      	adcs	r2, r2
    5ac0:	1a41      	subs	r1, r0, r1
    5ac2:	d200      	bcs.n	5ac6 <__divsi3+0xfe>
    5ac4:	4601      	mov	r1, r0
    5ac6:	4152      	adcs	r2, r2
    5ac8:	4610      	mov	r0, r2
    5aca:	4770      	bx	lr
    5acc:	e05d      	b.n	5b8a <__divsi3+0x1c2>
    5ace:	0fca      	lsrs	r2, r1, #31
    5ad0:	d000      	beq.n	5ad4 <__divsi3+0x10c>
    5ad2:	4249      	negs	r1, r1
    5ad4:	1003      	asrs	r3, r0, #32
    5ad6:	d300      	bcc.n	5ada <__divsi3+0x112>
    5ad8:	4240      	negs	r0, r0
    5ada:	4053      	eors	r3, r2
    5adc:	2200      	movs	r2, #0
    5ade:	469c      	mov	ip, r3
    5ae0:	0903      	lsrs	r3, r0, #4
    5ae2:	428b      	cmp	r3, r1
    5ae4:	d32d      	bcc.n	5b42 <__divsi3+0x17a>
    5ae6:	0a03      	lsrs	r3, r0, #8
    5ae8:	428b      	cmp	r3, r1
    5aea:	d312      	bcc.n	5b12 <__divsi3+0x14a>
    5aec:	22fc      	movs	r2, #252	; 0xfc
    5aee:	0189      	lsls	r1, r1, #6
    5af0:	ba12      	rev	r2, r2
    5af2:	0a03      	lsrs	r3, r0, #8
    5af4:	428b      	cmp	r3, r1
    5af6:	d30c      	bcc.n	5b12 <__divsi3+0x14a>
    5af8:	0189      	lsls	r1, r1, #6
    5afa:	1192      	asrs	r2, r2, #6
    5afc:	428b      	cmp	r3, r1
    5afe:	d308      	bcc.n	5b12 <__divsi3+0x14a>
    5b00:	0189      	lsls	r1, r1, #6
    5b02:	1192      	asrs	r2, r2, #6
    5b04:	428b      	cmp	r3, r1
    5b06:	d304      	bcc.n	5b12 <__divsi3+0x14a>
    5b08:	0189      	lsls	r1, r1, #6
    5b0a:	d03a      	beq.n	5b82 <__divsi3+0x1ba>
    5b0c:	1192      	asrs	r2, r2, #6
    5b0e:	e000      	b.n	5b12 <__divsi3+0x14a>
    5b10:	0989      	lsrs	r1, r1, #6
    5b12:	09c3      	lsrs	r3, r0, #7
    5b14:	428b      	cmp	r3, r1
    5b16:	d301      	bcc.n	5b1c <__divsi3+0x154>
    5b18:	01cb      	lsls	r3, r1, #7
    5b1a:	1ac0      	subs	r0, r0, r3
    5b1c:	4152      	adcs	r2, r2
    5b1e:	0983      	lsrs	r3, r0, #6
    5b20:	428b      	cmp	r3, r1
    5b22:	d301      	bcc.n	5b28 <__divsi3+0x160>
    5b24:	018b      	lsls	r3, r1, #6
    5b26:	1ac0      	subs	r0, r0, r3
    5b28:	4152      	adcs	r2, r2
    5b2a:	0943      	lsrs	r3, r0, #5
    5b2c:	428b      	cmp	r3, r1
    5b2e:	d301      	bcc.n	5b34 <__divsi3+0x16c>
    5b30:	014b      	lsls	r3, r1, #5
    5b32:	1ac0      	subs	r0, r0, r3
    5b34:	4152      	adcs	r2, r2
    5b36:	0903      	lsrs	r3, r0, #4
    5b38:	428b      	cmp	r3, r1
    5b3a:	d301      	bcc.n	5b40 <__divsi3+0x178>
    5b3c:	010b      	lsls	r3, r1, #4
    5b3e:	1ac0      	subs	r0, r0, r3
    5b40:	4152      	adcs	r2, r2
    5b42:	08c3      	lsrs	r3, r0, #3
    5b44:	428b      	cmp	r3, r1
    5b46:	d301      	bcc.n	5b4c <__divsi3+0x184>
    5b48:	00cb      	lsls	r3, r1, #3
    5b4a:	1ac0      	subs	r0, r0, r3
    5b4c:	4152      	adcs	r2, r2
    5b4e:	0883      	lsrs	r3, r0, #2
    5b50:	428b      	cmp	r3, r1
    5b52:	d301      	bcc.n	5b58 <__divsi3+0x190>
    5b54:	008b      	lsls	r3, r1, #2
    5b56:	1ac0      	subs	r0, r0, r3
    5b58:	4152      	adcs	r2, r2
    5b5a:	d2d9      	bcs.n	5b10 <__divsi3+0x148>
    5b5c:	0843      	lsrs	r3, r0, #1
    5b5e:	428b      	cmp	r3, r1
    5b60:	d301      	bcc.n	5b66 <__divsi3+0x19e>
    5b62:	004b      	lsls	r3, r1, #1
    5b64:	1ac0      	subs	r0, r0, r3
    5b66:	4152      	adcs	r2, r2
    5b68:	1a41      	subs	r1, r0, r1
    5b6a:	d200      	bcs.n	5b6e <__divsi3+0x1a6>
    5b6c:	4601      	mov	r1, r0
    5b6e:	4663      	mov	r3, ip
    5b70:	4152      	adcs	r2, r2
    5b72:	105b      	asrs	r3, r3, #1
    5b74:	4610      	mov	r0, r2
    5b76:	d301      	bcc.n	5b7c <__divsi3+0x1b4>
    5b78:	4240      	negs	r0, r0
    5b7a:	2b00      	cmp	r3, #0
    5b7c:	d500      	bpl.n	5b80 <__divsi3+0x1b8>
    5b7e:	4249      	negs	r1, r1
    5b80:	4770      	bx	lr
    5b82:	4663      	mov	r3, ip
    5b84:	105b      	asrs	r3, r3, #1
    5b86:	d300      	bcc.n	5b8a <__divsi3+0x1c2>
    5b88:	4240      	negs	r0, r0
    5b8a:	b501      	push	{r0, lr}
    5b8c:	2000      	movs	r0, #0
    5b8e:	f000 f805 	bl	5b9c <__aeabi_idiv0>
    5b92:	bd02      	pop	{r1, pc}

00005b94 <__aeabi_idivmod>:
    5b94:	2900      	cmp	r1, #0
    5b96:	d0f8      	beq.n	5b8a <__divsi3+0x1c2>
    5b98:	e716      	b.n	59c8 <__divsi3>
    5b9a:	4770      	bx	lr

00005b9c <__aeabi_idiv0>:
    5b9c:	4770      	bx	lr
    5b9e:	46c0      	nop			; (mov r8, r8)

00005ba0 <__libc_init_array>:
    5ba0:	b570      	push	{r4, r5, r6, lr}
    5ba2:	2600      	movs	r6, #0
    5ba4:	4d0c      	ldr	r5, [pc, #48]	; (5bd8 <__libc_init_array+0x38>)
    5ba6:	4c0d      	ldr	r4, [pc, #52]	; (5bdc <__libc_init_array+0x3c>)
    5ba8:	1b64      	subs	r4, r4, r5
    5baa:	10a4      	asrs	r4, r4, #2
    5bac:	42a6      	cmp	r6, r4
    5bae:	d109      	bne.n	5bc4 <__libc_init_array+0x24>
    5bb0:	2600      	movs	r6, #0
    5bb2:	f000 f981 	bl	5eb8 <_init>
    5bb6:	4d0a      	ldr	r5, [pc, #40]	; (5be0 <__libc_init_array+0x40>)
    5bb8:	4c0a      	ldr	r4, [pc, #40]	; (5be4 <__libc_init_array+0x44>)
    5bba:	1b64      	subs	r4, r4, r5
    5bbc:	10a4      	asrs	r4, r4, #2
    5bbe:	42a6      	cmp	r6, r4
    5bc0:	d105      	bne.n	5bce <__libc_init_array+0x2e>
    5bc2:	bd70      	pop	{r4, r5, r6, pc}
    5bc4:	00b3      	lsls	r3, r6, #2
    5bc6:	58eb      	ldr	r3, [r5, r3]
    5bc8:	4798      	blx	r3
    5bca:	3601      	adds	r6, #1
    5bcc:	e7ee      	b.n	5bac <__libc_init_array+0xc>
    5bce:	00b3      	lsls	r3, r6, #2
    5bd0:	58eb      	ldr	r3, [r5, r3]
    5bd2:	4798      	blx	r3
    5bd4:	3601      	adds	r6, #1
    5bd6:	e7f2      	b.n	5bbe <__libc_init_array+0x1e>
    5bd8:	20000104 	.word	0x20000104
    5bdc:	20000104 	.word	0x20000104
    5be0:	20000104 	.word	0x20000104
    5be4:	20000128 	.word	0x20000128

00005be8 <malloc>:
    5be8:	b510      	push	{r4, lr}
    5bea:	4b03      	ldr	r3, [pc, #12]	; (5bf8 <malloc+0x10>)
    5bec:	0001      	movs	r1, r0
    5bee:	6818      	ldr	r0, [r3, #0]
    5bf0:	f000 f878 	bl	5ce4 <_malloc_r>
    5bf4:	bd10      	pop	{r4, pc}
    5bf6:	46c0      	nop			; (mov r8, r8)
    5bf8:	200000a0 	.word	0x200000a0

00005bfc <free>:
    5bfc:	b510      	push	{r4, lr}
    5bfe:	4b03      	ldr	r3, [pc, #12]	; (5c0c <free+0x10>)
    5c00:	0001      	movs	r1, r0
    5c02:	6818      	ldr	r0, [r3, #0]
    5c04:	f000 f824 	bl	5c50 <_free_r>
    5c08:	bd10      	pop	{r4, pc}
    5c0a:	46c0      	nop			; (mov r8, r8)
    5c0c:	200000a0 	.word	0x200000a0

00005c10 <memcmp>:
    5c10:	b530      	push	{r4, r5, lr}
    5c12:	2400      	movs	r4, #0
    5c14:	42a2      	cmp	r2, r4
    5c16:	d101      	bne.n	5c1c <memcmp+0xc>
    5c18:	2000      	movs	r0, #0
    5c1a:	e005      	b.n	5c28 <memcmp+0x18>
    5c1c:	5d03      	ldrb	r3, [r0, r4]
    5c1e:	1c65      	adds	r5, r4, #1
    5c20:	5d0c      	ldrb	r4, [r1, r4]
    5c22:	42a3      	cmp	r3, r4
    5c24:	d001      	beq.n	5c2a <memcmp+0x1a>
    5c26:	1b18      	subs	r0, r3, r4
    5c28:	bd30      	pop	{r4, r5, pc}
    5c2a:	002c      	movs	r4, r5
    5c2c:	e7f2      	b.n	5c14 <memcmp+0x4>

00005c2e <memcpy>:
    5c2e:	2300      	movs	r3, #0
    5c30:	b510      	push	{r4, lr}
    5c32:	429a      	cmp	r2, r3
    5c34:	d100      	bne.n	5c38 <memcpy+0xa>
    5c36:	bd10      	pop	{r4, pc}
    5c38:	5ccc      	ldrb	r4, [r1, r3]
    5c3a:	54c4      	strb	r4, [r0, r3]
    5c3c:	3301      	adds	r3, #1
    5c3e:	e7f8      	b.n	5c32 <memcpy+0x4>

00005c40 <memset>:
    5c40:	0003      	movs	r3, r0
    5c42:	1882      	adds	r2, r0, r2
    5c44:	4293      	cmp	r3, r2
    5c46:	d100      	bne.n	5c4a <memset+0xa>
    5c48:	4770      	bx	lr
    5c4a:	7019      	strb	r1, [r3, #0]
    5c4c:	3301      	adds	r3, #1
    5c4e:	e7f9      	b.n	5c44 <memset+0x4>

00005c50 <_free_r>:
    5c50:	b570      	push	{r4, r5, r6, lr}
    5c52:	0005      	movs	r5, r0
    5c54:	2900      	cmp	r1, #0
    5c56:	d010      	beq.n	5c7a <_free_r+0x2a>
    5c58:	1f0c      	subs	r4, r1, #4
    5c5a:	6823      	ldr	r3, [r4, #0]
    5c5c:	2b00      	cmp	r3, #0
    5c5e:	da00      	bge.n	5c62 <_free_r+0x12>
    5c60:	18e4      	adds	r4, r4, r3
    5c62:	0028      	movs	r0, r5
    5c64:	f000 f8ea 	bl	5e3c <__malloc_lock>
    5c68:	4a1d      	ldr	r2, [pc, #116]	; (5ce0 <_free_r+0x90>)
    5c6a:	6813      	ldr	r3, [r2, #0]
    5c6c:	2b00      	cmp	r3, #0
    5c6e:	d105      	bne.n	5c7c <_free_r+0x2c>
    5c70:	6063      	str	r3, [r4, #4]
    5c72:	6014      	str	r4, [r2, #0]
    5c74:	0028      	movs	r0, r5
    5c76:	f000 f8e2 	bl	5e3e <__malloc_unlock>
    5c7a:	bd70      	pop	{r4, r5, r6, pc}
    5c7c:	42a3      	cmp	r3, r4
    5c7e:	d909      	bls.n	5c94 <_free_r+0x44>
    5c80:	6821      	ldr	r1, [r4, #0]
    5c82:	1860      	adds	r0, r4, r1
    5c84:	4283      	cmp	r3, r0
    5c86:	d1f3      	bne.n	5c70 <_free_r+0x20>
    5c88:	6818      	ldr	r0, [r3, #0]
    5c8a:	685b      	ldr	r3, [r3, #4]
    5c8c:	1841      	adds	r1, r0, r1
    5c8e:	6021      	str	r1, [r4, #0]
    5c90:	e7ee      	b.n	5c70 <_free_r+0x20>
    5c92:	0013      	movs	r3, r2
    5c94:	685a      	ldr	r2, [r3, #4]
    5c96:	2a00      	cmp	r2, #0
    5c98:	d001      	beq.n	5c9e <_free_r+0x4e>
    5c9a:	42a2      	cmp	r2, r4
    5c9c:	d9f9      	bls.n	5c92 <_free_r+0x42>
    5c9e:	6819      	ldr	r1, [r3, #0]
    5ca0:	1858      	adds	r0, r3, r1
    5ca2:	42a0      	cmp	r0, r4
    5ca4:	d10b      	bne.n	5cbe <_free_r+0x6e>
    5ca6:	6820      	ldr	r0, [r4, #0]
    5ca8:	1809      	adds	r1, r1, r0
    5caa:	1858      	adds	r0, r3, r1
    5cac:	6019      	str	r1, [r3, #0]
    5cae:	4282      	cmp	r2, r0
    5cb0:	d1e0      	bne.n	5c74 <_free_r+0x24>
    5cb2:	6810      	ldr	r0, [r2, #0]
    5cb4:	6852      	ldr	r2, [r2, #4]
    5cb6:	1841      	adds	r1, r0, r1
    5cb8:	6019      	str	r1, [r3, #0]
    5cba:	605a      	str	r2, [r3, #4]
    5cbc:	e7da      	b.n	5c74 <_free_r+0x24>
    5cbe:	42a0      	cmp	r0, r4
    5cc0:	d902      	bls.n	5cc8 <_free_r+0x78>
    5cc2:	230c      	movs	r3, #12
    5cc4:	602b      	str	r3, [r5, #0]
    5cc6:	e7d5      	b.n	5c74 <_free_r+0x24>
    5cc8:	6821      	ldr	r1, [r4, #0]
    5cca:	1860      	adds	r0, r4, r1
    5ccc:	4282      	cmp	r2, r0
    5cce:	d103      	bne.n	5cd8 <_free_r+0x88>
    5cd0:	6810      	ldr	r0, [r2, #0]
    5cd2:	6852      	ldr	r2, [r2, #4]
    5cd4:	1841      	adds	r1, r0, r1
    5cd6:	6021      	str	r1, [r4, #0]
    5cd8:	6062      	str	r2, [r4, #4]
    5cda:	605c      	str	r4, [r3, #4]
    5cdc:	e7ca      	b.n	5c74 <_free_r+0x24>
    5cde:	46c0      	nop			; (mov r8, r8)
    5ce0:	20000e08 	.word	0x20000e08

00005ce4 <_malloc_r>:
    5ce4:	2303      	movs	r3, #3
    5ce6:	b570      	push	{r4, r5, r6, lr}
    5ce8:	1ccd      	adds	r5, r1, #3
    5cea:	439d      	bics	r5, r3
    5cec:	3508      	adds	r5, #8
    5cee:	0006      	movs	r6, r0
    5cf0:	2d0c      	cmp	r5, #12
    5cf2:	d21e      	bcs.n	5d32 <_malloc_r+0x4e>
    5cf4:	250c      	movs	r5, #12
    5cf6:	42a9      	cmp	r1, r5
    5cf8:	d81d      	bhi.n	5d36 <_malloc_r+0x52>
    5cfa:	0030      	movs	r0, r6
    5cfc:	f000 f89e 	bl	5e3c <__malloc_lock>
    5d00:	4a25      	ldr	r2, [pc, #148]	; (5d98 <_malloc_r+0xb4>)
    5d02:	6814      	ldr	r4, [r2, #0]
    5d04:	0021      	movs	r1, r4
    5d06:	2900      	cmp	r1, #0
    5d08:	d119      	bne.n	5d3e <_malloc_r+0x5a>
    5d0a:	4c24      	ldr	r4, [pc, #144]	; (5d9c <_malloc_r+0xb8>)
    5d0c:	6823      	ldr	r3, [r4, #0]
    5d0e:	2b00      	cmp	r3, #0
    5d10:	d103      	bne.n	5d1a <_malloc_r+0x36>
    5d12:	0030      	movs	r0, r6
    5d14:	f000 f84e 	bl	5db4 <_sbrk_r>
    5d18:	6020      	str	r0, [r4, #0]
    5d1a:	0029      	movs	r1, r5
    5d1c:	0030      	movs	r0, r6
    5d1e:	f000 f849 	bl	5db4 <_sbrk_r>
    5d22:	1c43      	adds	r3, r0, #1
    5d24:	d12c      	bne.n	5d80 <_malloc_r+0x9c>
    5d26:	230c      	movs	r3, #12
    5d28:	0030      	movs	r0, r6
    5d2a:	6033      	str	r3, [r6, #0]
    5d2c:	f000 f887 	bl	5e3e <__malloc_unlock>
    5d30:	e003      	b.n	5d3a <_malloc_r+0x56>
    5d32:	2d00      	cmp	r5, #0
    5d34:	dadf      	bge.n	5cf6 <_malloc_r+0x12>
    5d36:	230c      	movs	r3, #12
    5d38:	6033      	str	r3, [r6, #0]
    5d3a:	2000      	movs	r0, #0
    5d3c:	bd70      	pop	{r4, r5, r6, pc}
    5d3e:	680b      	ldr	r3, [r1, #0]
    5d40:	1b5b      	subs	r3, r3, r5
    5d42:	d41a      	bmi.n	5d7a <_malloc_r+0x96>
    5d44:	2b0b      	cmp	r3, #11
    5d46:	d903      	bls.n	5d50 <_malloc_r+0x6c>
    5d48:	600b      	str	r3, [r1, #0]
    5d4a:	18cc      	adds	r4, r1, r3
    5d4c:	6025      	str	r5, [r4, #0]
    5d4e:	e003      	b.n	5d58 <_malloc_r+0x74>
    5d50:	428c      	cmp	r4, r1
    5d52:	d10e      	bne.n	5d72 <_malloc_r+0x8e>
    5d54:	6863      	ldr	r3, [r4, #4]
    5d56:	6013      	str	r3, [r2, #0]
    5d58:	0030      	movs	r0, r6
    5d5a:	f000 f870 	bl	5e3e <__malloc_unlock>
    5d5e:	0020      	movs	r0, r4
    5d60:	2207      	movs	r2, #7
    5d62:	300b      	adds	r0, #11
    5d64:	1d23      	adds	r3, r4, #4
    5d66:	4390      	bics	r0, r2
    5d68:	1ac3      	subs	r3, r0, r3
    5d6a:	d0e7      	beq.n	5d3c <_malloc_r+0x58>
    5d6c:	425a      	negs	r2, r3
    5d6e:	50e2      	str	r2, [r4, r3]
    5d70:	e7e4      	b.n	5d3c <_malloc_r+0x58>
    5d72:	684b      	ldr	r3, [r1, #4]
    5d74:	6063      	str	r3, [r4, #4]
    5d76:	000c      	movs	r4, r1
    5d78:	e7ee      	b.n	5d58 <_malloc_r+0x74>
    5d7a:	000c      	movs	r4, r1
    5d7c:	6849      	ldr	r1, [r1, #4]
    5d7e:	e7c2      	b.n	5d06 <_malloc_r+0x22>
    5d80:	2303      	movs	r3, #3
    5d82:	1cc4      	adds	r4, r0, #3
    5d84:	439c      	bics	r4, r3
    5d86:	42a0      	cmp	r0, r4
    5d88:	d0e0      	beq.n	5d4c <_malloc_r+0x68>
    5d8a:	1a21      	subs	r1, r4, r0
    5d8c:	0030      	movs	r0, r6
    5d8e:	f000 f811 	bl	5db4 <_sbrk_r>
    5d92:	1c43      	adds	r3, r0, #1
    5d94:	d1da      	bne.n	5d4c <_malloc_r+0x68>
    5d96:	e7c6      	b.n	5d26 <_malloc_r+0x42>
    5d98:	20000e08 	.word	0x20000e08
    5d9c:	20000e0c 	.word	0x20000e0c

00005da0 <realloc>:
    5da0:	b510      	push	{r4, lr}
    5da2:	4b03      	ldr	r3, [pc, #12]	; (5db0 <realloc+0x10>)
    5da4:	000a      	movs	r2, r1
    5da6:	0001      	movs	r1, r0
    5da8:	6818      	ldr	r0, [r3, #0]
    5daa:	f000 f849 	bl	5e40 <_realloc_r>
    5dae:	bd10      	pop	{r4, pc}
    5db0:	200000a0 	.word	0x200000a0

00005db4 <_sbrk_r>:
    5db4:	2300      	movs	r3, #0
    5db6:	b570      	push	{r4, r5, r6, lr}
    5db8:	4c06      	ldr	r4, [pc, #24]	; (5dd4 <_sbrk_r+0x20>)
    5dba:	0005      	movs	r5, r0
    5dbc:	0008      	movs	r0, r1
    5dbe:	6023      	str	r3, [r4, #0]
    5dc0:	f000 f86c 	bl	5e9c <_sbrk>
    5dc4:	1c43      	adds	r3, r0, #1
    5dc6:	d103      	bne.n	5dd0 <_sbrk_r+0x1c>
    5dc8:	6823      	ldr	r3, [r4, #0]
    5dca:	2b00      	cmp	r3, #0
    5dcc:	d000      	beq.n	5dd0 <_sbrk_r+0x1c>
    5dce:	602b      	str	r3, [r5, #0]
    5dd0:	bd70      	pop	{r4, r5, r6, pc}
    5dd2:	46c0      	nop			; (mov r8, r8)
    5dd4:	20000e14 	.word	0x20000e14

00005dd8 <strchr>:
    5dd8:	b2c9      	uxtb	r1, r1
    5dda:	7803      	ldrb	r3, [r0, #0]
    5ddc:	2b00      	cmp	r3, #0
    5dde:	d004      	beq.n	5dea <strchr+0x12>
    5de0:	4299      	cmp	r1, r3
    5de2:	d100      	bne.n	5de6 <strchr+0xe>
    5de4:	4770      	bx	lr
    5de6:	3001      	adds	r0, #1
    5de8:	e7f7      	b.n	5dda <strchr+0x2>
    5dea:	424b      	negs	r3, r1
    5dec:	4159      	adcs	r1, r3
    5dee:	4249      	negs	r1, r1
    5df0:	4008      	ands	r0, r1
    5df2:	e7f7      	b.n	5de4 <strchr+0xc>

00005df4 <strcpy>:
    5df4:	1c03      	adds	r3, r0, #0
    5df6:	780a      	ldrb	r2, [r1, #0]
    5df8:	3101      	adds	r1, #1
    5dfa:	701a      	strb	r2, [r3, #0]
    5dfc:	3301      	adds	r3, #1
    5dfe:	2a00      	cmp	r2, #0
    5e00:	d1f9      	bne.n	5df6 <strcpy+0x2>
    5e02:	4770      	bx	lr

00005e04 <strlen>:
    5e04:	2300      	movs	r3, #0
    5e06:	5cc2      	ldrb	r2, [r0, r3]
    5e08:	3301      	adds	r3, #1
    5e0a:	2a00      	cmp	r2, #0
    5e0c:	d1fb      	bne.n	5e06 <strlen+0x2>
    5e0e:	1e58      	subs	r0, r3, #1
    5e10:	4770      	bx	lr

00005e12 <strncpy>:
    5e12:	b570      	push	{r4, r5, r6, lr}
    5e14:	0004      	movs	r4, r0
    5e16:	2a00      	cmp	r2, #0
    5e18:	d100      	bne.n	5e1c <strncpy+0xa>
    5e1a:	bd70      	pop	{r4, r5, r6, pc}
    5e1c:	780d      	ldrb	r5, [r1, #0]
    5e1e:	1e56      	subs	r6, r2, #1
    5e20:	1c63      	adds	r3, r4, #1
    5e22:	7025      	strb	r5, [r4, #0]
    5e24:	3101      	adds	r1, #1
    5e26:	2d00      	cmp	r5, #0
    5e28:	d105      	bne.n	5e36 <strncpy+0x24>
    5e2a:	18a4      	adds	r4, r4, r2
    5e2c:	429c      	cmp	r4, r3
    5e2e:	d0f4      	beq.n	5e1a <strncpy+0x8>
    5e30:	701d      	strb	r5, [r3, #0]
    5e32:	3301      	adds	r3, #1
    5e34:	e7fa      	b.n	5e2c <strncpy+0x1a>
    5e36:	001c      	movs	r4, r3
    5e38:	0032      	movs	r2, r6
    5e3a:	e7ec      	b.n	5e16 <strncpy+0x4>

00005e3c <__malloc_lock>:
    5e3c:	4770      	bx	lr

00005e3e <__malloc_unlock>:
    5e3e:	4770      	bx	lr

00005e40 <_realloc_r>:
    5e40:	b5f8      	push	{r3, r4, r5, r6, r7, lr}
    5e42:	0007      	movs	r7, r0
    5e44:	000d      	movs	r5, r1
    5e46:	0016      	movs	r6, r2
    5e48:	2900      	cmp	r1, #0
    5e4a:	d105      	bne.n	5e58 <_realloc_r+0x18>
    5e4c:	0011      	movs	r1, r2
    5e4e:	f7ff ff49 	bl	5ce4 <_malloc_r>
    5e52:	0004      	movs	r4, r0
    5e54:	0020      	movs	r0, r4
    5e56:	bdf8      	pop	{r3, r4, r5, r6, r7, pc}
    5e58:	2a00      	cmp	r2, #0
    5e5a:	d103      	bne.n	5e64 <_realloc_r+0x24>
    5e5c:	f7ff fef8 	bl	5c50 <_free_r>
    5e60:	0034      	movs	r4, r6
    5e62:	e7f7      	b.n	5e54 <_realloc_r+0x14>
    5e64:	f000 f812 	bl	5e8c <_malloc_usable_size_r>
    5e68:	002c      	movs	r4, r5
    5e6a:	4286      	cmp	r6, r0
    5e6c:	d9f2      	bls.n	5e54 <_realloc_r+0x14>
    5e6e:	0031      	movs	r1, r6
    5e70:	0038      	movs	r0, r7
    5e72:	f7ff ff37 	bl	5ce4 <_malloc_r>
    5e76:	1e04      	subs	r4, r0, #0
    5e78:	d0ec      	beq.n	5e54 <_realloc_r+0x14>
    5e7a:	0029      	movs	r1, r5
    5e7c:	0032      	movs	r2, r6
    5e7e:	f7ff fed6 	bl	5c2e <memcpy>
    5e82:	0029      	movs	r1, r5
    5e84:	0038      	movs	r0, r7
    5e86:	f7ff fee3 	bl	5c50 <_free_r>
    5e8a:	e7e3      	b.n	5e54 <_realloc_r+0x14>

00005e8c <_malloc_usable_size_r>:
    5e8c:	1f0b      	subs	r3, r1, #4
    5e8e:	681b      	ldr	r3, [r3, #0]
    5e90:	1f18      	subs	r0, r3, #4
    5e92:	2b00      	cmp	r3, #0
    5e94:	da01      	bge.n	5e9a <_malloc_usable_size_r+0xe>
    5e96:	580b      	ldr	r3, [r1, r0]
    5e98:	18c0      	adds	r0, r0, r3
    5e9a:	4770      	bx	lr

00005e9c <_sbrk>:
    5e9c:	4a04      	ldr	r2, [pc, #16]	; (5eb0 <_sbrk+0x14>)
    5e9e:	6813      	ldr	r3, [r2, #0]
    5ea0:	2b00      	cmp	r3, #0
    5ea2:	d003      	beq.n	5eac <_sbrk+0x10>
    5ea4:	1818      	adds	r0, r3, r0
    5ea6:	6010      	str	r0, [r2, #0]
    5ea8:	0018      	movs	r0, r3
    5eaa:	4770      	bx	lr
    5eac:	4b01      	ldr	r3, [pc, #4]	; (5eb4 <_sbrk+0x18>)
    5eae:	e7f9      	b.n	5ea4 <_sbrk+0x8>
    5eb0:	20000e10 	.word	0x20000e10
    5eb4:	20000e18 	.word	0x20000e18

00005eb8 <_init>:
    5eb8:	b5f8      	push	{r3, r4, r5, r6, r7, lr}
    5eba:	46c0      	nop			; (mov r8, r8)
    5ebc:	bcf8      	pop	{r3, r4, r5, r6, r7}
    5ebe:	bc08      	pop	{r3}
    5ec0:	469e      	mov	lr, r3
    5ec2:	4770      	bx	lr

00005ec4 <_fini>:
    5ec4:	b5f8      	push	{r3, r4, r5, r6, r7, lr}
    5ec6:	46c0      	nop			; (mov r8, r8)
    5ec8:	bcf8      	pop	{r3, r4, r5, r6, r7}
    5eca:	bc08      	pop	{r3}
    5ecc:	469e      	mov	lr, r3
    5ece:	4770      	bx	lr
    5ed0:	656c6946 	.word	0x656c6946
    5ed4:	616d2820 	.word	0x616d2820
    5ed8:	29656279 	.word	0x29656279
    5edc:	746f6e20 	.word	0x746f6e20
    5ee0:	756f6620 	.word	0x756f6620
    5ee4:	5300646e 	.word	0x5300646e
    5ee8:	74726174 	.word	0x74726174
    5eec:	72617020 	.word	0x72617020
    5ef0:	46006573 	.word	0x46006573
    5ef4:	20656c69 	.word	0x20656c69
    5ef8:	657a6973 	.word	0x657a6973
    5efc:	4900203a 	.word	0x4900203a
    5f00:	6567616d 	.word	0x6567616d
    5f04:	66664f20 	.word	0x66664f20
    5f08:	3a746573 	.word	0x3a746573
    5f0c:	65480020 	.word	0x65480020
    5f10:	72656461 	.word	0x72656461
    5f14:	7a697320 	.word	0x7a697320
    5f18:	00203a65 	.word	0x00203a65
    5f1c:	20746942 	.word	0x20746942
    5f20:	74706544 	.word	0x74706544
    5f24:	00203a68 	.word	0x00203a68
    5f28:	64616f4c 	.word	0x64616f4c
    5f2c:	69206465 	.word	0x69206465
    5f30:	2000206e 	.word	0x2000206e
    5f34:	4200736d 	.word	0x4200736d
    5f38:	6620504d 	.word	0x6620504d
    5f3c:	616d726f 	.word	0x616d726f
    5f40:	6f6e2074 	.word	0x6f6e2074
    5f44:	65722074 	.word	0x65722074
    5f48:	6e676f63 	.word	0x6e676f63
    5f4c:	64657a69 	.word	0x64657a69
    5f50:	20726f20 	.word	0x20726f20
    5f54:	6e204453 	.word	0x6e204453
    5f58:	6d20746f 	.word	0x6d20746f
    5f5c:	746e756f 	.word	0x746e756f
    5f60:	4c006465 	.word	0x4c006465
    5f64:	6964616f 	.word	0x6964616f
    5f68:	6920676e 	.word	0x6920676e
    5f6c:	6567616d 	.word	0x6567616d
    5f70:	49002720 	.word	0x49002720
    5f74:	6567616d 	.word	0x6567616d
    5f78:	7a697320 	.word	0x7a697320
    5f7c:	00203a65 	.word	0x00203a65
    5f80:	6e6e6977 	.word	0x6e6e6977
    5f84:	3d207265 	.word	0x3d207265
    5f88:	0020      	.short	0x0020
    5f8a:	6461      	.short	0x6461
    5f8c:	766f4d64 	.word	0x766f4d64
    5f90:	70202c65 	.word	0x70202c65
    5f94:	6579616c 	.word	0x6579616c
    5f98:	203d2072 	.word	0x203d2072
    5f9c:	69687400 	.word	0x69687400
    5fa0:	696d2073 	.word	0x696d2073
    5fa4:	20746867 	.word	0x20746867
    5fa8:	61206562 	.word	0x61206562
    5fac:	6f726320 	.word	0x6f726320
    5fb0:	74007373 	.word	0x74007373
    5fb4:	20736968 	.word	0x20736968
    5fb8:	6867696d 	.word	0x6867696d
    5fbc:	65622074 	.word	0x65622074
    5fc0:	6e206120 	.word	0x6e206120
    5fc4:	6867756f 	.word	0x6867756f
    5fc8:	0074      	.short	0x0074
    5fca:	6f43      	.short	0x6f43
    5fcc:	6e646c75 	.word	0x6e646c75
    5fd0:	73207427 	.word	0x73207427
    5fd4:	74726174 	.word	0x74726174
    5fd8:	36544620 	.word	0x36544620
    5fdc:	20363032 	.word	0x20363032
    5fe0:	63756f74 	.word	0x63756f74
    5fe4:	72637368 	.word	0x72637368
    5fe8:	206e6565 	.word	0x206e6565
    5fec:	746e6f63 	.word	0x746e6f63
    5ff0:	6c6c6f72 	.word	0x6c6c6f72
    5ff4:	44007265 	.word	0x44007265
    5ff8:	65766972 	.word	0x65766972
    5ffc:	696d2072 	.word	0x696d2072
    6000:	20746867 	.word	0x20746867
    6004:	20746f6e 	.word	0x20746f6e
    6008:	65766168 	.word	0x65766168
    600c:	65656220 	.word	0x65656220
    6010:	6f66206e 	.word	0x6f66206e
    6014:	00646e75 	.word	0x00646e75
    6018:	6c696146 	.word	0x6c696146
    601c:	74206465 	.word	0x74206465
    6020:	6e69206f 	.word	0x6e69206f
    6024:	61697469 	.word	0x61697469
    6028:	6573696c 	.word	0x6573696c
    602c:	20445320 	.word	0x20445320
    6030:	64726163 	.word	0x64726163
    6034:	00          	.byte	0x00
    6035:	0d          	.byte	0x0d
    6036:	000a      	.short	0x000a

00006038 <_ZTV4Uart>:
	...
    6040:	1129 0000 0aaf 0000 106b 0000 102d 0000     ).......k...-...
    6050:	1045 0000 11dd 0000 0e41 0000 0e31 0000     E.......A...1...
    6060:	0ebd 0000 0e57 0000 0e2d 0000               ....W...-...

0000606c <_ZTV26DoubleBufferedEPOutHandler>:
	...
    6074:	157b 0000 145d 0000 13b9 0000               {...].......

00006080 <_ZL14STRING_PRODUCT>:
    6080:	7241 7564 6e69 206f 304d 5020 6f72 0000     Arduino M0 Pro..

00006090 <_ZL15STRING_LANGUAGE>:
    6090:	0304 0409                                   ....

00006094 <_ZL19STRING_MANUFACTURER>:
    6094:	7241 7564 6e69 206f 4c4c 0043               Arduino LLC.

000060a0 <_ZL21USB_DeviceDescriptorB>:
    60a0:	0112 0200 02ef 4001 2a03 804f 0100 0201     .......@.*O.....
    60b0:	0103 0000                                   ....

000060b4 <_ZTV16Adafruit_ILI9341>:
	...
    60bc:	4ffd 0000 0aaf 0000 0aa9 0000 0aad 0000     .O..............
    60cc:	27b9 0000 2881 0000 2f25 0000 2fa5 0000     .'...(..%/.../..
    60dc:	2791 0000 27a5 0000 4a0d 0000 28bd 0000     .'...'...J...(..
    60ec:	2d89 0000 2de5 0000 27e1 0000 2813 0000     .-...-...'...(..
    60fc:	2845 0000 4bdf 0000 4bf9 0000 4c7b 0000     E(...K...K..{L..

0000610c <_ZTVN5SDLib4FileE>:
	...
    6114:	3037 0000 304b 0000 0aa9 0000 3071 0000     70..K0......q0..
    6124:	316d 0000 309b 0000 30af 0000 002f 3c7c     m1...0...0../.|<
    6134:	5e3e 3d2b 2f3f 5d5b 2c3b 222a 005c 0000     >^+=?/[];,*"\...

00006144 <_ZTV6SdFile>:
	...
    614c:	402d 0000 0aaf 0000 0aa9 0000 0aad 0000     -@..............

0000615c <_ZTV7TwoWire>:
	...
    6164:	4749 0000 45b9 0000 0aa9 0000 45dd 0000     IG...E.......E..
    6174:	45f9 0000 480d 0000 45df 0000               .E...H...E..

00006180 <g_APinDescription>:
    6180:	0000 0000 000b 0000 0002 0000 0004 0000     ................
    6190:	00ff ffff ffff 000b 0000 0000 000a 0000     ................
    61a0:	0002 0000 0004 0000 00ff ffff ffff 000a     ................
    61b0:	0000 0000 0008 0000 0004 0000 001c 0000     ................
    61c0:	00ff 0000 0000 00ff 0000 0000 0009 0000     ................
    61d0:	0004 0000 001c 0000 00ff 0001 0001 0009     ................
    61e0:	0000 0000 000e 0000 0004 0000 001c 0000     ................
    61f0:	00ff 0300 0300 000e 0000 0000 000f 0000     ................
    6200:	0004 0000 001c 0000 00ff 0301 0301 000f     ................
    6210:	0000 0000 0014 0000 0005 0000 001c 0000     ................
    6220:	00ff 0002 0002 0004 0000 0000 0015 0000     ................
    6230:	0005 0000 001c 0000 00ff 0003 0003 0005     ................
    6240:	0000 0000 0006 0000 0004 0000 001c 0000     ................
    6250:	00ff 0100 0100 0006 0000 0000 0007 0000     ................
    6260:	0004 0000 001c 0000 00ff 0101 0101 0007     ................
    6270:	0000 0000 0012 0000 0004 0000 001c 0000     ................
    6280:	00ff 0300 0300 0002 0000 0000 0010 0000     ................
    6290:	0004 0000 001c 0000 00ff 0200 0200 0000     ................
    62a0:	0000 0000 0013 0000 0004 0000 001c 0000     ................
    62b0:	00ff 0301 0301 0003 0000 0000 0011 0000     ................
    62c0:	0004 0000 000c 0000 00ff 0201 ffff 0001     ................
    62d0:	00ff 0000 0000 0000 00ff 0000 0000 0000     ................
    62e0:	00ff ffff ffff 00ff 0000 0000 0003 0000     ................
    62f0:	0001 0000 0002 0000 00ff ffff ffff 00ff     ................
    6300:	0000 0000 0016 0000 0002 0000 0004 0000     ................
    6310:	00ff ffff ffff 0006 0000 0000 0017 0000     ................
    6320:	0002 0000 0004 0000 00ff ffff ffff 0007     ................
    6330:	0000 0000 000c 0000 0003 0000 0004 0000     ................
    6340:	00ff ffff ffff 000c 00ff 0000 0000 0000     ................
    6350:	00ff 0000 0000 0000 00ff ffff ffff 00ff     ................
    6360:	0001 0000 000b 0000 0003 0000 0004 0000     ................
    6370:	00ff ffff ffff 000b 0001 0000 000a 0000     ................
    6380:	0003 0000 0004 0000 00ff ffff ffff 000a     ................
    6390:	00ff 0000 0000 0000 00ff 0000 0000 0000     ................
    63a0:	00ff ffff ffff 00ff 00ff 0000 0000 0000     ................
    63b0:	00ff 0000 0000 0000 00ff ffff ffff 00ff     ................
    63c0:	0000 0000 0002 0000 0001 0000 0002 0000     ................
    63d0:	0000 ffff ffff 0002 0001 0000 0008 0000     ................
    63e0:	0001 0000 0002 0000 0002 ffff ffff 0008     ................
    63f0:	0001 0000 0009 0000 0001 0000 0002 0000     ................
    6400:	0003 ffff ffff 0009 0000 0000 0004 0000     ................
    6410:	0001 0000 0002 0000 0004 ffff ffff 0004     ................
    6420:	0000 0000 0005 0000 0001 0000 0002 0000     ................
    6430:	0005 ffff ffff 0005 0001 0000 0002 0000     ................
    6440:	0001 0000 0002 0000 000a ffff ffff 0002     ................
    6450:	0001 0000 0003 0000 000b 0000 0004 0000     ................
    6460:	00ff ffff ffff 00ff 0000 0000 001b 0000     ................
    6470:	000b 0000 0004 0000 00ff ffff ffff 00ff     ................
    6480:	0000 0000 001c 0000 0006 0000 0000 0000     ................
    6490:	00ff ffff ffff 00ff 0000 0000 0018 0000     ................
    64a0:	0006 0000 0000 0000 00ff ffff ffff 00ff     ................
    64b0:	0000 0000 0019 0000 0006 0000 0000 0000     ................
    64c0:	00ff ffff ffff 00ff 0001 0000 0016 0000     ................
    64d0:	0003 0000 0000 0000 00ff ffff ffff 00ff     ................
    64e0:	0001 0000 0017 0000 0003 0000 0000 0000     ................
    64f0:	00ff ffff ffff 00ff 0000 0000 0016 0000     ................
    6500:	0002 0000 0000 0000 00ff ffff ffff 00ff     ................
    6510:	0000 0000 0017 0000 0002 0000 0000 0000     ................
    6520:	00ff ffff ffff 00ff 0000 0000 0013 0000     ................
    6530:	0002 0000 0000 0000 00ff ffff ffff 00ff     ................
    6540:	0000 0000 0010 0000 0002 0000 0000 0000     ................
    6550:	00ff ffff ffff 00ff 0000 0000 0012 0000     ................
    6560:	0002 0000 0000 0000 00ff ffff ffff 00ff     ................
    6570:	0000 0000 0011 0000 0002 0000 0000 0000     ................
    6580:	00ff ffff ffff 00ff 0000 0000 000d 0000     ................
    6590:	0004 0000 000c 0000 00ff 0001 ffff 000d     ................
    65a0:	0000 0000 0015 0000 0005 0000 000c 0000     ................
    65b0:	00ff 0003 ffff 00ff 0000 0000 0006 0000     ................
    65c0:	0004 0000 000c 0000 00ff 0100 ffff 00ff     ................
    65d0:	0000 0000 0007 0000 0004 0000 000c 0000     ................
    65e0:	00ff 0101 ffff 00ff 0000 0000 0002 0000     ................
    65f0:	0001 0000 0002 0000 0014 ffff ffff 0002     ................

00006600 <_ZL4font>:
    6600:	0000 0000 3e00 4f5b 3e5b 6b3e 6b4f 1c3e     .....>[O[>>kOk>.
    6610:	7c3e 1c3e 3c18 3c7e 1c18 7d57 1c57 5e1c     >|>..<~<..W}W..^
    6620:	5e7f 001c 3c18 0018 e7ff e7c3 00ff 2418     .^...<.........$
    6630:	0018 e7ff e7db 30ff 3a48 0e06 2926 2979     .......0H:..&)y)
    6640:	4026 057f 0705 7f40 2505 5a3f e73c 5a3c     &@....@..%?Z<.<Z
    6650:	3e7f 1c1c 0808 1c1c 7f3e 2214 227f 5f14     .>......>.."."._
    6660:	005f 5f5f 0906 017f 007f 8966 6a95 6060     _.__......f..j``
    6670:	6060 9460 ffa2 94a2 0408 047e 1008 7e20     ```.......~... ~
    6680:	1020 0808 1c2a 0808 2a1c 0808 101e 1010      ...*....*......
    6690:	0c10 0c1e 0c1e 3830 383e 0630 3e0e 060e     ......08>80..>..
    66a0:	0000 0000 0000 5f00 0000 0700 0700 1400     ......._........
    66b0:	147f 147f 2a24 2a7f 2312 0813 6264 4936     ....$*.*.#..db6I
    66c0:	2056 0050 0708 0003 1c00 4122 0000 2241     V P......."A..A"
    66d0:	001c 1c2a 1c7f 082a 3e08 0808 8000 3070     ..*...*..>....p0
    66e0:	0800 0808 0808 0000 6060 2000 0810 0204     ........``. ....
    66f0:	513e 4549 003e 7f42 0040 4972 4949 2146     >QIE>.B.@.rIIIF!
    6700:	4941 334d 1418 7f12 2710 4545 3945 4a3c     AIM3.....'EEE9<J
    6710:	4949 4131 1121 0709 4936 4949 4636 4949     II1A!...6III6FII
    6720:	1e29 0000 0014 0000 3440 0000 0800 2214     ).......@4....."
    6730:	1441 1414 1414 4100 1422 0208 5901 0609     A......A"....Y..
    6740:	413e 595d 7c4e 1112 7c12 497f 4949 3e36     >A]YN|...|.III6>
    6750:	4141 2241 417f 4141 7f3e 4949 4149 097f     AAA".AAA>.IIIA..
    6760:	0909 3e01 4141 7351 087f 0808 007f 7f41     ...>AAQs......A.
    6770:	0041 4020 3f41 7f01 1408 4122 407f 4040     A. @A?...."A.@@@
    6780:	7f40 1c02 7f02 047f 1008 3e7f 4141 3e41     @..........>AAA>
    6790:	097f 0909 3e06 5141 5e21 097f 2919 2646     .....>AQ!^...)F&
    67a0:	4949 3249 0103 017f 3f03 4040 3f40 201f     III2.....?@@@?. 
    67b0:	2040 3f1f 3840 3f40 1463 1408 0363 7804     @ .?@8@?c...c..x
    67c0:	0304 5961 4d49 0043 417f 4141 0402 1008     ..aYIMC..AAA....
    67d0:	0020 4141 7f41 0204 0201 4004 4040 4040      .AAA......@@@@@
    67e0:	0300 0807 2000 5454 4078 287f 4444 3838     ..... TTx@.(DD88
    67f0:	4444 2844 4438 2844 387f 5454 1854 0800     DDD(8DD(.8TTT...
    6800:	097e 1802 a4a4 789c 087f 0404 0078 7d44     ~......x....x.D}
    6810:	0040 4020 3d40 7f00 2810 0044 4100 407f     @. @@=...(D..A.@
    6820:	7c00 7804 7804 087c 0404 3878 4444 3844     .|.x.x|...x8DDD8
    6830:	18fc 2424 1818 2424 fc18 087c 0404 4808     ..$$..$$..|....H
    6840:	5454 2454 0404 443f 3c24 4040 7c20 201c     TTT$..?D$<@@ |. 
    6850:	2040 3c1c 3040 3c40 2844 2810 4c44 9090     @ .<@0@<D(.(DL..
    6860:	7c90 6444 4c54 0044 3608 0041 0000 0077     .|DdTLD..6A...w.
    6870:	0000 3641 0008 0102 0402 3c02 2326 3c26     ..A6.......<&#&<
    6880:	a11e 61a1 3a12 4040 7a20 5438 5554 2159     ...a.:@@ z8TTUY!
    6890:	5555 4179 5422 7854 2142 5455 4078 5420     UUyA"TTxB!UTx@ T
    68a0:	7955 0c40 521e 1272 5539 5555 3959 5454     Uy@..Rr.9UUUY9TT
    68b0:	5954 5539 5454 0058 4500 417c 0200 7d45     TY9UTTX..E|A..E}
    68c0:	0042 4501 407c 127d 1211 f07d 2528 f028     B..E|@}...}.(%(.
    68d0:	547c 4555 2000 5454 547c 0a7c 7f09 3249     |TUE. TT|T|...I2
    68e0:	4949 3249 443a 4444 323a 484a 3048 413a     III2:DDD:2JHH0:A
    68f0:	2141 3a7a 4042 7820 9d00 a0a0 3d7d 4242     A!z:B@ x....}=BB
    6900:	3d42 403d 4040 3c3d ff24 2424 7e48 4349     B==@@@=<$.$$H~IC
    6910:	2b66 fc2f 2b2f 09ff f629 c020 7e88 0309     f+/./+..). ..~..
    6920:	5420 7954 0041 4400 417d 4830 4a48 3832      TTyA..D}A0HHJ28
    6930:	4040 7a22 7a00 0a0a 7d72 190d 7d31 2926     @@"z.z..r}..1}&)
    6940:	2f29 2628 2929 2629 4830 404d 3820 0808     )/(&)))&0HM@ 8..
    6950:	0808 0808 0808 2f38 c810 baac 102f 3428     ......8/..../.(4
    6960:	00fa 7b00 0000 1408 142a 2222 2a14 0814     ...{....*."".*..
    6970:	0055 0055 aa55 aa55 aa55 55ff 55ff 00ff     U.U.U.U.U..U.U..
    6980:	0000 00ff 1010 ff10 1400 1414 00ff 1010     ................
    6990:	00ff 10ff f010 f010 1414 fc14 1400 f714     ................
    69a0:	ff00 0000 00ff 14ff f414 fc04 1414 1017     ................
    69b0:	101f 1f10 1f10 1414 1f14 1000 1010 00f0     ................
    69c0:	0000 1f00 1010 1010 101f 1010 f010 0010     ................
    69d0:	0000 10ff 1010 1010 1010 1010 10ff 0000     ................
    69e0:	ff00 0014 ff00 ff00 0000 101f 0017 fc00     ................
    69f0:	f404 1414 1017 1417 f414 f404 0000 00ff     ................
    6a00:	14f7 1414 1414 1414 00f7 14f7 1414 1417     ................
    6a10:	1010 101f 141f 1414 14f4 1010 10f0 00f0     ................
    6a20:	1f00 1f10 0000 1f00 0014 0000 14fc 0000     ................
    6a30:	10f0 10f0 ff10 ff10 1414 ff14 1014 1010     ................
    6a40:	001f 0000 f000 ff10 ffff ffff f0f0 f0f0     ................
    6a50:	fff0 ffff 0000 0000 ff00 0fff 0f0f 0f0f     ................
    6a60:	4438 3844 fc44 4a4a 344a 027e 0602 0206     8DD8D.JJJ4~.....
    6a70:	027e 027e 5563 4149 3863 4444 043c 7e40     ~.~.cUIAc8DD<.@~
    6a80:	1e20 0620 7e02 0202 a599 a5e7 1c99 492a      . ..~........*I
    6a90:	1c2a 724c 7201 304c 4d4a 304d 4830 4878     *.Lr.rL0JMM00HxH
    6aa0:	bc30 5a62 3d46 493e 4949 7e00 0101 7e01     0.bZF=>III.~...~
    6ab0:	2a2a 2a2a 442a 5f44 4444 5140 444a 4040     *****DD_DD@QJD@@
    6ac0:	4a44 4051 0000 01ff e003 ff80 0000 0808     DJQ@............
    6ad0:	6b6b 3608 3612 3624 0f06 0f09 0006 1800     kk.6.6$6........
    6ae0:	0018 0000 1010 3000 ff40 0101 1f00 0101     .......0@.......
    6af0:	001e 1d19 1217 3c00 3c3c 003c 0000 0000     .......<<<<.....

00006b00 <_ZTV12Adafruit_GFX>:
	...
    6b08:	4ffd 0000 0aaf 0000 0aa9 0000 0aad 0000     .O..............
    6b18:	50f9 0000 4b19 0000 4ad7 0000 4b01 0000     .P...K...J...K..
    6b28:	4ae1 0000 4af1 0000 4a0d 0000 4b19 0000     .J...J...J...K..
    6b38:	4cfd 0000 4cfb 0000 4b1b 0000 4b57 0000     .L...L...K..WK..
    6b48:	4b93 0000 4bdf 0000 4bf9 0000 4c7b 0000     .K...K...K..{L..

00006b58 <_ZTV7Serial_>:
	...
    6b60:	56ad 0000 56d9 0000 56a9 0000 56cd 0000     .V...V...V...V..
    6b70:	56c1 0000 5711 0000 56f5 0000               .V...W...V..

00006b7c <__sf_fake_stderr>:
	...

00006b9c <__sf_fake_stdin>:
	...

00006bbc <__sf_fake_stdout>:
	...

00006bdc <__EH_FRAME_BEGIN__>:
    6bdc:	0000 0000                                   ....
